
fir1:     file format elf64-littleriscv


Disassembly of section .text.init:

0000000080000000 <_start>:
#endif

  .section ".text.init"
  .globl _start
_start:
  li  x1, 0
    80000000:	4081                	li	ra,0
  li  x2, 0
    80000002:	4101                	li	sp,0
  li  x3, 0
    80000004:	4181                	li	gp,0
  li  x4, 0
    80000006:	4201                	li	tp,0
  li  x5, 0
    80000008:	4281                	li	t0,0
  li  x6, 0
    8000000a:	4301                	li	t1,0
  li  x7, 0
    8000000c:	4381                	li	t2,0
  li  x8, 0
    8000000e:	4401                	li	s0,0
  li  x9, 0
    80000010:	4481                	li	s1,0
  li  x10,0
    80000012:	4501                	li	a0,0
  li  x11,0
    80000014:	4581                	li	a1,0
  li  x12,0
    80000016:	4601                	li	a2,0
  li  x13,0
    80000018:	4681                	li	a3,0
  li  x14,0
    8000001a:	4701                	li	a4,0
  li  x15,0
    8000001c:	4781                	li	a5,0
  li  x16,0
    8000001e:	4801                	li	a6,0
  li  x17,0
    80000020:	4881                	li	a7,0
  li  x18,0
    80000022:	4901                	li	s2,0
  li  x19,0
    80000024:	4981                	li	s3,0
  li  x20,0
    80000026:	4a01                	li	s4,0
  li  x21,0
    80000028:	4a81                	li	s5,0
  li  x22,0
    8000002a:	4b01                	li	s6,0
  li  x23,0
    8000002c:	4b81                	li	s7,0
  li  x24,0
    8000002e:	4c01                	li	s8,0
  li  x25,0
    80000030:	4c81                	li	s9,0
  li  x26,0
    80000032:	4d01                	li	s10,0
  li  x27,0
    80000034:	4d81                	li	s11,0
  li  x28,0
    80000036:	4e01                	li	t3,0
  li  x29,0
    80000038:	4e81                	li	t4,0
  li  x30,0
    8000003a:	4f01                	li	t5,0
  li  x31,0
    8000003c:	4f81                	li	t6,0

  # enable FPU and accelerator if present
  li t0, MSTATUS_FS | MSTATUS_XS
    8000003e:	62f9                	lui	t0,0x1e
  csrs mstatus, t0
    80000040:	3002a073          	csrs	mstatus,t0

  # make sure XLEN agrees with compilation choice
  li t0, 1
    80000044:	4285                	li	t0,1
  slli t0, t0, 31
    80000046:	02fe                	slli	t0,t0,0x1f
#if __riscv_xlen == 64
  bgez t0, 1f
    80000048:	0002d863          	bgez	t0,80000058 <_start+0x58>
#else
  bltz t0, 1f
#endif
2:
  li a0, 1
    8000004c:	4505                	li	a0,1
  sw a0, tohost, t0
    8000004e:	00002297          	auipc	t0,0x2
    80000052:	faa2a923          	sw	a0,-78(t0) # 80002000 <tohost>
  j 2b
    80000056:	bfdd                	j	8000004c <_start+0x4c>
1:

#ifdef __riscv_flen
  # initialize FPU if we have one
  la t0, 1f
    80000058:	00000297          	auipc	t0,0x0
    8000005c:	09028293          	addi	t0,t0,144 # 800000e8 <_start+0xe8>
  csrw mtvec, t0
    80000060:	30529073          	csrw	mtvec,t0

  fssr    x0
    80000064:	00301073          	fscsr	zero
  fmv.s.x f0, x0
    80000068:	f0000053          	fmv.w.x	ft0,zero
  fmv.s.x f1, x0
    8000006c:	f00000d3          	fmv.w.x	ft1,zero
  fmv.s.x f2, x0
    80000070:	f0000153          	fmv.w.x	ft2,zero
  fmv.s.x f3, x0
    80000074:	f00001d3          	fmv.w.x	ft3,zero
  fmv.s.x f4, x0
    80000078:	f0000253          	fmv.w.x	ft4,zero
  fmv.s.x f5, x0
    8000007c:	f00002d3          	fmv.w.x	ft5,zero
  fmv.s.x f6, x0
    80000080:	f0000353          	fmv.w.x	ft6,zero
  fmv.s.x f7, x0
    80000084:	f00003d3          	fmv.w.x	ft7,zero
  fmv.s.x f8, x0
    80000088:	f0000453          	fmv.w.x	fs0,zero
  fmv.s.x f9, x0
    8000008c:	f00004d3          	fmv.w.x	fs1,zero
  fmv.s.x f10,x0
    80000090:	f0000553          	fmv.w.x	fa0,zero
  fmv.s.x f11,x0
    80000094:	f00005d3          	fmv.w.x	fa1,zero
  fmv.s.x f12,x0
    80000098:	f0000653          	fmv.w.x	fa2,zero
  fmv.s.x f13,x0
    8000009c:	f00006d3          	fmv.w.x	fa3,zero
  fmv.s.x f14,x0
    800000a0:	f0000753          	fmv.w.x	fa4,zero
  fmv.s.x f15,x0
    800000a4:	f00007d3          	fmv.w.x	fa5,zero
  fmv.s.x f16,x0
    800000a8:	f0000853          	fmv.w.x	fa6,zero
  fmv.s.x f17,x0
    800000ac:	f00008d3          	fmv.w.x	fa7,zero
  fmv.s.x f18,x0
    800000b0:	f0000953          	fmv.w.x	fs2,zero
  fmv.s.x f19,x0
    800000b4:	f00009d3          	fmv.w.x	fs3,zero
  fmv.s.x f20,x0
    800000b8:	f0000a53          	fmv.w.x	fs4,zero
  fmv.s.x f21,x0
    800000bc:	f0000ad3          	fmv.w.x	fs5,zero
  fmv.s.x f22,x0
    800000c0:	f0000b53          	fmv.w.x	fs6,zero
  fmv.s.x f23,x0
    800000c4:	f0000bd3          	fmv.w.x	fs7,zero
  fmv.s.x f24,x0
    800000c8:	f0000c53          	fmv.w.x	fs8,zero
  fmv.s.x f25,x0
    800000cc:	f0000cd3          	fmv.w.x	fs9,zero
  fmv.s.x f26,x0
    800000d0:	f0000d53          	fmv.w.x	fs10,zero
  fmv.s.x f27,x0
    800000d4:	f0000dd3          	fmv.w.x	fs11,zero
  fmv.s.x f28,x0
    800000d8:	f0000e53          	fmv.w.x	ft8,zero
  fmv.s.x f29,x0
    800000dc:	f0000ed3          	fmv.w.x	ft9,zero
  fmv.s.x f30,x0
    800000e0:	f0000f53          	fmv.w.x	ft10,zero
  fmv.s.x f31,x0
    800000e4:	f0000fd3          	fmv.w.x	ft11,zero
1:
#endif

  # initialize trap vector
  la t0, trap_entry
    800000e8:	00000297          	auipc	t0,0x0
    800000ec:	03828293          	addi	t0,t0,56 # 80000120 <trap_entry>
  csrw mtvec, t0
    800000f0:	30529073          	csrw	mtvec,t0

  # initialize global pointer
.option push
.option norelax
  la gp, __global_pointer$
    800000f4:	00002197          	auipc	gp,0x2
    800000f8:	75418193          	addi	gp,gp,1876 # 80002848 <__global_pointer$>
.option pop

  la  tp, _end + 63
    800000fc:	bcf18213          	addi	tp,gp,-1073 # 80002417 <_end+0x3f>
  and tp, tp, -64
    80000100:	fc027213          	andi	tp,tp,-64

  # get core id
  csrr a0, mhartid
    80000104:	f1402573          	csrr	a0,mhartid
  # for now, assume only 1 core
  li a1, 1
    80000108:	4585                	li	a1,1
1:bgeu a0, a1, 1b
    8000010a:	00b57063          	bgeu	a0,a1,8000010a <_start+0x10a>

  # give each core 128KB of stack + TLS
#define STKSHIFT 17
  add sp, a0, 1
    8000010e:	00150113          	addi	sp,a0,1
  sll sp, sp, STKSHIFT
    80000112:	0146                	slli	sp,sp,0x11
  add sp, sp, tp
    80000114:	9112                	add	sp,sp,tp
  sll a2, a0, STKSHIFT
    80000116:	01151613          	slli	a2,a0,0x11
  add tp, tp, a2
    8000011a:	9232                	add	tp,tp,a2

  j _init
    8000011c:	6a90006f          	j	80000fc4 <_init>

0000000080000120 <trap_entry>:

  .align 2
trap_entry:
  addi sp, sp, -272
    80000120:	716d                	addi	sp,sp,-272

  SREG x1, 1*REGBYTES(sp)
    80000122:	e406                	sd	ra,8(sp)
  SREG x2, 2*REGBYTES(sp)
    80000124:	e80a                	sd	sp,16(sp)
  SREG x3, 3*REGBYTES(sp)
    80000126:	ec0e                	sd	gp,24(sp)
  SREG x4, 4*REGBYTES(sp)
    80000128:	f012                	sd	tp,32(sp)
  SREG x5, 5*REGBYTES(sp)
    8000012a:	f416                	sd	t0,40(sp)
  SREG x6, 6*REGBYTES(sp)
    8000012c:	f81a                	sd	t1,48(sp)
  SREG x7, 7*REGBYTES(sp)
    8000012e:	fc1e                	sd	t2,56(sp)
  SREG x8, 8*REGBYTES(sp)
    80000130:	e0a2                	sd	s0,64(sp)
  SREG x9, 9*REGBYTES(sp)
    80000132:	e4a6                	sd	s1,72(sp)
  SREG x10, 10*REGBYTES(sp)
    80000134:	e8aa                	sd	a0,80(sp)
  SREG x11, 11*REGBYTES(sp)
    80000136:	ecae                	sd	a1,88(sp)
  SREG x12, 12*REGBYTES(sp)
    80000138:	f0b2                	sd	a2,96(sp)
  SREG x13, 13*REGBYTES(sp)
    8000013a:	f4b6                	sd	a3,104(sp)
  SREG x14, 14*REGBYTES(sp)
    8000013c:	f8ba                	sd	a4,112(sp)
  SREG x15, 15*REGBYTES(sp)
    8000013e:	fcbe                	sd	a5,120(sp)
  SREG x16, 16*REGBYTES(sp)
    80000140:	e142                	sd	a6,128(sp)
  SREG x17, 17*REGBYTES(sp)
    80000142:	e546                	sd	a7,136(sp)
  SREG x18, 18*REGBYTES(sp)
    80000144:	e94a                	sd	s2,144(sp)
  SREG x19, 19*REGBYTES(sp)
    80000146:	ed4e                	sd	s3,152(sp)
  SREG x20, 20*REGBYTES(sp)
    80000148:	f152                	sd	s4,160(sp)
  SREG x21, 21*REGBYTES(sp)
    8000014a:	f556                	sd	s5,168(sp)
  SREG x22, 22*REGBYTES(sp)
    8000014c:	f95a                	sd	s6,176(sp)
  SREG x23, 23*REGBYTES(sp)
    8000014e:	fd5e                	sd	s7,184(sp)
  SREG x24, 24*REGBYTES(sp)
    80000150:	e1e2                	sd	s8,192(sp)
  SREG x25, 25*REGBYTES(sp)
    80000152:	e5e6                	sd	s9,200(sp)
  SREG x26, 26*REGBYTES(sp)
    80000154:	e9ea                	sd	s10,208(sp)
  SREG x27, 27*REGBYTES(sp)
    80000156:	edee                	sd	s11,216(sp)
  SREG x28, 28*REGBYTES(sp)
    80000158:	f1f2                	sd	t3,224(sp)
  SREG x29, 29*REGBYTES(sp)
    8000015a:	f5f6                	sd	t4,232(sp)
  SREG x30, 30*REGBYTES(sp)
    8000015c:	f9fa                	sd	t5,240(sp)
  SREG x31, 31*REGBYTES(sp)
    8000015e:	fdfe                	sd	t6,248(sp)

  csrr a0, mcause
    80000160:	34202573          	csrr	a0,mcause
  csrr a1, mepc
    80000164:	341025f3          	csrr	a1,mepc
  mv a2, sp
    80000168:	860a                	mv	a2,sp
  jal handle_trap
    8000016a:	0cb000ef          	jal	80000a34 <handle_trap>
  csrw mepc, a0
    8000016e:	34151073          	csrw	mepc,a0

  # Remain in M-mode after eret
  li t0, MSTATUS_MPP
    80000172:	6289                	lui	t0,0x2
    80000174:	8002829b          	addiw	t0,t0,-2048 # 1800 <_start-0x7fffe800>
  csrs mstatus, t0
    80000178:	3002a073          	csrs	mstatus,t0

  LREG x1, 1*REGBYTES(sp)
    8000017c:	60a2                	ld	ra,8(sp)
  LREG x2, 2*REGBYTES(sp)
    8000017e:	6142                	ld	sp,16(sp)
  LREG x3, 3*REGBYTES(sp)
    80000180:	61e2                	ld	gp,24(sp)
  LREG x4, 4*REGBYTES(sp)
    80000182:	7202                	ld	tp,32(sp)
  LREG x5, 5*REGBYTES(sp)
    80000184:	72a2                	ld	t0,40(sp)
  LREG x6, 6*REGBYTES(sp)
    80000186:	7342                	ld	t1,48(sp)
  LREG x7, 7*REGBYTES(sp)
    80000188:	73e2                	ld	t2,56(sp)
  LREG x8, 8*REGBYTES(sp)
    8000018a:	6406                	ld	s0,64(sp)
  LREG x9, 9*REGBYTES(sp)
    8000018c:	64a6                	ld	s1,72(sp)
  LREG x10, 10*REGBYTES(sp)
    8000018e:	6546                	ld	a0,80(sp)
  LREG x11, 11*REGBYTES(sp)
    80000190:	65e6                	ld	a1,88(sp)
  LREG x12, 12*REGBYTES(sp)
    80000192:	7606                	ld	a2,96(sp)
  LREG x13, 13*REGBYTES(sp)
    80000194:	76a6                	ld	a3,104(sp)
  LREG x14, 14*REGBYTES(sp)
    80000196:	7746                	ld	a4,112(sp)
  LREG x15, 15*REGBYTES(sp)
    80000198:	77e6                	ld	a5,120(sp)
  LREG x16, 16*REGBYTES(sp)
    8000019a:	680a                	ld	a6,128(sp)
  LREG x17, 17*REGBYTES(sp)
    8000019c:	68aa                	ld	a7,136(sp)
  LREG x18, 18*REGBYTES(sp)
    8000019e:	694a                	ld	s2,144(sp)
  LREG x19, 19*REGBYTES(sp)
    800001a0:	69ea                	ld	s3,152(sp)
  LREG x20, 20*REGBYTES(sp)
    800001a2:	7a0a                	ld	s4,160(sp)
  LREG x21, 21*REGBYTES(sp)
    800001a4:	7aaa                	ld	s5,168(sp)
  LREG x22, 22*REGBYTES(sp)
    800001a6:	7b4a                	ld	s6,176(sp)
  LREG x23, 23*REGBYTES(sp)
    800001a8:	7bea                	ld	s7,184(sp)
  LREG x24, 24*REGBYTES(sp)
    800001aa:	6c0e                	ld	s8,192(sp)
  LREG x25, 25*REGBYTES(sp)
    800001ac:	6cae                	ld	s9,200(sp)
  LREG x26, 26*REGBYTES(sp)
    800001ae:	6d4e                	ld	s10,208(sp)
  LREG x27, 27*REGBYTES(sp)
    800001b0:	6dee                	ld	s11,216(sp)
  LREG x28, 28*REGBYTES(sp)
    800001b2:	7e0e                	ld	t3,224(sp)
  LREG x29, 29*REGBYTES(sp)
    800001b4:	7eae                	ld	t4,232(sp)
  LREG x30, 30*REGBYTES(sp)
    800001b6:	7f4e                	ld	t5,240(sp)
  LREG x31, 31*REGBYTES(sp)
    800001b8:	7fee                	ld	t6,248(sp)

  addi sp, sp, 272
    800001ba:	6151                	addi	sp,sp,272
  mret
    800001bc:	30200073          	mret
	...

Disassembly of section .text:

00000000800001c2 <add_q31>:

// Add two Q1.31 fixed point numbers
 int add_q31(int a, int b) {
 long int result = (long)a + (long)b;
 return result;
 }
    800001c2:	9d2d                	addw	a0,a0,a1
    800001c4:	8082                	ret

00000000800001c6 <mul_q31>:

 // Multiplly two Q1.31 fixed point numbers
 int mul_q31(int a, int b) {
   long res = (long)a * (long)b;
    800001c6:	02b50533          	mul	a0,a0,a1
     int result = res >> 31; // shift right to get the 32-bit result; 
    800001ca:	857d                	srai	a0,a0,0x1f
         //this is equivalent to shifting left by 1 and discarding the bottom 32 bits
     //printf("mul_q31: a = %x, b = %x, res = %lx, result = %x\n", a, b, res, result);
     return result; 
 }
    800001cc:	2501                	sext.w	a0,a0
    800001ce:	8082                	ret

00000000800001d0 <fir>:
 // n is the length of x, m is the length of c
 // y[i] = c[0]*x[i] + c[1]*x[i+1] + ... + c[m-1]*x[i+m-1]
 // inputs in Q1.31 format
 void fir(int x[], int c[], int y[], int n, int m) {
     int i, j;
     for (j=0; j<n-m+1; j++) {
    800001d0:	40e68ebb          	subw	t4,a3,a4
    800001d4:	040ecd63          	bltz	t4,8000022e <fir+0x5e>
    800001d8:	fff7079b          	addiw	a5,a4,-1
    800001dc:	078a                	slli	a5,a5,0x2
    800001de:	00271893          	slli	a7,a4,0x2
    800001e2:	2e85                	addiw	t4,t4,1
    800001e4:	00f50333          	add	t1,a0,a5
    800001e8:	98ae                	add	a7,a7,a1
    800001ea:	4e01                	li	t3,0
         y[j] = 0;
    800001ec:	00062023          	sw	zero,0(a2)
         for (i=0; i<m; i++) 
    800001f0:	00e04f63          	bgtz	a4,8000020e <fir+0x3e>
     for (j=0; j<n-m+1; j++) {
    800001f4:	2e05                	addiw	t3,t3,1
    800001f6:	0611                	addi	a2,a2,4
    800001f8:	0311                	addi	t1,t1,4
    800001fa:	ffce99e3          	bne	t4,t3,800001ec <fir+0x1c>
    800001fe:	8082                	ret
    80000200:	2e05                	addiw	t3,t3,1
    80000202:	0611                	addi	a2,a2,4
    80000204:	0311                	addi	t1,t1,4
    80000206:	03ce8463          	beq	t4,t3,8000022e <fir+0x5e>
         y[j] = 0;
    8000020a:	00062023          	sw	zero,0(a2)
     for (j=0; j<n-m+1; j++) {
    8000020e:	851a                	mv	a0,t1
    80000210:	872e                	mv	a4,a1
    80000212:	4681                	li	a3,0
   long res = (long)a * (long)b;
    80000214:	431c                	lw	a5,0(a4)
    80000216:	00052803          	lw	a6,0(a0)
         for (i=0; i<m; i++) 
    8000021a:	0711                	addi	a4,a4,4
    8000021c:	1571                	addi	a0,a0,-4
   long res = (long)a * (long)b;
    8000021e:	030787b3          	mul	a5,a5,a6
     int result = res >> 31; // shift right to get the 32-bit result; 
    80000222:	87fd                	srai	a5,a5,0x1f
 return result;
    80000224:	9ebd                	addw	a3,a3,a5
             y[j] = add_q31(y[j], mul_q31(c[i], x[j-i+(m-1)]));
    80000226:	c214                	sw	a3,0(a2)
         for (i=0; i<m; i++) 
    80000228:	fee896e3          	bne	a7,a4,80000214 <fir+0x44>
    8000022c:	bfd1                	j	80000200 <fir+0x30>
     }
 }
    8000022e:	8082                	ret

0000000080000230 <putchar>:

void uartSend(char c) {
  volatile uint8_t *UART_THR = (uint8_t*)0x10000000;
  volatile uint8_t *UART_LSR = (uint8_t*)0x10000005;

	while (!(*UART_LSR & (1<<5))); // wait for THRE (trans hold reg empty)
    80000230:	10000737          	lui	a4,0x10000
#undef putchar
int putchar(int ch)
{
  // David_Harris@hmc.edu 11/30/2024
  // Replaced syscall with uartSend
  uartSend(ch);
    80000234:	0ff57513          	zext.b	a0,a0
	while (!(*UART_LSR & (1<<5))); // wait for THRE (trans hold reg empty)
    80000238:	0715                	addi	a4,a4,5 # 10000005 <_start-0x6ffffffb>
    8000023a:	100006b7          	lui	a3,0x10000
    8000023e:	00074783          	lbu	a5,0(a4)
    80000242:	0207f793          	andi	a5,a5,32
    80000246:	dfe5                	beqz	a5,8000023e <putchar+0xe>
	*UART_THR = c;
    80000248:	00a68023          	sb	a0,0(a3) # 10000000 <_start-0x70000000>
    syscall(SYS_write, 1, (uintptr_t)buf, buflen);
    buflen = 0;
  } */

  return 0;
}
    8000024c:	4501                	li	a0,0
    8000024e:	8082                	ret

0000000080000250 <sprintf_putch.0>:
  va_start(ap, fmt);

  void sprintf_putch(int ch, void** data)
  {
    char** pstr = (char**)data;
    **pstr = ch;
    80000250:	619c                	ld	a5,0(a1)
    80000252:	00a78023          	sb	a0,0(a5)
    (*pstr)++;
    80000256:	619c                	ld	a5,0(a1)
    80000258:	0785                	addi	a5,a5,1
    8000025a:	e19c                	sd	a5,0(a1)
  }
    8000025c:	8082                	ret

000000008000025e <vprintfmt.constprop.1>:
static void vprintfmt(void (*putch)(int, void**), void **putdat, const char *fmt, va_list ap)
    8000025e:	716d                	addi	sp,sp,-272
    while ((ch = *(unsigned char *) fmt) != '%') {
    80000260:	02500313          	li	t1,37
    switch (ch = *(unsigned char *) fmt++) {
    80000264:	05500e93          	li	t4,85
    80000268:	8c018e13          	addi	t3,gp,-1856 # 80002108 <fromhost+0xc8>
    8000026c:	a809                	j	8000027e <vprintfmt.constprop.1+0x20>
      if (ch == '\0')
    8000026e:	c729                	beqz	a4,800002b8 <vprintfmt.constprop.1+0x5a>
    **pstr = ch;
    80000270:	6118                	ld	a4,0(a0)
      fmt++;
    80000272:	0585                	addi	a1,a1,1
    **pstr = ch;
    80000274:	00f70023          	sb	a5,0(a4)
    (*pstr)++;
    80000278:	611c                	ld	a5,0(a0)
    8000027a:	0785                	addi	a5,a5,1
    8000027c:	e11c                	sd	a5,0(a0)
    while ((ch = *(unsigned char *) fmt) != '%') {
    8000027e:	0005c783          	lbu	a5,0(a1)
    80000282:	0007871b          	sext.w	a4,a5
    80000286:	fe6794e3          	bne	a5,t1,8000026e <vprintfmt.constprop.1+0x10>
    switch (ch = *(unsigned char *) fmt++) {
    8000028a:	0015c803          	lbu	a6,1(a1)
    fmt++;
    8000028e:	00158893          	addi	a7,a1,1
    precision = -1;
    80000292:	577d                	li	a4,-1
    fmt++;
    80000294:	86c6                	mv	a3,a7
    width = -1;
    80000296:	8fba                	mv	t6,a4
    padc = ' ';
    80000298:	02000293          	li	t0,32
    lflag = 0;
    8000029c:	4f01                	li	t5,0
    switch (ch = *(unsigned char *) fmt++) {
    8000029e:	fdd8079b          	addiw	a5,a6,-35
    800002a2:	0ff7f793          	zext.b	a5,a5
    800002a6:	00168593          	addi	a1,a3,1
    800002aa:	02fee563          	bltu	t4,a5,800002d4 <vprintfmt.constprop.1+0x76>
    800002ae:	078a                	slli	a5,a5,0x2
    800002b0:	97f2                	add	a5,a5,t3
    800002b2:	439c                	lw	a5,0(a5)
    800002b4:	97f2                	add	a5,a5,t3
    800002b6:	8782                	jr	a5
}
    800002b8:	6151                	addi	sp,sp,272
    800002ba:	8082                	ret
      padc = '0';
    800002bc:	82c2                	mv	t0,a6
      goto reswitch;
    800002be:	0016c803          	lbu	a6,1(a3)
    switch (ch = *(unsigned char *) fmt++) {
    800002c2:	86ae                	mv	a3,a1
    800002c4:	00168593          	addi	a1,a3,1
    800002c8:	fdd8079b          	addiw	a5,a6,-35
    800002cc:	0ff7f793          	zext.b	a5,a5
    800002d0:	fcfeffe3          	bgeu	t4,a5,800002ae <vprintfmt.constprop.1+0x50>
    **pstr = ch;
    800002d4:	611c                	ld	a5,0(a0)
    800002d6:	02500713          	li	a4,37
      fmt = last_fmt;
    800002da:	85c6                	mv	a1,a7
    **pstr = ch;
    800002dc:	00e78023          	sb	a4,0(a5)
    (*pstr)++;
    800002e0:	611c                	ld	a5,0(a0)
    800002e2:	0785                	addi	a5,a5,1
    800002e4:	e11c                	sd	a5,0(a0)
  }
    800002e6:	bf61                	j	8000027e <vprintfmt.constprop.1+0x20>
    800002e8:	e622                	sd	s0,264(sp)
        precision = precision * 10 + ch - '0';
    800002ea:	fd08071b          	addiw	a4,a6,-48
        ch = *fmt;
    800002ee:	0016c803          	lbu	a6,1(a3)
        if (ch < '0' || ch > '9')
    800002f2:	4425                	li	s0,9
    switch (ch = *(unsigned char *) fmt++) {
    800002f4:	86ae                	mv	a3,a1
        if (ch < '0' || ch > '9')
    800002f6:	fd08079b          	addiw	a5,a6,-48
        ch = *fmt;
    800002fa:	0008039b          	sext.w	t2,a6
        if (ch < '0' || ch > '9')
    800002fe:	02f46463          	bltu	s0,a5,80000326 <vprintfmt.constprop.1+0xc8>
        precision = precision * 10 + ch - '0';
    80000302:	0027179b          	slliw	a5,a4,0x2
        ch = *fmt;
    80000306:	0016c803          	lbu	a6,1(a3)
        precision = precision * 10 + ch - '0';
    8000030a:	9fb9                	addw	a5,a5,a4
    8000030c:	0017979b          	slliw	a5,a5,0x1
    80000310:	007787bb          	addw	a5,a5,t2
        if (ch < '0' || ch > '9')
    80000314:	fd08059b          	addiw	a1,a6,-48
      for (precision = 0; ; ++fmt) {
    80000318:	0685                	addi	a3,a3,1
        precision = precision * 10 + ch - '0';
    8000031a:	fd07871b          	addiw	a4,a5,-48
        ch = *fmt;
    8000031e:	0008039b          	sext.w	t2,a6
        if (ch < '0' || ch > '9')
    80000322:	feb470e3          	bgeu	s0,a1,80000302 <vprintfmt.constprop.1+0xa4>
    switch (ch = *(unsigned char *) fmt++) {
    80000326:	6432                	ld	s0,264(sp)
      if (width < 0)
    80000328:	f60fdbe3          	bgez	t6,8000029e <vprintfmt.constprop.1+0x40>
        width = precision, precision = -1;
    8000032c:	8fba                	mv	t6,a4
    8000032e:	577d                	li	a4,-1
    80000330:	b7bd                	j	8000029e <vprintfmt.constprop.1+0x40>
        ch = *fmt;
    80000332:	0016c803          	lbu	a6,1(a3)
    switch (ch = *(unsigned char *) fmt++) {
    80000336:	86ae                	mv	a3,a1
      goto reswitch;
    80000338:	b79d                	j	8000029e <vprintfmt.constprop.1+0x40>
    **pstr = ch;
    8000033a:	611c                	ld	a5,0(a0)
    8000033c:	02500713          	li	a4,37
    80000340:	00e78023          	sb	a4,0(a5)
    (*pstr)++;
    80000344:	611c                	ld	a5,0(a0)
    80000346:	0785                	addi	a5,a5,1
    80000348:	e11c                	sd	a5,0(a0)
  }
    8000034a:	bf15                	j	8000027e <vprintfmt.constprop.1+0x20>
        ch = *fmt;
    8000034c:	0016c803          	lbu	a6,1(a3)
      precision = va_arg(ap, int);
    80000350:	4218                	lw	a4,0(a2)
    switch (ch = *(unsigned char *) fmt++) {
    80000352:	86ae                	mv	a3,a1
      precision = va_arg(ap, int);
    80000354:	0621                	addi	a2,a2,8
      goto process_precision;
    80000356:	bfc9                	j	80000328 <vprintfmt.constprop.1+0xca>
    **pstr = ch;
    80000358:	611c                	ld	a5,0(a0)
    8000035a:	03000693          	li	a3,48
    8000035e:	07800713          	li	a4,120
    80000362:	00d78023          	sb	a3,0(a5)
    (*pstr)++;
    80000366:	611c                	ld	a5,0(a0)
    80000368:	4841                	li	a6,16
    8000036a:	00860693          	addi	a3,a2,8
    8000036e:	00178893          	addi	a7,a5,1
    80000372:	01153023          	sd	a7,0(a0)
    **pstr = ch;
    80000376:	00e780a3          	sb	a4,1(a5)
    (*pstr)++;
    8000037a:	611c                	ld	a5,0(a0)
    8000037c:	0785                	addi	a5,a5,1
    8000037e:	e11c                	sd	a5,0(a0)
    return va_arg(*ap, unsigned long);
    80000380:	6218                	ld	a4,0(a2)
    80000382:	8636                	mv	a2,a3
    digs[pos++] = num % base;
    80000384:	03077f33          	remu	t5,a4,a6
    80000388:	00410893          	addi	a7,sp,4
    8000038c:	4685                	li	a3,1
    8000038e:	c07a                	sw	t5,0(sp)
    if (num < base)
    80000390:	1b076c63          	bltu	a4,a6,80000548 <vprintfmt.constprop.1+0x2ea>
    num /= base;
    80000394:	03075733          	divu	a4,a4,a6
    digs[pos++] = num % base;
    80000398:	83b6                	mv	t2,a3
    if (num < base)
    8000039a:	0891                	addi	a7,a7,4
    digs[pos++] = num % base;
    8000039c:	2685                	addiw	a3,a3,1
    8000039e:	03077f33          	remu	t5,a4,a6
    800003a2:	ffe8ae23          	sw	t5,-4(a7)
    if (num < base)
    800003a6:	ff0777e3          	bgeu	a4,a6,80000394 <vprintfmt.constprop.1+0x136>
  while (width-- > pos)
    800003aa:	ffff871b          	addiw	a4,t6,-1
    800003ae:	fff6881b          	addiw	a6,a3,-1
    800003b2:	01f6da63          	bge	a3,t6,800003c6 <vprintfmt.constprop.1+0x168>
    **pstr = ch;
    800003b6:	00578023          	sb	t0,0(a5)
    (*pstr)++;
    800003ba:	611c                	ld	a5,0(a0)
  while (width-- > pos)
    800003bc:	377d                	addiw	a4,a4,-1
    (*pstr)++;
    800003be:	0785                	addi	a5,a5,1
    800003c0:	e11c                	sd	a5,0(a0)
  while (width-- > pos)
    800003c2:	fee81ae3          	bne	a6,a4,800003b6 <vprintfmt.constprop.1+0x158>
  while (pos-- > 0)
    800003c6:	038a                	slli	t2,t2,0x2
    800003c8:	007106b3          	add	a3,sp,t2
    800003cc:	ffc10893          	addi	a7,sp,-4
    putch(digs[pos] + (digs[pos] >= 10 ? 'a' - 10 : '0'), putdat);
    800003d0:	4825                	li	a6,9
    800003d2:	a819                	j	800003e8 <vprintfmt.constprop.1+0x18a>
    800003d4:	0577071b          	addiw	a4,a4,87
    **pstr = ch;
    800003d8:	00e78023          	sb	a4,0(a5)
    (*pstr)++;
    800003dc:	611c                	ld	a5,0(a0)
  while (pos-- > 0)
    800003de:	16f1                	addi	a3,a3,-4
    (*pstr)++;
    800003e0:	0785                	addi	a5,a5,1
    800003e2:	e11c                	sd	a5,0(a0)
  while (pos-- > 0)
    800003e4:	e8d88de3          	beq	a7,a3,8000027e <vprintfmt.constprop.1+0x20>
    putch(digs[pos] + (digs[pos] >= 10 ? 'a' - 10 : '0'), putdat);
    800003e8:	4298                	lw	a4,0(a3)
    800003ea:	fee865e3          	bltu	a6,a4,800003d4 <vprintfmt.constprop.1+0x176>
    800003ee:	0307071b          	addiw	a4,a4,48
    800003f2:	b7dd                	j	800003d8 <vprintfmt.constprop.1+0x17a>
  if (lflag >= 2)
    800003f4:	4785                	li	a5,1
      precision = va_arg(ap, int);
    800003f6:	00860693          	addi	a3,a2,8
  if (lflag >= 2)
    800003fa:	01e7c463          	blt	a5,t5,80000402 <vprintfmt.constprop.1+0x1a4>
  else if (lflag)
    800003fe:	140f0763          	beqz	t5,8000054c <vprintfmt.constprop.1+0x2ee>
    return va_arg(*ap, long);
    80000402:	6218                	ld	a4,0(a2)
    **pstr = ch;
    80000404:	611c                	ld	a5,0(a0)
      if ((long long) num < 0) {
    80000406:	14074963          	bltz	a4,80000558 <vprintfmt.constprop.1+0x2fa>
      num = getint(&ap, lflag);
    8000040a:	8636                	mv	a2,a3
    8000040c:	4829                	li	a6,10
    8000040e:	bf9d                	j	80000384 <vprintfmt.constprop.1+0x126>
        ch = *fmt;
    80000410:	0016c803          	lbu	a6,1(a3)
      lflag++;
    80000414:	2f05                	addiw	t5,t5,1
    switch (ch = *(unsigned char *) fmt++) {
    80000416:	86ae                	mv	a3,a1
      goto reswitch;
    80000418:	b559                	j	8000029e <vprintfmt.constprop.1+0x40>
    switch (ch = *(unsigned char *) fmt++) {
    8000041a:	4841                	li	a6,16
  if (lflag >= 2)
    8000041c:	4705                	li	a4,1
    **pstr = ch;
    8000041e:	611c                	ld	a5,0(a0)
      precision = va_arg(ap, int);
    80000420:	00860693          	addi	a3,a2,8
  if (lflag >= 2)
    80000424:	f5e74ee3          	blt	a4,t5,80000380 <vprintfmt.constprop.1+0x122>
  else if (lflag)
    80000428:	f40f1ce3          	bnez	t5,80000380 <vprintfmt.constprop.1+0x122>
    return va_arg(*ap, unsigned int);
    8000042c:	00066703          	lwu	a4,0(a2)
    80000430:	8636                	mv	a2,a3
    80000432:	bf89                	j	80000384 <vprintfmt.constprop.1+0x126>
      if ((p = va_arg(ap, char *)) == NULL)
    80000434:	6214                	ld	a3,0(a2)
    80000436:	ca99                	beqz	a3,8000044c <vprintfmt.constprop.1+0x1ee>
      if (width > 0 && padc != '-')
    80000438:	07f05663          	blez	t6,800004a4 <vprintfmt.constprop.1+0x246>
    8000043c:	02d00793          	li	a5,45
    80000440:	02f29863          	bne	t0,a5,80000470 <vprintfmt.constprop.1+0x212>
      for (; (ch = *p) != '\0' && (precision < 0 || --precision >= 0); width--) {
    80000444:	0006c783          	lbu	a5,0(a3)
    80000448:	e3ad                	bnez	a5,800004aa <vprintfmt.constprop.1+0x24c>
    8000044a:	a879                	j	800004e8 <vprintfmt.constprop.1+0x28a>
        p = "(null)";
    8000044c:	00002697          	auipc	a3,0x2
    80000450:	c1c68693          	addi	a3,a3,-996 # 80002068 <fromhost+0x28>
      for (; (ch = *p) != '\0' && (precision < 0 || --precision >= 0); width--) {
    80000454:	02800793          	li	a5,40
      if (width > 0 && padc != '-')
    80000458:	05f05963          	blez	t6,800004aa <vprintfmt.constprop.1+0x24c>
    8000045c:	02d00813          	li	a6,45
        p = "(null)";
    80000460:	00002697          	auipc	a3,0x2
    80000464:	c0868693          	addi	a3,a3,-1016 # 80002068 <fromhost+0x28>
      for (; (ch = *p) != '\0' && (precision < 0 || --precision >= 0); width--) {
    80000468:	02800793          	li	a5,40
      if (width > 0 && padc != '-')
    8000046c:	03028f63          	beq	t0,a6,800004aa <vprintfmt.constprop.1+0x24c>
  return p - s;
}

size_t strnlen(const char *s, size_t n)
{
  const char *p = s;
    80000470:	87b6                	mv	a5,a3
  while (n-- && *p)
    80000472:	00e688b3          	add	a7,a3,a4
    80000476:	e709                	bnez	a4,80000480 <vprintfmt.constprop.1+0x222>
    80000478:	a829                	j	80000492 <vprintfmt.constprop.1+0x234>
    p++;
    8000047a:	0785                	addi	a5,a5,1
  while (n-- && *p)
    8000047c:	01178663          	beq	a5,a7,80000488 <vprintfmt.constprop.1+0x22a>
    80000480:	0007c803          	lbu	a6,0(a5)
    80000484:	fe081be3          	bnez	a6,8000047a <vprintfmt.constprop.1+0x21c>
  return p - s;
    80000488:	8f95                	sub	a5,a5,a3
        for (width -= strnlen(p, precision); width > 0; width--)
    8000048a:	40ff8fbb          	subw	t6,t6,a5
    8000048e:	01f05b63          	blez	t6,800004a4 <vprintfmt.constprop.1+0x246>
    **pstr = ch;
    80000492:	611c                	ld	a5,0(a0)
    80000494:	00578023          	sb	t0,0(a5)
    (*pstr)++;
    80000498:	611c                	ld	a5,0(a0)
        for (width -= strnlen(p, precision); width > 0; width--)
    8000049a:	3ffd                	addiw	t6,t6,-1
    (*pstr)++;
    8000049c:	0785                	addi	a5,a5,1
    8000049e:	e11c                	sd	a5,0(a0)
        for (width -= strnlen(p, precision); width > 0; width--)
    800004a0:	fe0f9ae3          	bnez	t6,80000494 <vprintfmt.constprop.1+0x236>
      for (; (ch = *p) != '\0' && (precision < 0 || --precision >= 0); width--) {
    800004a4:	0006c783          	lbu	a5,0(a3)
    800004a8:	cbb9                	beqz	a5,800004fe <vprintfmt.constprop.1+0x2a0>
    800004aa:	58fd                	li	a7,-1
    800004ac:	04075b63          	bgez	a4,80000502 <vprintfmt.constprop.1+0x2a4>
    **pstr = ch;
    800004b0:	6118                	ld	a4,0(a0)
        p++;
    800004b2:	00168813          	addi	a6,a3,1
      for (; (ch = *p) != '\0' && (precision < 0 || --precision >= 0); width--) {
    800004b6:	3ffd                	addiw	t6,t6,-1
    **pstr = ch;
    800004b8:	00f70023          	sb	a5,0(a4)
    (*pstr)++;
    800004bc:	611c                	ld	a5,0(a0)
    800004be:	8742                	mv	a4,a6
    800004c0:	0785                	addi	a5,a5,1
    800004c2:	e11c                	sd	a5,0(a0)
      for (; (ch = *p) != '\0' && (precision < 0 || --precision >= 0); width--) {
    800004c4:	0016c683          	lbu	a3,1(a3)
    800004c8:	ce91                	beqz	a3,800004e4 <vprintfmt.constprop.1+0x286>
    **pstr = ch;
    800004ca:	00d78023          	sb	a3,0(a5)
    (*pstr)++;
    800004ce:	611c                	ld	a5,0(a0)
        p++;
    800004d0:	0705                	addi	a4,a4,1
    (*pstr)++;
    800004d2:	0785                	addi	a5,a5,1
    800004d4:	e11c                	sd	a5,0(a0)
      for (; (ch = *p) != '\0' && (precision < 0 || --precision >= 0); width--) {
    800004d6:	00074683          	lbu	a3,0(a4)
    800004da:	fae5                	bnez	a3,800004ca <vprintfmt.constprop.1+0x26c>
    800004dc:	40e8083b          	subw	a6,a6,a4
    800004e0:	01f80fbb          	addw	t6,a6,t6
      for (; width > 0; width--)
    800004e4:	01f05d63          	blez	t6,800004fe <vprintfmt.constprop.1+0x2a0>
    **pstr = ch;
    800004e8:	611c                	ld	a5,0(a0)
    800004ea:	02000713          	li	a4,32
    800004ee:	00e78023          	sb	a4,0(a5)
    (*pstr)++;
    800004f2:	611c                	ld	a5,0(a0)
      for (; width > 0; width--)
    800004f4:	3ffd                	addiw	t6,t6,-1
    (*pstr)++;
    800004f6:	0785                	addi	a5,a5,1
    800004f8:	e11c                	sd	a5,0(a0)
      for (; width > 0; width--)
    800004fa:	fe0f9ae3          	bnez	t6,800004ee <vprintfmt.constprop.1+0x290>
      if ((p = va_arg(ap, char *)) == NULL)
    800004fe:	0621                	addi	a2,a2,8
    while ((ch = *(unsigned char *) fmt) != '%') {
    80000500:	bbbd                	j	8000027e <vprintfmt.constprop.1+0x20>
      for (; (ch = *p) != '\0' && (precision < 0 || --precision >= 0); width--) {
    80000502:	377d                	addiw	a4,a4,-1
    80000504:	ff1700e3          	beq	a4,a7,800004e4 <vprintfmt.constprop.1+0x286>
    **pstr = ch;
    80000508:	00053803          	ld	a6,0(a0)
        p++;
    8000050c:	0685                	addi	a3,a3,1
      for (; (ch = *p) != '\0' && (precision < 0 || --precision >= 0); width--) {
    8000050e:	3ffd                	addiw	t6,t6,-1
    **pstr = ch;
    80000510:	00f80023          	sb	a5,0(a6)
    (*pstr)++;
    80000514:	611c                	ld	a5,0(a0)
    80000516:	0785                	addi	a5,a5,1
    80000518:	e11c                	sd	a5,0(a0)
      for (; (ch = *p) != '\0' && (precision < 0 || --precision >= 0); width--) {
    8000051a:	0006c783          	lbu	a5,0(a3)
    8000051e:	f3f5                	bnez	a5,80000502 <vprintfmt.constprop.1+0x2a4>
    80000520:	b7d1                	j	800004e4 <vprintfmt.constprop.1+0x286>
      if (width < 0)
    80000522:	87fe                	mv	a5,t6
    80000524:	000fd363          	bgez	t6,8000052a <vprintfmt.constprop.1+0x2cc>
    80000528:	4781                	li	a5,0
        ch = *fmt;
    8000052a:	0016c803          	lbu	a6,1(a3)
      if (width < 0)
    8000052e:	00078f9b          	sext.w	t6,a5
    switch (ch = *(unsigned char *) fmt++) {
    80000532:	86ae                	mv	a3,a1
      goto reswitch;
    80000534:	b3ad                	j	8000029e <vprintfmt.constprop.1+0x40>
    **pstr = ch;
    80000536:	611c                	ld	a5,0(a0)
    80000538:	4218                	lw	a4,0(a2)
      putch(va_arg(ap, int), putdat);
    8000053a:	0621                	addi	a2,a2,8
    **pstr = ch;
    8000053c:	00e78023          	sb	a4,0(a5)
    (*pstr)++;
    80000540:	611c                	ld	a5,0(a0)
    80000542:	0785                	addi	a5,a5,1
    80000544:	e11c                	sd	a5,0(a0)
  }
    80000546:	bb25                	j	8000027e <vprintfmt.constprop.1+0x20>
    if (num < base)
    80000548:	4381                	li	t2,0
    8000054a:	b585                	j	800003aa <vprintfmt.constprop.1+0x14c>
    return va_arg(*ap, int);
    8000054c:	4218                	lw	a4,0(a2)
    8000054e:	bd5d                	j	80000404 <vprintfmt.constprop.1+0x1a6>
    switch (ch = *(unsigned char *) fmt++) {
    80000550:	4829                	li	a6,10
    80000552:	b5e9                	j	8000041c <vprintfmt.constprop.1+0x1be>
    80000554:	4821                	li	a6,8
    80000556:	b5d9                	j	8000041c <vprintfmt.constprop.1+0x1be>
    **pstr = ch;
    80000558:	02d00613          	li	a2,45
    8000055c:	00c78023          	sb	a2,0(a5)
    (*pstr)++;
    80000560:	611c                	ld	a5,0(a0)
        num = -(long long) num;
    80000562:	40e00733          	neg	a4,a4
    80000566:	8636                	mv	a2,a3
    (*pstr)++;
    80000568:	0785                	addi	a5,a5,1
    8000056a:	e11c                	sd	a5,0(a0)
        num = -(long long) num;
    8000056c:	4829                	li	a6,10
    8000056e:	bd19                	j	80000384 <vprintfmt.constprop.1+0x126>

0000000080000570 <vprintfmt.constprop.0>:
	while (!(*UART_LSR & (1<<5))); // wait for THRE (trans hold reg empty)
    80000570:	10000737          	lui	a4,0x10000
    80000574:	0715                	addi	a4,a4,5 # 10000005 <_start-0x6ffffffb>
    while ((ch = *(unsigned char *) fmt) != '%') {
    80000576:	02500813          	li	a6,37
	while (!(*UART_LSR & (1<<5))); // wait for THRE (trans hold reg empty)
    8000057a:	100008b7          	lui	a7,0x10000
    switch (ch = *(unsigned char *) fmt++) {
    8000057e:	05500e13          	li	t3,85
    80000582:	a1818313          	addi	t1,gp,-1512 # 80002260 <fromhost+0x220>
    while ((ch = *(unsigned char *) fmt) != '%') {
    80000586:	00054683          	lbu	a3,0(a0)
    8000058a:	0006879b          	sext.w	a5,a3
    8000058e:	03068163          	beq	a3,a6,800005b0 <vprintfmt.constprop.0+0x40>
      if (ch == '\0')
    80000592:	cbf1                	beqz	a5,80000666 <vprintfmt.constprop.0+0xf6>
      fmt++;
    80000594:	0505                	addi	a0,a0,1
	while (!(*UART_LSR & (1<<5))); // wait for THRE (trans hold reg empty)
    80000596:	00074783          	lbu	a5,0(a4)
    8000059a:	0207f793          	andi	a5,a5,32
    8000059e:	dfe5                	beqz	a5,80000596 <vprintfmt.constprop.0+0x26>
	*UART_THR = c;
    800005a0:	00d88023          	sb	a3,0(a7) # 10000000 <_start-0x70000000>
    while ((ch = *(unsigned char *) fmt) != '%') {
    800005a4:	00054683          	lbu	a3,0(a0)
    800005a8:	0006879b          	sext.w	a5,a3
    800005ac:	ff0693e3          	bne	a3,a6,80000592 <vprintfmt.constprop.0+0x22>
    switch (ch = *(unsigned char *) fmt++) {
    800005b0:	00154e83          	lbu	t4,1(a0)
    fmt++;
    800005b4:	00150f13          	addi	t5,a0,1
    precision = -1;
    800005b8:	56fd                	li	a3,-1
    switch (ch = *(unsigned char *) fmt++) {
    800005ba:	fdde879b          	addiw	a5,t4,-35
    800005be:	0ff7f793          	zext.b	a5,a5
    fmt++;
    800005c2:	867a                	mv	a2,t5
    width = -1;
    800005c4:	8fb6                	mv	t6,a3
    padc = ' ';
    800005c6:	02000293          	li	t0,32
    lflag = 0;
    800005ca:	4381                	li	t2,0
    switch (ch = *(unsigned char *) fmt++) {
    800005cc:	001f0513          	addi	a0,t5,1
    800005d0:	08fe6063          	bltu	t3,a5,80000650 <vprintfmt.constprop.0+0xe0>
static void vprintfmt(void (*putch)(int, void**), void **putdat, const char *fmt, va_list ap)
    800005d4:	716d                	addi	sp,sp,-272
    800005d6:	e622                	sd	s0,264(sp)
    switch (ch = *(unsigned char *) fmt++) {
    800005d8:	078a                	slli	a5,a5,0x2
    800005da:	979a                	add	a5,a5,t1
    800005dc:	439c                	lw	a5,0(a5)
    800005de:	979a                	add	a5,a5,t1
    800005e0:	8782                	jr	a5
      padc = '0';
    800005e2:	82f6                	mv	t0,t4
      goto reswitch;
    800005e4:	00164e83          	lbu	t4,1(a2)
    switch (ch = *(unsigned char *) fmt++) {
    800005e8:	862a                	mv	a2,a0
    800005ea:	fdde879b          	addiw	a5,t4,-35
    800005ee:	0ff7f793          	zext.b	a5,a5
    800005f2:	00160513          	addi	a0,a2,1
    800005f6:	fefe71e3          	bgeu	t3,a5,800005d8 <vprintfmt.constprop.0+0x68>
	while (!(*UART_LSR & (1<<5))); // wait for THRE (trans hold reg empty)
    800005fa:	00074783          	lbu	a5,0(a4)
    800005fe:	0207f793          	andi	a5,a5,32
    80000602:	dfe5                	beqz	a5,800005fa <vprintfmt.constprop.0+0x8a>
	*UART_THR = c;
    80000604:	02500793          	li	a5,37
      fmt = last_fmt;
    80000608:	857a                	mv	a0,t5
	*UART_THR = c;
    8000060a:	00f88023          	sb	a5,0(a7)
    while ((ch = *(unsigned char *) fmt) != '%') {
    8000060e:	00054683          	lbu	a3,0(a0)
    80000612:	0006879b          	sext.w	a5,a3
    80000616:	03068263          	beq	a3,a6,8000063a <vprintfmt.constprop.0+0xca>
      if (ch == '\0')
    8000061a:	28078d63          	beqz	a5,800008b4 <vprintfmt.constprop.0+0x344>
      fmt++;
    8000061e:	0505                	addi	a0,a0,1
	while (!(*UART_LSR & (1<<5))); // wait for THRE (trans hold reg empty)
    80000620:	00074783          	lbu	a5,0(a4)
    80000624:	0207f793          	andi	a5,a5,32
    80000628:	dfe5                	beqz	a5,80000620 <vprintfmt.constprop.0+0xb0>
	*UART_THR = c;
    8000062a:	00d88023          	sb	a3,0(a7)
    while ((ch = *(unsigned char *) fmt) != '%') {
    8000062e:	00054683          	lbu	a3,0(a0)
    80000632:	0006879b          	sext.w	a5,a3
    80000636:	ff0692e3          	bne	a3,a6,8000061a <vprintfmt.constprop.0+0xaa>
    fmt++;
    8000063a:	00150f13          	addi	t5,a0,1
    precision = -1;
    8000063e:	56fd                	li	a3,-1
    switch (ch = *(unsigned char *) fmt++) {
    80000640:	00154e83          	lbu	t4,1(a0)
    fmt++;
    80000644:	867a                	mv	a2,t5
    width = -1;
    80000646:	8fb6                	mv	t6,a3
    padc = ' ';
    80000648:	02000293          	li	t0,32
    lflag = 0;
    8000064c:	4381                	li	t2,0
    8000064e:	bf71                	j	800005ea <vprintfmt.constprop.0+0x7a>
	while (!(*UART_LSR & (1<<5))); // wait for THRE (trans hold reg empty)
    80000650:	00074783          	lbu	a5,0(a4)
    80000654:	0207f793          	andi	a5,a5,32
    80000658:	dfe5                	beqz	a5,80000650 <vprintfmt.constprop.0+0xe0>
	*UART_THR = c;
    8000065a:	02500793          	li	a5,37
      fmt = last_fmt;
    8000065e:	857a                	mv	a0,t5
	*UART_THR = c;
    80000660:	00f88023          	sb	a5,0(a7)
      break;
    80000664:	b70d                	j	80000586 <vprintfmt.constprop.0+0x16>
    80000666:	8082                	ret
    80000668:	e226                	sd	s1,256(sp)
        precision = precision * 10 + ch - '0';
    8000066a:	fd0e869b          	addiw	a3,t4,-48
        ch = *fmt;
    8000066e:	00164e83          	lbu	t4,1(a2)
        if (ch < '0' || ch > '9')
    80000672:	44a5                	li	s1,9
    switch (ch = *(unsigned char *) fmt++) {
    80000674:	862a                	mv	a2,a0
        if (ch < '0' || ch > '9')
    80000676:	fd0e879b          	addiw	a5,t4,-48
        ch = *fmt;
    8000067a:	000e841b          	sext.w	s0,t4
        if (ch < '0' || ch > '9')
    8000067e:	02f4e363          	bltu	s1,a5,800006a4 <vprintfmt.constprop.0+0x134>
        precision = precision * 10 + ch - '0';
    80000682:	0026979b          	slliw	a5,a3,0x2
        ch = *fmt;
    80000686:	00164e83          	lbu	t4,1(a2)
        precision = precision * 10 + ch - '0';
    8000068a:	9fb5                	addw	a5,a5,a3
    8000068c:	0017979b          	slliw	a5,a5,0x1
    80000690:	9fa1                	addw	a5,a5,s0
        if (ch < '0' || ch > '9')
    80000692:	fd0e851b          	addiw	a0,t4,-48
      for (precision = 0; ; ++fmt) {
    80000696:	0605                	addi	a2,a2,1
        precision = precision * 10 + ch - '0';
    80000698:	fd07869b          	addiw	a3,a5,-48
        ch = *fmt;
    8000069c:	000e841b          	sext.w	s0,t4
        if (ch < '0' || ch > '9')
    800006a0:	fea4f1e3          	bgeu	s1,a0,80000682 <vprintfmt.constprop.0+0x112>
    switch (ch = *(unsigned char *) fmt++) {
    800006a4:	6492                	ld	s1,256(sp)
      if (width < 0)
    800006a6:	f40fd2e3          	bgez	t6,800005ea <vprintfmt.constprop.0+0x7a>
        width = precision, precision = -1;
    800006aa:	8fb6                	mv	t6,a3
    800006ac:	56fd                	li	a3,-1
    800006ae:	bf35                	j	800005ea <vprintfmt.constprop.0+0x7a>
        ch = *fmt;
    800006b0:	00164e83          	lbu	t4,1(a2)
    switch (ch = *(unsigned char *) fmt++) {
    800006b4:	862a                	mv	a2,a0
      goto reswitch;
    800006b6:	bf15                	j	800005ea <vprintfmt.constprop.0+0x7a>
        ch = *fmt;
    800006b8:	00164e83          	lbu	t4,1(a2)
      precision = va_arg(ap, int);
    800006bc:	4194                	lw	a3,0(a1)
    switch (ch = *(unsigned char *) fmt++) {
    800006be:	862a                	mv	a2,a0
      precision = va_arg(ap, int);
    800006c0:	05a1                	addi	a1,a1,8
      goto process_precision;
    800006c2:	b7d5                	j	800006a6 <vprintfmt.constprop.0+0x136>
      if (width < 0)
    800006c4:	87fe                	mv	a5,t6
    800006c6:	000fd363          	bgez	t6,800006cc <vprintfmt.constprop.0+0x15c>
    800006ca:	4781                	li	a5,0
        ch = *fmt;
    800006cc:	00164e83          	lbu	t4,1(a2)
      if (width < 0)
    800006d0:	00078f9b          	sext.w	t6,a5
    switch (ch = *(unsigned char *) fmt++) {
    800006d4:	862a                	mv	a2,a0
      goto reswitch;
    800006d6:	bf11                	j	800005ea <vprintfmt.constprop.0+0x7a>
    switch (ch = *(unsigned char *) fmt++) {
    800006d8:	46c1                	li	a3,16
  if (lflag >= 2)
    800006da:	4785                	li	a5,1
      precision = va_arg(ap, int);
    800006dc:	00858613          	addi	a2,a1,8
  if (lflag >= 2)
    800006e0:	2077cc63          	blt	a5,t2,800008f8 <vprintfmt.constprop.0+0x388>
  else if (lflag)
    800006e4:	20039a63          	bnez	t2,800008f8 <vprintfmt.constprop.0+0x388>
    return va_arg(*ap, unsigned int);
    800006e8:	0005e783          	lwu	a5,0(a1)
    800006ec:	85b2                	mv	a1,a2
    digs[pos++] = num % base;
    800006ee:	02d7ff33          	remu	t5,a5,a3
    800006f2:	00410e93          	addi	t4,sp,4
    800006f6:	4605                	li	a2,1
    800006f8:	c07a                	sw	t5,0(sp)
    if (num < base)
    800006fa:	24d7ed63          	bltu	a5,a3,80000954 <vprintfmt.constprop.0+0x3e4>
    num /= base;
    800006fe:	02d7d7b3          	divu	a5,a5,a3
    digs[pos++] = num % base;
    80000702:	83b2                	mv	t2,a2
    if (num < base)
    80000704:	0e91                	addi	t4,t4,4
    digs[pos++] = num % base;
    80000706:	2605                	addiw	a2,a2,1
    80000708:	02d7ff33          	remu	t5,a5,a3
    8000070c:	ffeeae23          	sw	t5,-4(t4)
    if (num < base)
    80000710:	fed7f7e3          	bgeu	a5,a3,800006fe <vprintfmt.constprop.0+0x18e>
	while (!(*UART_LSR & (1<<5))); // wait for THRE (trans hold reg empty)
    80000714:	100006b7          	lui	a3,0x10000
    80000718:	0695                	addi	a3,a3,5 # 10000005 <_start-0x6ffffffb>
  while (width-- > pos)
    8000071a:	ffff8e9b          	addiw	t4,t6,-1
    8000071e:	fff6041b          	addiw	s0,a2,-1
	while (!(*UART_LSR & (1<<5))); // wait for THRE (trans hold reg empty)
    80000722:	10000f37          	lui	t5,0x10000
  while (width-- > pos)
    80000726:	01f65c63          	bge	a2,t6,8000073e <vprintfmt.constprop.0+0x1ce>
	while (!(*UART_LSR & (1<<5))); // wait for THRE (trans hold reg empty)
    8000072a:	0006c783          	lbu	a5,0(a3)
    8000072e:	0207f793          	andi	a5,a5,32
    80000732:	dfe5                	beqz	a5,8000072a <vprintfmt.constprop.0+0x1ba>
	*UART_THR = c;
    80000734:	005f0023          	sb	t0,0(t5) # 10000000 <_start-0x70000000>
  while (width-- > pos)
    80000738:	3efd                	addiw	t4,t4,-1
    8000073a:	fe8e98e3          	bne	t4,s0,8000072a <vprintfmt.constprop.0+0x1ba>
  while (pos-- > 0)
    8000073e:	038a                	slli	t2,t2,0x2
	while (!(*UART_LSR & (1<<5))); // wait for THRE (trans hold reg empty)
    80000740:	100006b7          	lui	a3,0x10000
    80000744:	00710eb3          	add	t4,sp,t2
    80000748:	0695                	addi	a3,a3,5 # 10000005 <_start-0x6ffffffb>
    8000074a:	ffc10293          	addi	t0,sp,-4
    putch(digs[pos] + (digs[pos] >= 10 ? 'a' - 10 : '0'), putdat);
    8000074e:	4fa5                	li	t6,9
	while (!(*UART_LSR & (1<<5))); // wait for THRE (trans hold reg empty)
    80000750:	10000f37          	lui	t5,0x10000
    putch(digs[pos] + (digs[pos] >= 10 ? 'a' - 10 : '0'), putdat);
    80000754:	000ea783          	lw	a5,0(t4)
    80000758:	03000613          	li	a2,48
    8000075c:	00fff463          	bgeu	t6,a5,80000764 <vprintfmt.constprop.0+0x1f4>
    80000760:	05700613          	li	a2,87
    80000764:	9fb1                	addw	a5,a5,a2
  uartSend(ch);
    80000766:	0ff7f613          	zext.b	a2,a5
	while (!(*UART_LSR & (1<<5))); // wait for THRE (trans hold reg empty)
    8000076a:	0006c783          	lbu	a5,0(a3)
    8000076e:	0207f793          	andi	a5,a5,32
    80000772:	dfe5                	beqz	a5,8000076a <vprintfmt.constprop.0+0x1fa>
	*UART_THR = c;
    80000774:	00cf0023          	sb	a2,0(t5) # 10000000 <_start-0x70000000>
  while (pos-- > 0)
    80000778:	1ef1                	addi	t4,t4,-4
    8000077a:	fdd29de3          	bne	t0,t4,80000754 <vprintfmt.constprop.0+0x1e4>
    8000077e:	bd41                	j	8000060e <vprintfmt.constprop.0+0x9e>
      if ((p = va_arg(ap, char *)) == NULL)
    80000780:	0005bf03          	ld	t5,0(a1)
    80000784:	000f0d63          	beqz	t5,8000079e <vprintfmt.constprop.0+0x22e>
      if (width > 0 && padc != '-')
    80000788:	07f05e63          	blez	t6,80000804 <vprintfmt.constprop.0+0x294>
    8000078c:	02d00793          	li	a5,45
    80000790:	02f29963          	bne	t0,a5,800007c2 <vprintfmt.constprop.0+0x252>
      for (; (ch = *p) != '\0' && (precision < 0 || --precision >= 0); width--) {
    80000794:	000f4e83          	lbu	t4,0(t5)
    80000798:	060e9a63          	bnez	t4,8000080c <vprintfmt.constprop.0+0x29c>
    8000079c:	aa49                	j	8000092e <vprintfmt.constprop.0+0x3be>
        p = "(null)";
    8000079e:	00002f17          	auipc	t5,0x2
    800007a2:	8caf0f13          	addi	t5,t5,-1846 # 80002068 <fromhost+0x28>
      for (; (ch = *p) != '\0' && (precision < 0 || --precision >= 0); width--) {
    800007a6:	02800e93          	li	t4,40
      if (width > 0 && padc != '-')
    800007aa:	07f05163          	blez	t6,8000080c <vprintfmt.constprop.0+0x29c>
    800007ae:	02d00793          	li	a5,45
        p = "(null)";
    800007b2:	00002f17          	auipc	t5,0x2
    800007b6:	8b6f0f13          	addi	t5,t5,-1866 # 80002068 <fromhost+0x28>
      for (; (ch = *p) != '\0' && (precision < 0 || --precision >= 0); width--) {
    800007ba:	02800e93          	li	t4,40
      if (width > 0 && padc != '-')
    800007be:	04f28763          	beq	t0,a5,8000080c <vprintfmt.constprop.0+0x29c>
  const char *p = s;
    800007c2:	87fa                	mv	a5,t5
  while (n-- && *p)
    800007c4:	00df0633          	add	a2,t5,a3
    800007c8:	e689                	bnez	a3,800007d2 <vprintfmt.constprop.0+0x262>
    800007ca:	a831                	j	800007e6 <vprintfmt.constprop.0+0x276>
    p++;
    800007cc:	0785                	addi	a5,a5,1
  while (n-- && *p)
    800007ce:	00c78663          	beq	a5,a2,800007da <vprintfmt.constprop.0+0x26a>
    800007d2:	0007ce83          	lbu	t4,0(a5)
    800007d6:	fe0e9be3          	bnez	t4,800007cc <vprintfmt.constprop.0+0x25c>
  return p - s;
    800007da:	41e787b3          	sub	a5,a5,t5
        for (width -= strnlen(p, precision); width > 0; width--)
    800007de:	40ff8fbb          	subw	t6,t6,a5
    800007e2:	03f05163          	blez	t6,80000804 <vprintfmt.constprop.0+0x294>
	while (!(*UART_LSR & (1<<5))); // wait for THRE (trans hold reg empty)
    800007e6:	10000637          	lui	a2,0x10000
    800007ea:	0615                	addi	a2,a2,5 # 10000005 <_start-0x6ffffffb>
    800007ec:	10000eb7          	lui	t4,0x10000
    800007f0:	00064783          	lbu	a5,0(a2)
    800007f4:	0207f793          	andi	a5,a5,32
    800007f8:	dfe5                	beqz	a5,800007f0 <vprintfmt.constprop.0+0x280>
	*UART_THR = c;
    800007fa:	005e8023          	sb	t0,0(t4) # 10000000 <_start-0x70000000>
        for (width -= strnlen(p, precision); width > 0; width--)
    800007fe:	3ffd                	addiw	t6,t6,-1
    80000800:	fe0f98e3          	bnez	t6,800007f0 <vprintfmt.constprop.0+0x280>
      for (; (ch = *p) != '\0' && (precision < 0 || --precision >= 0); width--) {
    80000804:	000f4e83          	lbu	t4,0(t5)
    80000808:	140e8463          	beqz	t4,80000950 <vprintfmt.constprop.0+0x3e0>
	while (!(*UART_LSR & (1<<5))); // wait for THRE (trans hold reg empty)
    8000080c:	10000637          	lui	a2,0x10000
    80000810:	0615                	addi	a2,a2,5 # 10000005 <_start-0x6ffffffb>
      for (; (ch = *p) != '\0' && (precision < 0 || --precision >= 0); width--) {
    80000812:	547d                	li	s0,-1
	while (!(*UART_LSR & (1<<5))); // wait for THRE (trans hold reg empty)
    80000814:	100003b7          	lui	t2,0x10000
      for (; (ch = *p) != '\0' && (precision < 0 || --precision >= 0); width--) {
    80000818:	0206c863          	bltz	a3,80000848 <vprintfmt.constprop.0+0x2d8>
    8000081c:	fff6829b          	addiw	t0,a3,-1
    80000820:	10828563          	beq	t0,s0,8000092a <vprintfmt.constprop.0+0x3ba>
	while (!(*UART_LSR & (1<<5))); // wait for THRE (trans hold reg empty)
    80000824:	00064783          	lbu	a5,0(a2)
    80000828:	0207f793          	andi	a5,a5,32
    8000082c:	dfe5                	beqz	a5,80000824 <vprintfmt.constprop.0+0x2b4>
	*UART_THR = c;
    8000082e:	01d38023          	sb	t4,0(t2) # 10000000 <_start-0x70000000>
      for (; (ch = *p) != '\0' && (precision < 0 || --precision >= 0); width--) {
    80000832:	001f4e83          	lbu	t4,1(t5)
        p++;
    80000836:	0f05                	addi	t5,t5,1
      for (; (ch = *p) != '\0' && (precision < 0 || --precision >= 0); width--) {
    80000838:	3ffd                	addiw	t6,t6,-1
    8000083a:	0e0e8863          	beqz	t4,8000092a <vprintfmt.constprop.0+0x3ba>
    8000083e:	0c06c063          	bltz	a3,800008fe <vprintfmt.constprop.0+0x38e>
    80000842:	8696                	mv	a3,t0
    80000844:	fc06dce3          	bgez	a3,8000081c <vprintfmt.constprop.0+0x2ac>
    80000848:	82b6                	mv	t0,a3
    8000084a:	bfe9                	j	80000824 <vprintfmt.constprop.0+0x2b4>
        ch = *fmt;
    8000084c:	00164e83          	lbu	t4,1(a2)
      lflag++;
    80000850:	2385                	addiw	t2,t2,1
    switch (ch = *(unsigned char *) fmt++) {
    80000852:	862a                	mv	a2,a0
      goto reswitch;
    80000854:	bb59                	j	800005ea <vprintfmt.constprop.0+0x7a>
  if (lflag >= 2)
    80000856:	4785                	li	a5,1
      precision = va_arg(ap, int);
    80000858:	00858e93          	addi	t4,a1,8
  if (lflag >= 2)
    8000085c:	0077c463          	blt	a5,t2,80000864 <vprintfmt.constprop.0+0x2f4>
  else if (lflag)
    80000860:	0e038c63          	beqz	t2,80000958 <vprintfmt.constprop.0+0x3e8>
    return va_arg(*ap, long);
    80000864:	619c                	ld	a5,0(a1)
      num = getint(&ap, lflag);
    80000866:	85f6                	mv	a1,t4
    80000868:	46a9                	li	a3,10
      if ((long long) num < 0) {
    8000086a:	e807d2e3          	bgez	a5,800006ee <vprintfmt.constprop.0+0x17e>
	while (!(*UART_LSR & (1<<5))); // wait for THRE (trans hold reg empty)
    8000086e:	10000637          	lui	a2,0x10000
    80000872:	0615                	addi	a2,a2,5 # 10000005 <_start-0x6ffffffb>
    80000874:	10000f37          	lui	t5,0x10000
    80000878:	00064683          	lbu	a3,0(a2)
    8000087c:	0206f693          	andi	a3,a3,32
    80000880:	dee5                	beqz	a3,80000878 <vprintfmt.constprop.0+0x308>
	*UART_THR = c;
    80000882:	02d00693          	li	a3,45
    80000886:	00df0023          	sb	a3,0(t5) # 10000000 <_start-0x70000000>
        num = -(long long) num;
    8000088a:	40f007b3          	neg	a5,a5
    8000088e:	85f6                	mv	a1,t4
    80000890:	46a9                	li	a3,10
    80000892:	bdb1                	j	800006ee <vprintfmt.constprop.0+0x17e>
	while (!(*UART_LSR & (1<<5))); // wait for THRE (trans hold reg empty)
    80000894:	100006b7          	lui	a3,0x10000
  uartSend(ch);
    80000898:	0005ce83          	lbu	t4,0(a1)
	while (!(*UART_LSR & (1<<5))); // wait for THRE (trans hold reg empty)
    8000089c:	0695                	addi	a3,a3,5 # 10000005 <_start-0x6ffffffb>
      putch(va_arg(ap, int), putdat);
    8000089e:	05a1                	addi	a1,a1,8
	while (!(*UART_LSR & (1<<5))); // wait for THRE (trans hold reg empty)
    800008a0:	10000637          	lui	a2,0x10000
    800008a4:	0006c783          	lbu	a5,0(a3)
    800008a8:	0207f793          	andi	a5,a5,32
    800008ac:	dfe5                	beqz	a5,800008a4 <vprintfmt.constprop.0+0x334>
	*UART_THR = c;
    800008ae:	01d60023          	sb	t4,0(a2) # 10000000 <_start-0x70000000>
  return 0;
    800008b2:	bbb1                	j	8000060e <vprintfmt.constprop.0+0x9e>
}
    800008b4:	6432                	ld	s0,264(sp)
    800008b6:	6151                	addi	sp,sp,272
    800008b8:	8082                	ret
	while (!(*UART_LSR & (1<<5))); // wait for THRE (trans hold reg empty)
    800008ba:	100006b7          	lui	a3,0x10000
    800008be:	0695                	addi	a3,a3,5 # 10000005 <_start-0x6ffffffb>
    800008c0:	10000637          	lui	a2,0x10000
    800008c4:	0006c783          	lbu	a5,0(a3)
    800008c8:	0207f793          	andi	a5,a5,32
    800008cc:	dfe5                	beqz	a5,800008c4 <vprintfmt.constprop.0+0x354>
	*UART_THR = c;
    800008ce:	03000793          	li	a5,48
	while (!(*UART_LSR & (1<<5))); // wait for THRE (trans hold reg empty)
    800008d2:	100006b7          	lui	a3,0x10000
	*UART_THR = c;
    800008d6:	00f60023          	sb	a5,0(a2) # 10000000 <_start-0x70000000>
	while (!(*UART_LSR & (1<<5))); // wait for THRE (trans hold reg empty)
    800008da:	0695                	addi	a3,a3,5 # 10000005 <_start-0x6ffffffb>
    800008dc:	10000637          	lui	a2,0x10000
    800008e0:	0006c783          	lbu	a5,0(a3)
    800008e4:	0207f793          	andi	a5,a5,32
    800008e8:	dfe5                	beqz	a5,800008e0 <vprintfmt.constprop.0+0x370>
	*UART_THR = c;
    800008ea:	07800793          	li	a5,120
    800008ee:	00f60023          	sb	a5,0(a2) # 10000000 <_start-0x70000000>
    800008f2:	46c1                	li	a3,16
    800008f4:	00858613          	addi	a2,a1,8
    return va_arg(*ap, unsigned long);
    800008f8:	619c                	ld	a5,0(a1)
    800008fa:	85b2                	mv	a1,a2
    800008fc:	bbcd                	j	800006ee <vprintfmt.constprop.0+0x17e>
	while (!(*UART_LSR & (1<<5))); // wait for THRE (trans hold reg empty)
    800008fe:	100006b7          	lui	a3,0x10000
    80000902:	0695                	addi	a3,a3,5 # 10000005 <_start-0x6ffffffb>
      for (; (ch = *p) != '\0' && (precision < 0 || --precision >= 0); width--) {
    80000904:	867a                	mv	a2,t5
	while (!(*UART_LSR & (1<<5))); // wait for THRE (trans hold reg empty)
    80000906:	100002b7          	lui	t0,0x10000
    8000090a:	0006c783          	lbu	a5,0(a3)
    8000090e:	0207f793          	andi	a5,a5,32
    80000912:	dfe5                	beqz	a5,8000090a <vprintfmt.constprop.0+0x39a>
	*UART_THR = c;
    80000914:	01d28023          	sb	t4,0(t0) # 10000000 <_start-0x70000000>
      for (; (ch = *p) != '\0' && (precision < 0 || --precision >= 0); width--) {
    80000918:	00164e83          	lbu	t4,1(a2)
        p++;
    8000091c:	0605                	addi	a2,a2,1
      for (; (ch = *p) != '\0' && (precision < 0 || --precision >= 0); width--) {
    8000091e:	fe0e96e3          	bnez	t4,8000090a <vprintfmt.constprop.0+0x39a>
    80000922:	01ff0f3b          	addw	t5,t5,t6
    80000926:	40cf0fbb          	subw	t6,t5,a2
      for (; width > 0; width--)
    8000092a:	03f05363          	blez	t6,80000950 <vprintfmt.constprop.0+0x3e0>
	while (!(*UART_LSR & (1<<5))); // wait for THRE (trans hold reg empty)
    8000092e:	100006b7          	lui	a3,0x10000
    80000932:	0695                	addi	a3,a3,5 # 10000005 <_start-0x6ffffffb>
    80000934:	10000eb7          	lui	t4,0x10000
	*UART_THR = c;
    80000938:	02000613          	li	a2,32
	while (!(*UART_LSR & (1<<5))); // wait for THRE (trans hold reg empty)
    8000093c:	0006c783          	lbu	a5,0(a3)
    80000940:	0207f793          	andi	a5,a5,32
    80000944:	dfe5                	beqz	a5,8000093c <vprintfmt.constprop.0+0x3cc>
	*UART_THR = c;
    80000946:	00ce8023          	sb	a2,0(t4) # 10000000 <_start-0x70000000>
      for (; width > 0; width--)
    8000094a:	3ffd                	addiw	t6,t6,-1
    8000094c:	fe0f98e3          	bnez	t6,8000093c <vprintfmt.constprop.0+0x3cc>
      if ((p = va_arg(ap, char *)) == NULL)
    80000950:	05a1                	addi	a1,a1,8
    while ((ch = *(unsigned char *) fmt) != '%') {
    80000952:	b975                	j	8000060e <vprintfmt.constprop.0+0x9e>
    if (num < base)
    80000954:	4381                	li	t2,0
    80000956:	bb7d                	j	80000714 <vprintfmt.constprop.0+0x1a4>
    return va_arg(*ap, int);
    80000958:	419c                	lw	a5,0(a1)
    8000095a:	b731                	j	80000866 <vprintfmt.constprop.0+0x2f6>
    switch (ch = *(unsigned char *) fmt++) {
    8000095c:	46a9                	li	a3,10
    8000095e:	bbb5                	j	800006da <vprintfmt.constprop.0+0x16a>
    80000960:	46a1                	li	a3,8
    80000962:	bba5                	j	800006da <vprintfmt.constprop.0+0x16a>
	while (!(*UART_LSR & (1<<5))); // wait for THRE (trans hold reg empty)
    80000964:	100006b7          	lui	a3,0x10000
    80000968:	0695                	addi	a3,a3,5 # 10000005 <_start-0x6ffffffb>
    8000096a:	10000637          	lui	a2,0x10000
    8000096e:	0006c783          	lbu	a5,0(a3)
    80000972:	0207f793          	andi	a5,a5,32
    80000976:	dfe5                	beqz	a5,8000096e <vprintfmt.constprop.0+0x3fe>
	*UART_THR = c;
    80000978:	02500793          	li	a5,37
    8000097c:	00f60023          	sb	a5,0(a2) # 10000000 <_start-0x70000000>
  return 0;
    80000980:	b179                	j	8000060e <vprintfmt.constprop.0+0x9e>

0000000080000982 <uartInit>:
	*UART_LCR = 0b0000011; // 8-bit characters, 1 stop bit, no parity
    80000982:	100007b7          	lui	a5,0x10000
    80000986:	470d                	li	a4,3
    80000988:	00e781a3          	sb	a4,3(a5) # 10000003 <_start-0x6ffffffd>
}
    8000098c:	8082                	ret

000000008000098e <uartSend>:
	while (!(*UART_LSR & (1<<5))); // wait for THRE (trans hold reg empty)
    8000098e:	10000737          	lui	a4,0x10000
    80000992:	0715                	addi	a4,a4,5 # 10000005 <_start-0x6ffffffb>
    80000994:	100006b7          	lui	a3,0x10000
    80000998:	00074783          	lbu	a5,0(a4)
    8000099c:	0207f793          	andi	a5,a5,32
    800009a0:	dfe5                	beqz	a5,80000998 <uartSend+0xa>
	*UART_THR = c;
    800009a2:	00a68023          	sb	a0,0(a3) # 10000000 <_start-0x70000000>
}
    800009a6:	8082                	ret

00000000800009a8 <uartReceive>:
	while (!(*UART_LSR & (1<<0))); // wait for DR (Data Ready)
    800009a8:	10000737          	lui	a4,0x10000
    800009ac:	0715                	addi	a4,a4,5 # 10000005 <_start-0x6ffffffb>
    800009ae:	100006b7          	lui	a3,0x10000
    800009b2:	00074783          	lbu	a5,0(a4)
    800009b6:	8b85                	andi	a5,a5,1
    800009b8:	dfed                	beqz	a5,800009b2 <uartReceive+0xa>
	return *UART_RBR;
    800009ba:	0006c503          	lbu	a0,0(a3) # 10000000 <_start-0x70000000>
}
    800009be:	8082                	ret

00000000800009c0 <uartPutStr>:
    while (*str) {
    800009c0:	00054683          	lbu	a3,0(a0)
    800009c4:	c28d                	beqz	a3,800009e6 <uartPutStr+0x26>
	while (!(*UART_LSR & (1<<5))); // wait for THRE (trans hold reg empty)
    800009c6:	10000737          	lui	a4,0x10000
    800009ca:	0715                	addi	a4,a4,5 # 10000005 <_start-0x6ffffffb>
    800009cc:	10000637          	lui	a2,0x10000
        uartSend(*str++);
    800009d0:	0505                	addi	a0,a0,1
	while (!(*UART_LSR & (1<<5))); // wait for THRE (trans hold reg empty)
    800009d2:	00074783          	lbu	a5,0(a4)
    800009d6:	0207f793          	andi	a5,a5,32
    800009da:	dfe5                	beqz	a5,800009d2 <uartPutStr+0x12>
	*UART_THR = c;
    800009dc:	00d60023          	sb	a3,0(a2) # 10000000 <_start-0x70000000>
    while (*str) {
    800009e0:	00054683          	lbu	a3,0(a0)
    800009e4:	f6f5                	bnez	a3,800009d0 <uartPutStr+0x10>
}
    800009e6:	8082                	ret

00000000800009e8 <setStats>:
  READ_CTR(mcycle);
    800009e8:	b0002773          	csrr	a4,mcycle
    800009ec:	b7018793          	addi	a5,gp,-1168 # 800023b8 <counters>
    800009f0:	c511                	beqz	a0,800009fc <setStats+0x14>
    800009f2:	e398                	sd	a4,0(a5)
  READ_CTR(minstret);
    800009f4:	b0202773          	csrr	a4,minstret
    800009f8:	e798                	sd	a4,8(a5)
}
    800009fa:	8082                	ret
  READ_CTR(mcycle);
    800009fc:	6394                	ld	a3,0(a5)
    800009fe:	00001617          	auipc	a2,0x1
    80000a02:	67a60613          	addi	a2,a2,1658 # 80002078 <fromhost+0x38>
    80000a06:	eb90                	sd	a2,16(a5)
    80000a08:	8f15                	sub	a4,a4,a3
    80000a0a:	e398                	sd	a4,0(a5)
  READ_CTR(minstret);
    80000a0c:	b0202773          	csrr	a4,minstret
    80000a10:	6794                	ld	a3,8(a5)
    80000a12:	00001617          	auipc	a2,0x1
    80000a16:	66e60613          	addi	a2,a2,1646 # 80002080 <fromhost+0x40>
    80000a1a:	ef90                	sd	a2,24(a5)
    80000a1c:	8f15                	sub	a4,a4,a3
    80000a1e:	e798                	sd	a4,8(a5)
}
    80000a20:	8082                	ret

0000000080000a22 <tohost_exit>:
  tohost = (code << 1) | 1;
    80000a22:	00151793          	slli	a5,a0,0x1
    80000a26:	0017e793          	ori	a5,a5,1
    80000a2a:	00001717          	auipc	a4,0x1
    80000a2e:	5cf73b23          	sd	a5,1494(a4) # 80002000 <tohost>
  while (1);
    80000a32:	a001                	j	80000a32 <tohost_exit+0x10>

0000000080000a34 <handle_trap>:
  tohost = (code << 1) | 1;
    80000a34:	6785                	lui	a5,0x1
    80000a36:	a7378793          	addi	a5,a5,-1421 # a73 <_start-0x7ffff58d>
    80000a3a:	00001717          	auipc	a4,0x1
    80000a3e:	5cf73323          	sd	a5,1478(a4) # 80002000 <tohost>
  while (1);
    80000a42:	a001                	j	80000a42 <handle_trap+0xe>

0000000080000a44 <exit>:
{
    80000a44:	1141                	addi	sp,sp,-16
    80000a46:	e406                	sd	ra,8(sp)
  tohost_exit(code);
    80000a48:	fdbff0ef          	jal	80000a22 <tohost_exit>

0000000080000a4c <abort>:
  tohost = (code << 1) | 1;
    80000a4c:	10d00793          	li	a5,269
    80000a50:	00001717          	auipc	a4,0x1
    80000a54:	5af73823          	sd	a5,1456(a4) # 80002000 <tohost>
  while (1);
    80000a58:	a001                	j	80000a58 <abort+0xc>

0000000080000a5a <printstr>:
    while (*str) {
    80000a5a:	00054683          	lbu	a3,0(a0)
    80000a5e:	c28d                	beqz	a3,80000a80 <printstr+0x26>
	while (!(*UART_LSR & (1<<5))); // wait for THRE (trans hold reg empty)
    80000a60:	10000737          	lui	a4,0x10000
    80000a64:	0715                	addi	a4,a4,5 # 10000005 <_start-0x6ffffffb>
    80000a66:	10000637          	lui	a2,0x10000
        uartSend(*str++);
    80000a6a:	0505                	addi	a0,a0,1
	while (!(*UART_LSR & (1<<5))); // wait for THRE (trans hold reg empty)
    80000a6c:	00074783          	lbu	a5,0(a4)
    80000a70:	0207f793          	andi	a5,a5,32
    80000a74:	dfe5                	beqz	a5,80000a6c <printstr+0x12>
	*UART_THR = c;
    80000a76:	00d60023          	sb	a3,0(a2) # 10000000 <_start-0x70000000>
    while (*str) {
    80000a7a:	00054683          	lbu	a3,0(a0)
    80000a7e:	f6f5                	bnez	a3,80000a6a <printstr+0x10>
}
    80000a80:	8082                	ret

0000000080000a82 <puts>:
    while (*str) {
    80000a82:	00054683          	lbu	a3,0(a0)
    80000a86:	c28d                	beqz	a3,80000aa8 <puts+0x26>
	while (!(*UART_LSR & (1<<5))); // wait for THRE (trans hold reg empty)
    80000a88:	10000737          	lui	a4,0x10000
    80000a8c:	0715                	addi	a4,a4,5 # 10000005 <_start-0x6ffffffb>
    80000a8e:	10000637          	lui	a2,0x10000
        uartSend(*str++);
    80000a92:	0505                	addi	a0,a0,1
	while (!(*UART_LSR & (1<<5))); // wait for THRE (trans hold reg empty)
    80000a94:	00074783          	lbu	a5,0(a4)
    80000a98:	0207f793          	andi	a5,a5,32
    80000a9c:	dfe5                	beqz	a5,80000a94 <puts+0x12>
	*UART_THR = c;
    80000a9e:	00d60023          	sb	a3,0(a2) # 10000000 <_start-0x70000000>
    while (*str) {
    80000aa2:	00054683          	lbu	a3,0(a0)
    80000aa6:	f6f5                	bnez	a3,80000a92 <puts+0x10>
}
    80000aa8:	4501                	li	a0,0
    80000aaa:	8082                	ret

0000000080000aac <thread_entry>:
  while (cid != 0);
    80000aac:	e111                	bnez	a0,80000ab0 <thread_entry+0x4>
}
    80000aae:	8082                	ret
  while (cid != 0);
    80000ab0:	a001                	j	80000ab0 <thread_entry+0x4>

0000000080000ab2 <printhex>:
    str[15-i] = (x & 0xF) + ((x & 0xF) < 10 ? '0' : 'a'-10);
    80000ab2:	00f57613          	andi	a2,a0,15
    80000ab6:	46a5                	li	a3,9
{
    80000ab8:	1101                	addi	sp,sp,-32
    str[15-i] = (x & 0xF) + ((x & 0xF) < 10 ? '0' : 'a'-10);
    80000aba:	8732                	mv	a4,a2
    80000abc:	03000793          	li	a5,48
    80000ac0:	00c6f463          	bgeu	a3,a2,80000ac8 <printhex+0x16>
    80000ac4:	05700793          	li	a5,87
    80000ac8:	9f3d                	addw	a4,a4,a5
    x >>= 4;
    80000aca:	00455793          	srli	a5,a0,0x4
    str[15-i] = (x & 0xF) + ((x & 0xF) < 10 ? '0' : 'a'-10);
    80000ace:	00e10ba3          	sb	a4,23(sp)
    80000ad2:	00f7f613          	andi	a2,a5,15
    80000ad6:	46a5                	li	a3,9
    80000ad8:	87b2                	mv	a5,a2
    80000ada:	05700713          	li	a4,87
    80000ade:	00c6e463          	bltu	a3,a2,80000ae6 <printhex+0x34>
    80000ae2:	03000713          	li	a4,48
    80000ae6:	9f3d                	addw	a4,a4,a5
    x >>= 4;
    80000ae8:	00855793          	srli	a5,a0,0x8
    str[15-i] = (x & 0xF) + ((x & 0xF) < 10 ? '0' : 'a'-10);
    80000aec:	00e10b23          	sb	a4,22(sp)
    80000af0:	00f7f613          	andi	a2,a5,15
    80000af4:	46a5                	li	a3,9
    80000af6:	87b2                	mv	a5,a2
    80000af8:	05700713          	li	a4,87
    80000afc:	00c6e463          	bltu	a3,a2,80000b04 <printhex+0x52>
    80000b00:	03000713          	li	a4,48
    80000b04:	9f3d                	addw	a4,a4,a5
    x >>= 4;
    80000b06:	00c55793          	srli	a5,a0,0xc
    str[15-i] = (x & 0xF) + ((x & 0xF) < 10 ? '0' : 'a'-10);
    80000b0a:	00e10aa3          	sb	a4,21(sp)
    80000b0e:	00f7f613          	andi	a2,a5,15
    80000b12:	46a5                	li	a3,9
    80000b14:	87b2                	mv	a5,a2
    80000b16:	05700713          	li	a4,87
    80000b1a:	00c6e463          	bltu	a3,a2,80000b22 <printhex+0x70>
    80000b1e:	03000713          	li	a4,48
    80000b22:	9f3d                	addw	a4,a4,a5
    x >>= 4;
    80000b24:	01055793          	srli	a5,a0,0x10
    str[15-i] = (x & 0xF) + ((x & 0xF) < 10 ? '0' : 'a'-10);
    80000b28:	00e10a23          	sb	a4,20(sp)
    80000b2c:	00f7f613          	andi	a2,a5,15
    80000b30:	46a5                	li	a3,9
    80000b32:	87b2                	mv	a5,a2
    80000b34:	05700713          	li	a4,87
    80000b38:	00c6e463          	bltu	a3,a2,80000b40 <printhex+0x8e>
    80000b3c:	03000713          	li	a4,48
    80000b40:	9f3d                	addw	a4,a4,a5
    x >>= 4;
    80000b42:	01455793          	srli	a5,a0,0x14
    str[15-i] = (x & 0xF) + ((x & 0xF) < 10 ? '0' : 'a'-10);
    80000b46:	00e109a3          	sb	a4,19(sp)
    80000b4a:	00f7f613          	andi	a2,a5,15
    80000b4e:	46a5                	li	a3,9
    80000b50:	87b2                	mv	a5,a2
    80000b52:	05700713          	li	a4,87
    80000b56:	00c6e463          	bltu	a3,a2,80000b5e <printhex+0xac>
    80000b5a:	03000713          	li	a4,48
    80000b5e:	9f3d                	addw	a4,a4,a5
    x >>= 4;
    80000b60:	01855793          	srli	a5,a0,0x18
    str[15-i] = (x & 0xF) + ((x & 0xF) < 10 ? '0' : 'a'-10);
    80000b64:	00e10923          	sb	a4,18(sp)
    80000b68:	00f7f613          	andi	a2,a5,15
    80000b6c:	46a5                	li	a3,9
    80000b6e:	87b2                	mv	a5,a2
    80000b70:	05700713          	li	a4,87
    80000b74:	00c6e463          	bltu	a3,a2,80000b7c <printhex+0xca>
    80000b78:	03000713          	li	a4,48
    80000b7c:	9fb9                	addw	a5,a5,a4
    80000b7e:	00f108a3          	sb	a5,17(sp)
    80000b82:	4625                	li	a2,9
    80000b84:	01c5579b          	srliw	a5,a0,0x1c
    80000b88:	873e                	mv	a4,a5
    80000b8a:	05700693          	li	a3,87
    80000b8e:	00f66463          	bltu	a2,a5,80000b96 <printhex+0xe4>
    80000b92:	03000693          	li	a3,48
    80000b96:	9f35                	addw	a4,a4,a3
    x >>= 4;
    80000b98:	02055793          	srli	a5,a0,0x20
    str[15-i] = (x & 0xF) + ((x & 0xF) < 10 ? '0' : 'a'-10);
    80000b9c:	00e10823          	sb	a4,16(sp)
    80000ba0:	00f7f613          	andi	a2,a5,15
    80000ba4:	46a5                	li	a3,9
    80000ba6:	87b2                	mv	a5,a2
    80000ba8:	05700713          	li	a4,87
    80000bac:	00c6e463          	bltu	a3,a2,80000bb4 <printhex+0x102>
    80000bb0:	03000713          	li	a4,48
    80000bb4:	9f3d                	addw	a4,a4,a5
    x >>= 4;
    80000bb6:	02455793          	srli	a5,a0,0x24
    str[15-i] = (x & 0xF) + ((x & 0xF) < 10 ? '0' : 'a'-10);
    80000bba:	00e107a3          	sb	a4,15(sp)
    80000bbe:	00f7f613          	andi	a2,a5,15
    80000bc2:	46a5                	li	a3,9
    80000bc4:	87b2                	mv	a5,a2
    80000bc6:	05700713          	li	a4,87
    80000bca:	00c6e463          	bltu	a3,a2,80000bd2 <printhex+0x120>
    80000bce:	03000713          	li	a4,48
    80000bd2:	9f3d                	addw	a4,a4,a5
    x >>= 4;
    80000bd4:	02855793          	srli	a5,a0,0x28
    str[15-i] = (x & 0xF) + ((x & 0xF) < 10 ? '0' : 'a'-10);
    80000bd8:	00e10723          	sb	a4,14(sp)
    80000bdc:	00f7f613          	andi	a2,a5,15
    80000be0:	46a5                	li	a3,9
    80000be2:	87b2                	mv	a5,a2
    80000be4:	05700713          	li	a4,87
    80000be8:	00c6e463          	bltu	a3,a2,80000bf0 <printhex+0x13e>
    80000bec:	03000713          	li	a4,48
    80000bf0:	9f3d                	addw	a4,a4,a5
    x >>= 4;
    80000bf2:	02c55793          	srli	a5,a0,0x2c
    str[15-i] = (x & 0xF) + ((x & 0xF) < 10 ? '0' : 'a'-10);
    80000bf6:	00e106a3          	sb	a4,13(sp)
    80000bfa:	00f7f613          	andi	a2,a5,15
    80000bfe:	46a5                	li	a3,9
    80000c00:	87b2                	mv	a5,a2
    80000c02:	05700713          	li	a4,87
    80000c06:	00c6e463          	bltu	a3,a2,80000c0e <printhex+0x15c>
    80000c0a:	03000713          	li	a4,48
    80000c0e:	9f3d                	addw	a4,a4,a5
    x >>= 4;
    80000c10:	03055793          	srli	a5,a0,0x30
    str[15-i] = (x & 0xF) + ((x & 0xF) < 10 ? '0' : 'a'-10);
    80000c14:	00e10623          	sb	a4,12(sp)
    80000c18:	00f7f613          	andi	a2,a5,15
    80000c1c:	46a5                	li	a3,9
    80000c1e:	87b2                	mv	a5,a2
    80000c20:	05700713          	li	a4,87
    80000c24:	00c6e463          	bltu	a3,a2,80000c2c <printhex+0x17a>
    80000c28:	03000713          	li	a4,48
    80000c2c:	9f3d                	addw	a4,a4,a5
    x >>= 4;
    80000c2e:	03455793          	srli	a5,a0,0x34
    str[15-i] = (x & 0xF) + ((x & 0xF) < 10 ? '0' : 'a'-10);
    80000c32:	00e105a3          	sb	a4,11(sp)
    80000c36:	00f7f613          	andi	a2,a5,15
    80000c3a:	46a5                	li	a3,9
    80000c3c:	87b2                	mv	a5,a2
    80000c3e:	05700713          	li	a4,87
    80000c42:	00c6e463          	bltu	a3,a2,80000c4a <printhex+0x198>
    80000c46:	03000713          	li	a4,48
    80000c4a:	9f3d                	addw	a4,a4,a5
    x >>= 4;
    80000c4c:	03855793          	srli	a5,a0,0x38
    str[15-i] = (x & 0xF) + ((x & 0xF) < 10 ? '0' : 'a'-10);
    80000c50:	00e10523          	sb	a4,10(sp)
    80000c54:	00f7f613          	andi	a2,a5,15
    80000c58:	46a5                	li	a3,9
    80000c5a:	87b2                	mv	a5,a2
    80000c5c:	05700713          	li	a4,87
    80000c60:	00c6e463          	bltu	a3,a2,80000c68 <printhex+0x1b6>
    80000c64:	03000713          	li	a4,48
    80000c68:	9fb9                	addw	a5,a5,a4
    80000c6a:	00f104a3          	sb	a5,9(sp)
    x >>= 4;
    80000c6e:	03c55613          	srli	a2,a0,0x3c
    str[15-i] = (x & 0xF) + ((x & 0xF) < 10 ? '0' : 'a'-10);
    80000c72:	4725                	li	a4,9
    80000c74:	86b2                	mv	a3,a2
    80000c76:	05700793          	li	a5,87
    80000c7a:	00c76463          	bltu	a4,a2,80000c82 <printhex+0x1d0>
    80000c7e:	03000793          	li	a5,48
    80000c82:	96be                	add	a3,a3,a5
	while (!(*UART_LSR & (1<<5))); // wait for THRE (trans hold reg empty)
    80000c84:	10000737          	lui	a4,0x10000
    str[15-i] = (x & 0xF) + ((x & 0xF) < 10 ? '0' : 'a'-10);
    80000c88:	00d10423          	sb	a3,8(sp)
  str[16] = 0;
    80000c8c:	00010c23          	sb	zero,24(sp)
	while (!(*UART_LSR & (1<<5))); // wait for THRE (trans hold reg empty)
    80000c90:	0715                	addi	a4,a4,5 # 10000005 <_start-0x6ffffffb>
  str[16] = 0;
    80000c92:	0030                	addi	a2,sp,8
	while (!(*UART_LSR & (1<<5))); // wait for THRE (trans hold reg empty)
    80000c94:	100005b7          	lui	a1,0x10000
        uartSend(*str++);
    80000c98:	0605                	addi	a2,a2,1
	while (!(*UART_LSR & (1<<5))); // wait for THRE (trans hold reg empty)
    80000c9a:	00074783          	lbu	a5,0(a4)
    80000c9e:	0207f793          	andi	a5,a5,32
    80000ca2:	dfe5                	beqz	a5,80000c9a <printhex+0x1e8>
	*UART_THR = c;
    80000ca4:	00d58023          	sb	a3,0(a1) # 10000000 <_start-0x70000000>
    while (*str) {
    80000ca8:	00064683          	lbu	a3,0(a2)
    80000cac:	f6f5                	bnez	a3,80000c98 <printhex+0x1e6>
}
    80000cae:	6105                	addi	sp,sp,32
    80000cb0:	8082                	ret

0000000080000cb2 <printf>:
{
    80000cb2:	711d                	addi	sp,sp,-96
  va_start(ap, fmt);
    80000cb4:	02810313          	addi	t1,sp,40
{
    80000cb8:	f42e                	sd	a1,40(sp)
  vprintfmt((void*)putchar, 0, fmt, ap);
    80000cba:	859a                	mv	a1,t1
{
    80000cbc:	ec06                	sd	ra,24(sp)
    80000cbe:	f832                	sd	a2,48(sp)
    80000cc0:	fc36                	sd	a3,56(sp)
    80000cc2:	e0ba                	sd	a4,64(sp)
    80000cc4:	e4be                	sd	a5,72(sp)
    80000cc6:	e8c2                	sd	a6,80(sp)
    80000cc8:	ecc6                	sd	a7,88(sp)
  va_start(ap, fmt);
    80000cca:	e41a                	sd	t1,8(sp)
  vprintfmt((void*)putchar, 0, fmt, ap);
    80000ccc:	8a5ff0ef          	jal	80000570 <vprintfmt.constprop.0>
}
    80000cd0:	60e2                	ld	ra,24(sp)
    80000cd2:	4501                	li	a0,0
    80000cd4:	6125                	addi	sp,sp,96
    80000cd6:	8082                	ret

0000000080000cd8 <sprintf>:
{
    80000cd8:	711d                	addi	sp,sp,-96
  va_start(ap, fmt);
    80000cda:	03010313          	addi	t1,sp,48
{
    80000cde:	f022                	sd	s0,32(sp)
    80000ce0:	e42a                	sd	a0,8(sp)
    80000ce2:	f832                	sd	a2,48(sp)
  char* str0 = str;
    80000ce4:	842a                	mv	s0,a0
  vprintfmt(sprintf_putch, (void**)&str, fmt, ap);
    80000ce6:	861a                	mv	a2,t1
    80000ce8:	0028                	addi	a0,sp,8
{
    80000cea:	f406                	sd	ra,40(sp)
    80000cec:	fc36                	sd	a3,56(sp)
    80000cee:	e0ba                	sd	a4,64(sp)
    80000cf0:	e4be                	sd	a5,72(sp)
    80000cf2:	e8c2                	sd	a6,80(sp)
    80000cf4:	ecc6                	sd	a7,88(sp)
  va_start(ap, fmt);
    80000cf6:	ec1a                	sd	t1,24(sp)
  vprintfmt(sprintf_putch, (void**)&str, fmt, ap);
    80000cf8:	d66ff0ef          	jal	8000025e <vprintfmt.constprop.1>
  *str = 0;
    80000cfc:	6522                	ld	a0,8(sp)
    80000cfe:	00050023          	sb	zero,0(a0)
}
    80000d02:	70a2                	ld	ra,40(sp)
    80000d04:	9d01                	subw	a0,a0,s0
    80000d06:	7402                	ld	s0,32(sp)
    80000d08:	6125                	addi	sp,sp,96
    80000d0a:	8082                	ret

0000000080000d0c <memcpy>:
  if ((((uintptr_t)dest | (uintptr_t)src | len) & (sizeof(uintptr_t)-1)) == 0) {
    80000d0c:	00c5e833          	or	a6,a1,a2
    80000d10:	00a86833          	or	a6,a6,a0
    80000d14:	00787813          	andi	a6,a6,7
    80000d18:	87ae                	mv	a5,a1
    80000d1a:	872a                	mv	a4,a0
    while (d < (char*)(dest + len))
    80000d1c:	00c506b3          	add	a3,a0,a2
  if ((((uintptr_t)dest | (uintptr_t)src | len) & (sizeof(uintptr_t)-1)) == 0) {
    80000d20:	0a080b63          	beqz	a6,80000dd6 <memcpy+0xca>
    while (d < (char*)(dest + len))
    80000d24:	0ed57263          	bgeu	a0,a3,80000e08 <memcpy+0xfc>
    80000d28:	fff60813          	addi	a6,a2,-1
    80000d2c:	489d                	li	a7,7
    80000d2e:	0b08ff63          	bgeu	a7,a6,80000dec <memcpy+0xe0>
    80000d32:	00b56833          	or	a6,a0,a1
    80000d36:	00787813          	andi	a6,a6,7
    80000d3a:	0a081963          	bnez	a6,80000dec <memcpy+0xe0>
    80000d3e:	00158813          	addi	a6,a1,1
    80000d42:	410508b3          	sub	a7,a0,a6
    80000d46:	0078b893          	sltiu	a7,a7,7
    80000d4a:	0a089363          	bnez	a7,80000df0 <memcpy+0xe4>
    80000d4e:	ff867893          	andi	a7,a2,-8
    80000d52:	01158833          	add	a6,a1,a7
      *d++ = *s++;
    80000d56:	638c                	ld	a1,0(a5)
    80000d58:	07a1                	addi	a5,a5,8
    80000d5a:	0721                	addi	a4,a4,8
    80000d5c:	feb73c23          	sd	a1,-8(a4)
    while (d < (char*)(dest + len))
    80000d60:	fef81be3          	bne	a6,a5,80000d56 <memcpy+0x4a>
    80000d64:	011507b3          	add	a5,a0,a7
    80000d68:	09160f63          	beq	a2,a7,80000e06 <memcpy+0xfa>
      *d++ = *s++;
    80000d6c:	00084603          	lbu	a2,0(a6)
    80000d70:	00178713          	addi	a4,a5,1
    80000d74:	00c78023          	sb	a2,0(a5)
    while (d < (char*)(dest + len))
    80000d78:	08d77763          	bgeu	a4,a3,80000e06 <memcpy+0xfa>
      *d++ = *s++;
    80000d7c:	00184603          	lbu	a2,1(a6)
    80000d80:	00278713          	addi	a4,a5,2
    80000d84:	00c780a3          	sb	a2,1(a5)
    while (d < (char*)(dest + len))
    80000d88:	06d77f63          	bgeu	a4,a3,80000e06 <memcpy+0xfa>
      *d++ = *s++;
    80000d8c:	00284603          	lbu	a2,2(a6)
    80000d90:	00378713          	addi	a4,a5,3
    80000d94:	00c78123          	sb	a2,2(a5)
    while (d < (char*)(dest + len))
    80000d98:	06d77763          	bgeu	a4,a3,80000e06 <memcpy+0xfa>
      *d++ = *s++;
    80000d9c:	00384603          	lbu	a2,3(a6)
    80000da0:	00478713          	addi	a4,a5,4
    80000da4:	00c781a3          	sb	a2,3(a5)
    while (d < (char*)(dest + len))
    80000da8:	04d77f63          	bgeu	a4,a3,80000e06 <memcpy+0xfa>
      *d++ = *s++;
    80000dac:	00484603          	lbu	a2,4(a6)
    80000db0:	00578713          	addi	a4,a5,5
    80000db4:	00c78223          	sb	a2,4(a5)
    while (d < (char*)(dest + len))
    80000db8:	04d77763          	bgeu	a4,a3,80000e06 <memcpy+0xfa>
      *d++ = *s++;
    80000dbc:	00584603          	lbu	a2,5(a6)
    80000dc0:	00678713          	addi	a4,a5,6
    80000dc4:	00c782a3          	sb	a2,5(a5)
    while (d < (char*)(dest + len))
    80000dc8:	02d77f63          	bgeu	a4,a3,80000e06 <memcpy+0xfa>
      *d++ = *s++;
    80000dcc:	00684703          	lbu	a4,6(a6)
    80000dd0:	00e78323          	sb	a4,6(a5)
    while (d < (char*)(dest + len))
    80000dd4:	8082                	ret
    while (d < (uintptr_t*)(dest + len))
    80000dd6:	02d57863          	bgeu	a0,a3,80000e06 <memcpy+0xfa>
    uintptr_t *d = dest;
    80000dda:	87aa                	mv	a5,a0
      *d++ = *s++;
    80000ddc:	6198                	ld	a4,0(a1)
    80000dde:	07a1                	addi	a5,a5,8
    80000de0:	05a1                	addi	a1,a1,8
    80000de2:	fee7bc23          	sd	a4,-8(a5)
    while (d < (uintptr_t*)(dest + len))
    80000de6:	fed7ebe3          	bltu	a5,a3,80000ddc <memcpy+0xd0>
    80000dea:	8082                	ret
    80000dec:	00158813          	addi	a6,a1,1
    80000df0:	95b2                	add	a1,a1,a2
    char *d = dest;
    80000df2:	87aa                	mv	a5,a0
    80000df4:	a011                	j	80000df8 <memcpy+0xec>
    80000df6:	0805                	addi	a6,a6,1
      *d++ = *s++;
    80000df8:	fff84703          	lbu	a4,-1(a6)
    80000dfc:	0785                	addi	a5,a5,1
    80000dfe:	fee78fa3          	sb	a4,-1(a5)
    while (d < (char*)(dest + len))
    80000e02:	feb81ae3          	bne	a6,a1,80000df6 <memcpy+0xea>
}
    80000e06:	8082                	ret
    80000e08:	8082                	ret

0000000080000e0a <memset>:
  if ((((uintptr_t)dest | len) & (sizeof(uintptr_t)-1)) == 0) {
    80000e0a:	00c567b3          	or	a5,a0,a2
    80000e0e:	8b9d                	andi	a5,a5,7
    while (d < (char*)(dest + len))
    80000e10:	00c50833          	add	a6,a0,a2
  if ((((uintptr_t)dest | len) & (sizeof(uintptr_t)-1)) == 0) {
    80000e14:	16078663          	beqz	a5,80000f80 <memset+0x176>
    while (d < (char*)(dest + len))
    80000e18:	19057863          	bgeu	a0,a6,80000fa8 <memset+0x19e>
    80000e1c:	40a006b3          	neg	a3,a0
    80000e20:	0076f793          	andi	a5,a3,7
    80000e24:	00778893          	addi	a7,a5,7
    80000e28:	432d                	li	t1,11
      *d++ = byte;
    80000e2a:	0ff5f713          	zext.b	a4,a1
    80000e2e:	fff60593          	addi	a1,a2,-1
    80000e32:	0068f363          	bgeu	a7,t1,80000e38 <memset+0x2e>
    80000e36:	889a                	mv	a7,t1
    80000e38:	1915e263          	bltu	a1,a7,80000fbc <memset+0x1b2>
    80000e3c:	16078e63          	beqz	a5,80000fb8 <memset+0x1ae>
    80000e40:	00e50023          	sb	a4,0(a0)
    while (d < (char*)(dest + len))
    80000e44:	0066f593          	andi	a1,a3,6
    80000e48:	16058563          	beqz	a1,80000fb2 <memset+0x1a8>
      *d++ = byte;
    80000e4c:	00e500a3          	sb	a4,1(a0)
    while (d < (char*)(dest + len))
    80000e50:	4589                	li	a1,2
    80000e52:	16f5f763          	bgeu	a1,a5,80000fc0 <memset+0x1b6>
      *d++ = byte;
    80000e56:	00e50123          	sb	a4,2(a0)
    while (d < (char*)(dest + len))
    80000e5a:	8a91                	andi	a3,a3,4
      *d++ = byte;
    80000e5c:	00350593          	addi	a1,a0,3
    80000e60:	c695                	beqz	a3,80000e8c <memset+0x82>
    80000e62:	00e501a3          	sb	a4,3(a0)
    while (d < (char*)(dest + len))
    80000e66:	4691                	li	a3,4
    80000e68:	14f6f163          	bgeu	a3,a5,80000faa <memset+0x1a0>
      *d++ = byte;
    80000e6c:	00e50223          	sb	a4,4(a0)
    while (d < (char*)(dest + len))
    80000e70:	4695                	li	a3,5
    80000e72:	12d78c63          	beq	a5,a3,80000faa <memset+0x1a0>
      *d++ = byte;
    80000e76:	00e502a3          	sb	a4,5(a0)
    while (d < (char*)(dest + len))
    80000e7a:	469d                	li	a3,7
      *d++ = byte;
    80000e7c:	00650593          	addi	a1,a0,6
    80000e80:	00d79663          	bne	a5,a3,80000e8c <memset+0x82>
    80000e84:	00e50323          	sb	a4,6(a0)
    80000e88:	00750593          	addi	a1,a0,7
    while (d < (char*)(dest + len))
    80000e8c:	00871693          	slli	a3,a4,0x8
    80000e90:	01071893          	slli	a7,a4,0x10
    80000e94:	8ed9                	or	a3,a3,a4
    80000e96:	0116e6b3          	or	a3,a3,a7
    80000e9a:	01871893          	slli	a7,a4,0x18
    80000e9e:	0116e6b3          	or	a3,a3,a7
    80000ea2:	02071893          	slli	a7,a4,0x20
    80000ea6:	0116e6b3          	or	a3,a3,a7
    80000eaa:	02871893          	slli	a7,a4,0x28
    80000eae:	8e1d                	sub	a2,a2,a5
    80000eb0:	0116e6b3          	or	a3,a3,a7
    80000eb4:	03071893          	slli	a7,a4,0x30
    80000eb8:	0116e6b3          	or	a3,a3,a7
    80000ebc:	97aa                	add	a5,a5,a0
    80000ebe:	03871893          	slli	a7,a4,0x38
    80000ec2:	ff867313          	andi	t1,a2,-8
    80000ec6:	0116e6b3          	or	a3,a3,a7
    80000eca:	00f308b3          	add	a7,t1,a5
      *d++ = byte;
    80000ece:	e394                	sd	a3,0(a5)
    while (d < (char*)(dest + len))
    80000ed0:	07a1                	addi	a5,a5,8
    80000ed2:	ff179ee3          	bne	a5,a7,80000ece <memset+0xc4>
    80000ed6:	006587b3          	add	a5,a1,t1
    80000eda:	0cc30b63          	beq	t1,a2,80000fb0 <memset+0x1a6>
      *d++ = byte;
    80000ede:	00e78023          	sb	a4,0(a5)
    80000ee2:	00178693          	addi	a3,a5,1
    while (d < (char*)(dest + len))
    80000ee6:	0906fc63          	bgeu	a3,a6,80000f7e <memset+0x174>
      *d++ = byte;
    80000eea:	00e780a3          	sb	a4,1(a5)
    80000eee:	00278693          	addi	a3,a5,2
    while (d < (char*)(dest + len))
    80000ef2:	0906f663          	bgeu	a3,a6,80000f7e <memset+0x174>
      *d++ = byte;
    80000ef6:	00e78123          	sb	a4,2(a5)
    80000efa:	00378693          	addi	a3,a5,3
    while (d < (char*)(dest + len))
    80000efe:	0906f063          	bgeu	a3,a6,80000f7e <memset+0x174>
      *d++ = byte;
    80000f02:	00e781a3          	sb	a4,3(a5)
    80000f06:	00478693          	addi	a3,a5,4
    while (d < (char*)(dest + len))
    80000f0a:	0706fa63          	bgeu	a3,a6,80000f7e <memset+0x174>
      *d++ = byte;
    80000f0e:	00e78223          	sb	a4,4(a5)
    80000f12:	00578693          	addi	a3,a5,5
    while (d < (char*)(dest + len))
    80000f16:	0706f463          	bgeu	a3,a6,80000f7e <memset+0x174>
      *d++ = byte;
    80000f1a:	00e782a3          	sb	a4,5(a5)
    80000f1e:	00678693          	addi	a3,a5,6
    while (d < (char*)(dest + len))
    80000f22:	0506fe63          	bgeu	a3,a6,80000f7e <memset+0x174>
      *d++ = byte;
    80000f26:	00e78323          	sb	a4,6(a5)
    80000f2a:	00778693          	addi	a3,a5,7
    while (d < (char*)(dest + len))
    80000f2e:	0506f863          	bgeu	a3,a6,80000f7e <memset+0x174>
      *d++ = byte;
    80000f32:	00e783a3          	sb	a4,7(a5)
    80000f36:	00878693          	addi	a3,a5,8
    while (d < (char*)(dest + len))
    80000f3a:	0506f263          	bgeu	a3,a6,80000f7e <memset+0x174>
      *d++ = byte;
    80000f3e:	00e78423          	sb	a4,8(a5)
    80000f42:	00978693          	addi	a3,a5,9
    while (d < (char*)(dest + len))
    80000f46:	0306fc63          	bgeu	a3,a6,80000f7e <memset+0x174>
      *d++ = byte;
    80000f4a:	00e784a3          	sb	a4,9(a5)
    80000f4e:	00a78693          	addi	a3,a5,10
    while (d < (char*)(dest + len))
    80000f52:	0306f663          	bgeu	a3,a6,80000f7e <memset+0x174>
      *d++ = byte;
    80000f56:	00e78523          	sb	a4,10(a5)
    80000f5a:	00b78693          	addi	a3,a5,11
    while (d < (char*)(dest + len))
    80000f5e:	0306f063          	bgeu	a3,a6,80000f7e <memset+0x174>
      *d++ = byte;
    80000f62:	00e785a3          	sb	a4,11(a5)
    80000f66:	00c78693          	addi	a3,a5,12
    while (d < (char*)(dest + len))
    80000f6a:	0106fa63          	bgeu	a3,a6,80000f7e <memset+0x174>
      *d++ = byte;
    80000f6e:	00e78623          	sb	a4,12(a5)
    80000f72:	00d78693          	addi	a3,a5,13
    while (d < (char*)(dest + len))
    80000f76:	0106f463          	bgeu	a3,a6,80000f7e <memset+0x174>
      *d++ = byte;
    80000f7a:	00e786a3          	sb	a4,13(a5)
}
    80000f7e:	8082                	ret
    word |= word << 16 << 16;
    80000f80:	010107b7          	lui	a5,0x1010
    80000f84:	10178793          	addi	a5,a5,257 # 1010101 <_start-0x7efefeff>
    80000f88:	02079693          	slli	a3,a5,0x20
    uintptr_t word = byte & 0xFF;
    80000f8c:	0ff5f713          	zext.b	a4,a1
    80000f90:	97b6                	add	a5,a5,a3
    80000f92:	02f70733          	mul	a4,a4,a5
    while (d < (uintptr_t*)(dest + len))
    80000f96:	ff0574e3          	bgeu	a0,a6,80000f7e <memset+0x174>
    uintptr_t *d = dest;
    80000f9a:	87aa                	mv	a5,a0
      *d++ = word;
    80000f9c:	07a1                	addi	a5,a5,8
    80000f9e:	fee7bc23          	sd	a4,-8(a5)
    while (d < (uintptr_t*)(dest + len))
    80000fa2:	ff07ede3          	bltu	a5,a6,80000f9c <memset+0x192>
    80000fa6:	8082                	ret
    80000fa8:	8082                	ret
      *d++ = byte;
    80000faa:	00d505b3          	add	a1,a0,a3
    80000fae:	bdf9                	j	80000e8c <memset+0x82>
    80000fb0:	8082                	ret
    80000fb2:	00150593          	addi	a1,a0,1
    80000fb6:	bdd9                	j	80000e8c <memset+0x82>
    char *d = dest;
    80000fb8:	85aa                	mv	a1,a0
    80000fba:	bdc9                	j	80000e8c <memset+0x82>
    80000fbc:	87aa                	mv	a5,a0
    80000fbe:	b705                	j	80000ede <memset+0xd4>
      *d++ = byte;
    80000fc0:	95aa                	add	a1,a1,a0
    80000fc2:	b5e9                	j	80000e8c <memset+0x82>

0000000080000fc4 <_init>:
{
    80000fc4:	7171                	addi	sp,sp,-176
  size_t tdata_size = &_tdata_end - &_tdata_begin;
    80000fc6:	b9018793          	addi	a5,gp,-1136 # 800023d8 <_end>
{
    80000fca:	e54e                	sd	s3,136(sp)
  size_t tdata_size = &_tdata_end - &_tdata_begin;
    80000fcc:	b9018993          	addi	s3,gp,-1136 # 800023d8 <_end>
{
    80000fd0:	e152                	sd	s4,128(sp)
  size_t tdata_size = &_tdata_end - &_tdata_begin;
    80000fd2:	40f98a33          	sub	s4,s3,a5
{
    80000fd6:	03f10693          	addi	a3,sp,63
  memcpy(thread_pointer, &_tdata_begin, tdata_size);
    80000fda:	8652                	mv	a2,s4
{
    80000fdc:	ed26                	sd	s1,152(sp)
    80000fde:	e94a                	sd	s2,144(sp)
    80000fe0:	84aa                	mv	s1,a0
    80000fe2:	892e                	mv	s2,a1
  memcpy(thread_pointer, &_tdata_begin, tdata_size);
    80000fe4:	8512                	mv	a0,tp
    80000fe6:	85be                	mv	a1,a5
{
    80000fe8:	f506                	sd	ra,168(sp)
    80000fea:	f122                	sd	s0,160(sp)
    80000fec:	fcd6                	sd	s5,120(sp)
    80000fee:	fc06f413          	andi	s0,a3,-64
  memcpy(thread_pointer, &_tdata_begin, tdata_size);
    80000ff2:	8a92                	mv	s5,tp
    80000ff4:	d19ff0ef          	jal	80000d0c <memcpy>
  size_t tbss_size = &_tbss_end - &_tdata_end;
    80000ff8:	b9018613          	addi	a2,gp,-1136 # 800023d8 <_end>
  memset(thread_pointer + tdata_size, 0, tbss_size);
    80000ffc:	41360633          	sub	a2,a2,s3
    80001000:	014a8533          	add	a0,s5,s4
    80001004:	4581                	li	a1,0
    80001006:	e05ff0ef          	jal	80000e0a <memset>
  thread_entry(cid, nc);
    8000100a:	85ca                	mv	a1,s2
    8000100c:	8526                	mv	a0,s1
    8000100e:	a9fff0ef          	jal	80000aac <thread_entry>
	*UART_LCR = 0b0000011; // 8-bit characters, 1 stop bit, no parity
    80001012:	100007b7          	lui	a5,0x10000
    80001016:	470d                	li	a4,3
    80001018:	00e781a3          	sb	a4,3(a5) # 10000003 <_start-0x6ffffffd>
  int ret = main(0, 0);
    8000101c:	4581                	li	a1,0
    8000101e:	4501                	li	a0,0
    80001020:	156000ef          	jal	80001176 <main>
    if (counters[i])
    80001024:	b7018913          	addi	s2,gp,-1168 # 800023b8 <counters>
    80001028:	00093683          	ld	a3,0(s2)
    8000102c:	00893a03          	ld	s4,8(s2)
  int ret = main(0, 0);
    80001030:	84aa                	mv	s1,a0
    if (counters[i])
    80001032:	eaa1                	bnez	a3,80001082 <_init+0xbe>
  char* pbuf = buf;
    80001034:	89a2                	mv	s3,s0
    if (counters[i])
    80001036:	040a0363          	beqz	s4,8000107c <_init+0xb8>
      pbuf += sprintf(pbuf, "%s = %d\n", counter_names[i], counters[i]);
    8000103a:	01893603          	ld	a2,24(s2)
    8000103e:	854e                	mv	a0,s3
    80001040:	86d2                	mv	a3,s4
    80001042:	00001597          	auipc	a1,0x1
    80001046:	06658593          	addi	a1,a1,102 # 800020a8 <fromhost+0x68>
    8000104a:	c8fff0ef          	jal	80000cd8 <sprintf>
    8000104e:	99aa                	add	s3,s3,a0
  if (pbuf != buf)
    80001050:	03340663          	beq	s0,s3,8000107c <_init+0xb8>
    while (*str) {
    80001054:	00044603          	lbu	a2,0(s0)
    80001058:	c215                	beqz	a2,8000107c <_init+0xb8>
	while (!(*UART_LSR & (1<<5))); // wait for THRE (trans hold reg empty)
    8000105a:	10000737          	lui	a4,0x10000
    while (*str) {
    8000105e:	86a2                	mv	a3,s0
	while (!(*UART_LSR & (1<<5))); // wait for THRE (trans hold reg empty)
    80001060:	0715                	addi	a4,a4,5 # 10000005 <_start-0x6ffffffb>
    80001062:	100005b7          	lui	a1,0x10000
        uartSend(*str++);
    80001066:	0685                	addi	a3,a3,1
	while (!(*UART_LSR & (1<<5))); // wait for THRE (trans hold reg empty)
    80001068:	00074783          	lbu	a5,0(a4)
    8000106c:	0207f793          	andi	a5,a5,32
    80001070:	dfe5                	beqz	a5,80001068 <_init+0xa4>
	*UART_THR = c;
    80001072:	00c58023          	sb	a2,0(a1) # 10000000 <_start-0x70000000>
    while (*str) {
    80001076:	0006c603          	lbu	a2,0(a3)
    8000107a:	f675                	bnez	a2,80001066 <_init+0xa2>
  tohost_exit(code);
    8000107c:	8526                	mv	a0,s1
    8000107e:	9a5ff0ef          	jal	80000a22 <tohost_exit>
      pbuf += sprintf(pbuf, "%s = %d\n", counter_names[i], counters[i]);
    80001082:	01093603          	ld	a2,16(s2)
    80001086:	00001597          	auipc	a1,0x1
    8000108a:	02258593          	addi	a1,a1,34 # 800020a8 <fromhost+0x68>
    8000108e:	8522                	mv	a0,s0
    80001090:	c49ff0ef          	jal	80000cd8 <sprintf>
    80001094:	00a409b3          	add	s3,s0,a0
    if (counters[i])
    80001098:	fa0a0ce3          	beqz	s4,80001050 <_init+0x8c>
    8000109c:	bf79                	j	8000103a <_init+0x76>

000000008000109e <strlen>:
  while (*p)
    8000109e:	00054783          	lbu	a5,0(a0)
    800010a2:	cb89                	beqz	a5,800010b4 <strlen+0x16>
  const char *p = s;
    800010a4:	87aa                	mv	a5,a0
  while (*p)
    800010a6:	0017c703          	lbu	a4,1(a5)
    p++;
    800010aa:	0785                	addi	a5,a5,1
  while (*p)
    800010ac:	ff6d                	bnez	a4,800010a6 <strlen+0x8>
  return p - s;
    800010ae:	40a78533          	sub	a0,a5,a0
    800010b2:	8082                	ret
  while (*p)
    800010b4:	4501                	li	a0,0
}
    800010b6:	8082                	ret

00000000800010b8 <strnlen>:
  while (n-- && *p)
    800010b8:	00b506b3          	add	a3,a0,a1
  const char *p = s;
    800010bc:	87aa                	mv	a5,a0
  while (n-- && *p)
    800010be:	e589                	bnez	a1,800010c8 <strnlen+0x10>
    800010c0:	a821                	j	800010d8 <strnlen+0x20>
    p++;
    800010c2:	0785                	addi	a5,a5,1
  while (n-- && *p)
    800010c4:	00f68863          	beq	a3,a5,800010d4 <strnlen+0x1c>
    800010c8:	0007c703          	lbu	a4,0(a5)
    800010cc:	fb7d                	bnez	a4,800010c2 <strnlen+0xa>
  return p - s;
    800010ce:	40a78533          	sub	a0,a5,a0
}
    800010d2:	8082                	ret
  return p - s;
    800010d4:	852e                	mv	a0,a1
    800010d6:	8082                	ret
  while (n-- && *p)
    800010d8:	4501                	li	a0,0
    800010da:	8082                	ret

00000000800010dc <strcmp>:
int strcmp(const char* s1, const char* s2)
{
  unsigned char c1, c2;

  do {
    c1 = *s1++;
    800010dc:	00054783          	lbu	a5,0(a0)
    800010e0:	0505                	addi	a0,a0,1
    c2 = *s2++;
    800010e2:	0585                	addi	a1,a1,1
    800010e4:	fff5c703          	lbu	a4,-1(a1)
  } while (c1 != 0 && c1 == c2);
    800010e8:	c799                	beqz	a5,800010f6 <strcmp+0x1a>
    800010ea:	fee789e3          	beq	a5,a4,800010dc <strcmp>

  return c1 - c2;
    800010ee:	0007851b          	sext.w	a0,a5
}
    800010f2:	9d19                	subw	a0,a0,a4
    800010f4:	8082                	ret
    800010f6:	4501                	li	a0,0
    800010f8:	bfed                	j	800010f2 <strcmp+0x16>

00000000800010fa <strcpy>:

char* strcpy(char* dest, const char* src)
{
  char* d = dest;
    800010fa:	87aa                	mv	a5,a0
  while ((*d++ = *src++))
    800010fc:	0005c703          	lbu	a4,0(a1)
    80001100:	0585                	addi	a1,a1,1
    80001102:	0785                	addi	a5,a5,1
    80001104:	fee78fa3          	sb	a4,-1(a5)
    80001108:	fb75                	bnez	a4,800010fc <strcpy+0x2>
    ;
  return dest;
}
    8000110a:	8082                	ret

000000008000110c <atol>:
long atol(const char* str)
{
  long res = 0;
  int sign = 0;

  while (*str == ' ')
    8000110c:	00054683          	lbu	a3,0(a0)
    80001110:	02000713          	li	a4,32
{
    80001114:	87aa                	mv	a5,a0
  while (*str == ' ')
    80001116:	00e69863          	bne	a3,a4,80001126 <atol+0x1a>
    8000111a:	8736                	mv	a4,a3
    8000111c:	0017c683          	lbu	a3,1(a5)
    str++;
    80001120:	0785                	addi	a5,a5,1
  while (*str == ' ')
    80001122:	fee68de3          	beq	a3,a4,8000111c <atol+0x10>

  if (*str == '-' || *str == '+') {
    80001126:	02d00713          	li	a4,45
    8000112a:	02e68f63          	beq	a3,a4,80001168 <atol+0x5c>
    8000112e:	02b00713          	li	a4,43
    80001132:	02e68563          	beq	a3,a4,8000115c <atol+0x50>
  int sign = 0;
    80001136:	4581                	li	a1,0
    sign = *str == '-';
    str++;
  }

  while (*str) {
    80001138:	ce8d                	beqz	a3,80001172 <atol+0x66>
  int sign = 0;
    8000113a:	4501                	li	a0,0
    res *= 10;
    res += *str++ - '0';
    8000113c:	0785                	addi	a5,a5,1
    8000113e:	fd06861b          	addiw	a2,a3,-48
    res *= 10;
    80001142:	00251713          	slli	a4,a0,0x2
  while (*str) {
    80001146:	0007c683          	lbu	a3,0(a5)
    res *= 10;
    8000114a:	972a                	add	a4,a4,a0
    8000114c:	0706                	slli	a4,a4,0x1
    res += *str++ - '0';
    8000114e:	00e60533          	add	a0,a2,a4
  while (*str) {
    80001152:	f6ed                	bnez	a3,8000113c <atol+0x30>
  }

  return sign ? -res : res;
    80001154:	c185                	beqz	a1,80001174 <atol+0x68>
    80001156:	40a00533          	neg	a0,a0
    8000115a:	8082                	ret
  while (*str) {
    8000115c:	0017c683          	lbu	a3,1(a5)
    str++;
    80001160:	0785                	addi	a5,a5,1
  while (*str) {
    80001162:	ca81                	beqz	a3,80001172 <atol+0x66>
    sign = *str == '-';
    80001164:	4581                	li	a1,0
    80001166:	bfd1                	j	8000113a <atol+0x2e>
  while (*str) {
    80001168:	0017c683          	lbu	a3,1(a5)
    sign = *str == '-';
    8000116c:	4585                	li	a1,1
    str++;
    8000116e:	97ae                	add	a5,a5,a1
  while (*str) {
    80001170:	f6e9                	bnez	a3,8000113a <atol+0x2e>
  return sign ? -res : res;
    80001172:	4501                	li	a0,0
}
    80001174:	8082                	ret

Disassembly of section .text.startup:

0000000080001176 <main>:

int main(void) {
    int32_t sin_table[20] = { // in Q1.31 format
    80001176:	87018793          	addi	a5,gp,-1936 # 800020b8 <fromhost+0x78>
    8000117a:	0007bf83          	ld	t6,0(a5)
    8000117e:	0087bf03          	ld	t5,8(a5)
    80001182:	0107be83          	ld	t4,16(a5)
    80001186:	0187be03          	ld	t3,24(a5)
    8000118a:	0207b303          	ld	t1,32(a5)
    8000118e:	0287b883          	ld	a7,40(a5)
    80001192:	0307b803          	ld	a6,48(a5)
    80001196:	7f8c                	ld	a1,56(a5)
    80001198:	63b0                	ld	a2,64(a5)
    8000119a:	67b4                	ld	a3,72(a5)
        0xB4C373EE, // sin(16*2pi/10)
        0x8643C7B3, // sin(17*2pi/10)
        0x8643C7B3, // sin(18*2pi/10)
        0xB4C373EE  // sin(19*2pi/10)
    };  
    int lowpass[4] = {0x20000001, 0x20000002, 0x20000003, 0x20000004}; // 1/4 in Q1.31 format
    8000119c:	00001717          	auipc	a4,0x1
    800011a0:	eac73703          	ld	a4,-340(a4) # 80002048 <fromhost+0x8>
    800011a4:	00001797          	auipc	a5,0x1
    800011a8:	eac7b783          	ld	a5,-340(a5) # 80002050 <fromhost+0x10>
int main(void) {
    800011ac:	7155                	addi	sp,sp,-208
        0x1e6f0e17,
        0xe190f1eb,
        0xb052c0ce,
        0x9d839dc6
    };
    setStats(1);        // record initial mcycle and minstret
    800011ae:	4505                	li	a0,1
int main(void) {
    800011b0:	e586                	sd	ra,200(sp)
    int32_t sin_table[20] = { // in Q1.31 format
    800011b2:	f0fe                	sd	t6,96(sp)
    800011b4:	f4fa                	sd	t5,104(sp)
    800011b6:	f8f6                	sd	t4,112(sp)
    800011b8:	fcf2                	sd	t3,120(sp)
    800011ba:	e11a                	sd	t1,128(sp)
    800011bc:	e546                	sd	a7,136(sp)
    800011be:	e942                	sd	a6,144(sp)
    int lowpass[4] = {0x20000001, 0x20000002, 0x20000003, 0x20000004}; // 1/4 in Q1.31 format
    800011c0:	e83e                	sd	a5,16(sp)
int main(void) {
    800011c2:	e1a2                	sd	s0,192(sp)
    800011c4:	fd26                	sd	s1,184(sp)
    800011c6:	f94a                	sd	s2,176(sp)
    int32_t sin_table[20] = { // in Q1.31 format
    800011c8:	ed2e                	sd	a1,152(sp)
    800011ca:	f132                	sd	a2,160(sp)
    800011cc:	f536                	sd	a3,168(sp)
    int lowpass[4] = {0x20000001, 0x20000002, 0x20000003, 0x20000004}; // 1/4 in Q1.31 format
    800011ce:	e43a                	sd	a4,8(sp)
    setStats(1);        // record initial mcycle and minstret
    800011d0:	819ff0ef          	jal	800009e8 <setStats>
    fir(sin_table, lowpass, y, 20, 4);
    800011d4:	0830                	addi	a2,sp,24
    800011d6:	002c                	addi	a1,sp,8
    800011d8:	1088                	addi	a0,sp,96
    800011da:	4711                	li	a4,4
    800011dc:	46d1                	li	a3,20
    800011de:	ff3fe0ef          	jal	800001d0 <fir>
    setStats(0);        // record elapsed mcycle and minstret
    800011e2:	4501                	li	a0,0
    800011e4:	805ff0ef          	jal	800009e8 <setStats>
    for (int i=0; i<17; i++) {
    800011e8:	0824                	addi	s1,sp,24
    800011ea:	4401                	li	s0,0
    800011ec:	4945                	li	s2,17
        printf("y[%d] = %x\n", i, y[i]);
    800011ee:	4090                	lw	a2,0(s1)
    800011f0:	85a2                	mv	a1,s0
    800011f2:	00001517          	auipc	a0,0x1
    800011f6:	e6650513          	addi	a0,a0,-410 # 80002058 <fromhost+0x18>
    for (int i=0; i<17; i++) {
    800011fa:	2405                	addiw	s0,s0,1
        printf("y[%d] = %x\n", i, y[i]);
    800011fc:	ab7ff0ef          	jal	80000cb2 <printf>
    for (int i=0; i<17; i++) {
    80001200:	0491                	addi	s1,s1,4
    80001202:	ff2416e3          	bne	s0,s2,800011ee <main+0x78>
{
  int i;
  // Unrolled for faster verification
  for (i = 0; i < n/2*2; i+=2)
  {
    int t0 = test[i], t1 = test[i+1];
    80001206:	46e2                	lw	a3,24(sp)
    80001208:	4772                	lw	a4,28(sp)
    int v0 = verify[i], v1 = verify[i+1];
    if (t0 != v0) return i+1;
    8000120a:	4fad47b7          	lui	a5,0x4fad4
    8000120e:	f2f78793          	addi	a5,a5,-209 # 4fad3f2f <_start-0x3052c0d1>
    int t0 = test[i], t1 = test[i+1];
    80001212:	2701                	sext.w	a4,a4
    if (t0 != v0) return i+1;
    80001214:	0ef69a63          	bne	a3,a5,80001308 <main+0x192>
    if (t1 != v1) return i+2;
    80001218:	627c67b7          	lui	a5,0x627c6
    8000121c:	23678793          	addi	a5,a5,566 # 627c6236 <_start-0x1d839dca>
    80001220:	0ef71763          	bne	a4,a5,8000130e <main+0x198>
    int t0 = test[i], t1 = test[i+1];
    80001224:	5682                	lw	a3,32(sp)
    80001226:	5712                	lw	a4,36(sp)
    if (t0 != v0) return i+1;
    80001228:	4fad47b7          	lui	a5,0x4fad4
    8000122c:	f3278793          	addi	a5,a5,-206 # 4fad3f32 <_start-0x3052c0ce>
    int t0 = test[i], t1 = test[i+1];
    80001230:	2701                	sext.w	a4,a4
    if (t0 != v0) return i+1;
    80001232:	0ef69063          	bne	a3,a5,80001312 <main+0x19c>
    if (t1 != v1) return i+2;
    80001236:	1e6f17b7          	lui	a5,0x1e6f1
    8000123a:	e1778793          	addi	a5,a5,-489 # 1e6f0e17 <_start-0x6190f1e9>
    8000123e:	0cf71d63          	bne	a4,a5,80001318 <main+0x1a2>
    int t0 = test[i], t1 = test[i+1];
    80001242:	56a2                	lw	a3,40(sp)
    80001244:	5732                	lw	a4,44(sp)
    if (t0 != v0) return i+1;
    80001246:	e190f7b7          	lui	a5,0xe190f
    8000124a:	1eb78793          	addi	a5,a5,491 # ffffffffe190f1eb <__global_pointer$+0xffffffff6190c9a3>
    int t0 = test[i], t1 = test[i+1];
    8000124e:	2701                	sext.w	a4,a4
    if (t0 != v0) return i+1;
    80001250:	0cf69663          	bne	a3,a5,8000131c <main+0x1a6>
    if (t1 != v1) return i+2;
    80001254:	b052c7b7          	lui	a5,0xb052c
    80001258:	0ce78793          	addi	a5,a5,206 # ffffffffb052c0ce <__global_pointer$+0xffffffff30529886>
    8000125c:	0cf71363          	bne	a4,a5,80001322 <main+0x1ac>
    int t0 = test[i], t1 = test[i+1];
    80001260:	56c2                	lw	a3,48(sp)
    80001262:	5752                	lw	a4,52(sp)
    if (t0 != v0) return i+1;
    80001264:	9d83a7b7          	lui	a5,0x9d83a
    80001268:	dc678793          	addi	a5,a5,-570 # ffffffff9d839dc6 <__global_pointer$+0xffffffff1d83757e>
    int t0 = test[i], t1 = test[i+1];
    8000126c:	2701                	sext.w	a4,a4
    if (t0 != v0) return i+1;
    8000126e:	0af69e63          	bne	a3,a5,8000132a <main+0x1b4>
    if (t1 != v1) return i+2;
    80001272:	b052c7b7          	lui	a5,0xb052c
    80001276:	0cb78793          	addi	a5,a5,203 # ffffffffb052c0cb <__global_pointer$+0xffffffff30529883>
    8000127a:	0af71663          	bne	a4,a5,80001326 <main+0x1b0>
    int t0 = test[i], t1 = test[i+1];
    8000127e:	56e2                	lw	a3,56(sp)
    80001280:	5772                	lw	a4,60(sp)
    if (t0 != v0) return i+1;
    80001282:	e190f7b7          	lui	a5,0xe190f
    80001286:	1e678793          	addi	a5,a5,486 # ffffffffe190f1e6 <__global_pointer$+0xffffffff6190c99e>
    int t0 = test[i], t1 = test[i+1];
    8000128a:	2701                	sext.w	a4,a4
    if (t0 != v0) return i+1;
    8000128c:	0af69463          	bne	a3,a5,80001334 <main+0x1be>
    if (t1 != v1) return i+2;
    80001290:	1e6f17b7          	lui	a5,0x1e6f1
    80001294:	e1278793          	addi	a5,a5,-494 # 1e6f0e12 <_start-0x6190f1ee>
    80001298:	08f71c63          	bne	a4,a5,80001330 <main+0x1ba>
    int t0 = test[i], t1 = test[i+1];
    8000129c:	4686                	lw	a3,64(sp)
    8000129e:	4716                	lw	a4,68(sp)
    if (t0 != v0) return i+1;
    800012a0:	4fad47b7          	lui	a5,0x4fad4
    800012a4:	f2f78793          	addi	a5,a5,-209 # 4fad3f2f <_start-0x3052c0d1>
    int t0 = test[i], t1 = test[i+1];
    800012a8:	2701                	sext.w	a4,a4
    if (t0 != v0) return i+1;
    800012aa:	08f69a63          	bne	a3,a5,8000133e <main+0x1c8>
    if (t1 != v1) return i+2;
    800012ae:	627c67b7          	lui	a5,0x627c6
    800012b2:	23678793          	addi	a5,a5,566 # 627c6236 <_start-0x1d839dca>
    800012b6:	08f71263          	bne	a4,a5,8000133a <main+0x1c4>
    int t0 = test[i], t1 = test[i+1];
    800012ba:	46a6                	lw	a3,72(sp)
    800012bc:	4736                	lw	a4,76(sp)
    if (t0 != v0) return i+1;
    800012be:	4fad47b7          	lui	a5,0x4fad4
    800012c2:	f3278793          	addi	a5,a5,-206 # 4fad3f32 <_start-0x3052c0ce>
    int t0 = test[i], t1 = test[i+1];
    800012c6:	2701                	sext.w	a4,a4
    if (t0 != v0) return i+1;
    800012c8:	08f69063          	bne	a3,a5,80001348 <main+0x1d2>
    if (t1 != v1) return i+2;
    800012cc:	1e6f17b7          	lui	a5,0x1e6f1
    800012d0:	e1778793          	addi	a5,a5,-489 # 1e6f0e17 <_start-0x6190f1e9>
    800012d4:	06f71863          	bne	a4,a5,80001344 <main+0x1ce>
    int t0 = test[i], t1 = test[i+1];
    800012d8:	46c6                	lw	a3,80(sp)
    800012da:	47d6                	lw	a5,84(sp)
    if (t0 != v0) return i+1;
    800012dc:	e190f737          	lui	a4,0xe190f
    800012e0:	1eb70713          	addi	a4,a4,491 # ffffffffe190f1eb <__global_pointer$+0xffffffff6190c9a3>
    int t0 = test[i], t1 = test[i+1];
    800012e4:	2781                	sext.w	a5,a5
    if (t0 != v0) return i+1;
    800012e6:	4539                	li	a0,14
    800012e8:	02e69163          	bne	a3,a4,8000130a <main+0x194>
    if (t1 != v1) return i+2;
    800012ec:	b052c737          	lui	a4,0xb052c
    800012f0:	0ce70713          	addi	a4,a4,206 # ffffffffb052c0ce <__global_pointer$+0xffffffff30529886>
    800012f4:	8f99                	sub	a5,a5,a4
    800012f6:	00f03533          	snez	a0,a5
    800012fa:	0512                	slli	a0,a0,0x4
    }
    return verify(16, y, expected); 
// check the 1 element of s matches expected. 0 means success
}
    800012fc:	60ae                	ld	ra,200(sp)
    800012fe:	640e                	ld	s0,192(sp)
    80001300:	74ea                	ld	s1,184(sp)
    80001302:	794a                	ld	s2,176(sp)
    80001304:	6169                	addi	sp,sp,208
    80001306:	8082                	ret
  for (i = 0; i < n/2*2; i+=2)
    80001308:	4501                	li	a0,0
    if (t0 != v0) return i+1;
    8000130a:	2505                	addiw	a0,a0,1
    8000130c:	bfc5                	j	800012fc <main+0x186>
    if (t1 != v1) return i+2;
    8000130e:	4509                	li	a0,2
    80001310:	b7f5                	j	800012fc <main+0x186>
    80001312:	4509                	li	a0,2
    if (t0 != v0) return i+1;
    80001314:	2505                	addiw	a0,a0,1
    80001316:	b7dd                	j	800012fc <main+0x186>
    if (t1 != v1) return i+2;
    80001318:	4511                	li	a0,4
    8000131a:	b7cd                	j	800012fc <main+0x186>
    8000131c:	4511                	li	a0,4
    if (t0 != v0) return i+1;
    8000131e:	2505                	addiw	a0,a0,1
    80001320:	bff1                	j	800012fc <main+0x186>
    if (t1 != v1) return i+2;
    80001322:	4519                	li	a0,6
    80001324:	bfe1                	j	800012fc <main+0x186>
    80001326:	4521                	li	a0,8
    80001328:	bfd1                	j	800012fc <main+0x186>
    8000132a:	4519                	li	a0,6
    if (t0 != v0) return i+1;
    8000132c:	2505                	addiw	a0,a0,1
    8000132e:	b7f9                	j	800012fc <main+0x186>
    if (t1 != v1) return i+2;
    80001330:	4529                	li	a0,10
    80001332:	b7e9                	j	800012fc <main+0x186>
    80001334:	4521                	li	a0,8
    if (t0 != v0) return i+1;
    80001336:	2505                	addiw	a0,a0,1
    80001338:	b7d1                	j	800012fc <main+0x186>
    if (t1 != v1) return i+2;
    8000133a:	4531                	li	a0,12
    8000133c:	b7c1                	j	800012fc <main+0x186>
    8000133e:	4529                	li	a0,10
    if (t0 != v0) return i+1;
    80001340:	2505                	addiw	a0,a0,1
    80001342:	bf6d                	j	800012fc <main+0x186>
    if (t1 != v1) return i+2;
    80001344:	4539                	li	a0,14
    80001346:	bf5d                	j	800012fc <main+0x186>
    80001348:	4531                	li	a0,12
    if (t0 != v0) return i+1;
    8000134a:	2505                	addiw	a0,a0,1
    8000134c:	bf45                	j	800012fc <main+0x186>
	while (!(*UART_LSR & (1<<5))); // wait for THRE (trans hold reg empty)
    8000134e:	10000737          	lui	a4,0x10000
    80001352:	0715                	addi	a4,a4,5 # 10000005 <_start-0x6ffffffb>
    while (*str) {
    80001354:	04900613          	li	a2,73
    80001358:	00001697          	auipc	a3,0x1
    8000135c:	d3868693          	addi	a3,a3,-712 # 80002090 <fromhost+0x50>
	while (!(*UART_LSR & (1<<5))); // wait for THRE (trans hold reg empty)
    80001360:	100005b7          	lui	a1,0x10000
        uartSend(*str++);
    80001364:	0685                	addi	a3,a3,1
	while (!(*UART_LSR & (1<<5))); // wait for THRE (trans hold reg empty)
    80001366:	00074783          	lbu	a5,0(a4)
    8000136a:	0207f793          	andi	a5,a5,32
    8000136e:	dfe5                	beqz	a5,80001366 <main+0x1f0>
	*UART_THR = c;
    80001370:	00c58023          	sb	a2,0(a1) # 10000000 <_start-0x70000000>
    while (*str) {
    80001374:	0006c603          	lbu	a2,0(a3)
    80001378:	f675                	bnez	a2,80001364 <main+0x1ee>
}
    8000137a:	557d                	li	a0,-1
    8000137c:	8082                	ret

Disassembly of section .tohost:

0000000080002000 <tohost>:
	...

0000000080002040 <fromhost>:
	...
