
fir1:     file format elf64-littleriscv


Disassembly of section .text.init:

0000000080000000 <_start>:
#endif

  .section ".text.init"
  .globl _start
_start:
  li  x1, 0
    80000000:	4081                	li	ra,0
  li  x2, 0
    80000002:	4101                	li	sp,0
  li  x3, 0
    80000004:	4181                	li	gp,0
  li  x4, 0
    80000006:	4201                	li	tp,0
  li  x5, 0
    80000008:	4281                	li	t0,0
  li  x6, 0
    8000000a:	4301                	li	t1,0
  li  x7, 0
    8000000c:	4381                	li	t2,0
  li  x8, 0
    8000000e:	4401                	li	s0,0
  li  x9, 0
    80000010:	4481                	li	s1,0
  li  x10,0
    80000012:	4501                	li	a0,0
  li  x11,0
    80000014:	4581                	li	a1,0
  li  x12,0
    80000016:	4601                	li	a2,0
  li  x13,0
    80000018:	4681                	li	a3,0
  li  x14,0
    8000001a:	4701                	li	a4,0
  li  x15,0
    8000001c:	4781                	li	a5,0
  li  x16,0
    8000001e:	4801                	li	a6,0
  li  x17,0
    80000020:	4881                	li	a7,0
  li  x18,0
    80000022:	4901                	li	s2,0
  li  x19,0
    80000024:	4981                	li	s3,0
  li  x20,0
    80000026:	4a01                	li	s4,0
  li  x21,0
    80000028:	4a81                	li	s5,0
  li  x22,0
    8000002a:	4b01                	li	s6,0
  li  x23,0
    8000002c:	4b81                	li	s7,0
  li  x24,0
    8000002e:	4c01                	li	s8,0
  li  x25,0
    80000030:	4c81                	li	s9,0
  li  x26,0
    80000032:	4d01                	li	s10,0
  li  x27,0
    80000034:	4d81                	li	s11,0
  li  x28,0
    80000036:	4e01                	li	t3,0
  li  x29,0
    80000038:	4e81                	li	t4,0
  li  x30,0
    8000003a:	4f01                	li	t5,0
  li  x31,0
    8000003c:	4f81                	li	t6,0

  # enable FPU and accelerator if present
  li t0, MSTATUS_FS | MSTATUS_XS
    8000003e:	62f9                	lui	t0,0x1e
  csrs mstatus, t0
    80000040:	3002a073          	csrs	mstatus,t0

  # make sure XLEN agrees with compilation choice
  li t0, 1
    80000044:	4285                	li	t0,1
  slli t0, t0, 31
    80000046:	02fe                	slli	t0,t0,0x1f
#if __riscv_xlen == 64
  bgez t0, 1f
    80000048:	0002d863          	bgez	t0,80000058 <_start+0x58>
#else
  bltz t0, 1f
#endif
2:
  li a0, 1
    8000004c:	4505                	li	a0,1
  sw a0, tohost, t0
    8000004e:	00002297          	auipc	t0,0x2
    80000052:	faa2a923          	sw	a0,-78(t0) # 80002000 <tohost>
  j 2b
    80000056:	bfdd                	j	8000004c <_start+0x4c>
1:

#ifdef __riscv_flen
  # initialize FPU if we have one
  la t0, 1f
    80000058:	00000297          	auipc	t0,0x0
    8000005c:	09028293          	addi	t0,t0,144 # 800000e8 <_start+0xe8>
  csrw mtvec, t0
    80000060:	30529073          	csrw	mtvec,t0

  fssr    x0
    80000064:	00301073          	fscsr	zero
  fmv.s.x f0, x0
    80000068:	f0000053          	fmv.w.x	ft0,zero
  fmv.s.x f1, x0
    8000006c:	f00000d3          	fmv.w.x	ft1,zero
  fmv.s.x f2, x0
    80000070:	f0000153          	fmv.w.x	ft2,zero
  fmv.s.x f3, x0
    80000074:	f00001d3          	fmv.w.x	ft3,zero
  fmv.s.x f4, x0
    80000078:	f0000253          	fmv.w.x	ft4,zero
  fmv.s.x f5, x0
    8000007c:	f00002d3          	fmv.w.x	ft5,zero
  fmv.s.x f6, x0
    80000080:	f0000353          	fmv.w.x	ft6,zero
  fmv.s.x f7, x0
    80000084:	f00003d3          	fmv.w.x	ft7,zero
  fmv.s.x f8, x0
    80000088:	f0000453          	fmv.w.x	fs0,zero
  fmv.s.x f9, x0
    8000008c:	f00004d3          	fmv.w.x	fs1,zero
  fmv.s.x f10,x0
    80000090:	f0000553          	fmv.w.x	fa0,zero
  fmv.s.x f11,x0
    80000094:	f00005d3          	fmv.w.x	fa1,zero
  fmv.s.x f12,x0
    80000098:	f0000653          	fmv.w.x	fa2,zero
  fmv.s.x f13,x0
    8000009c:	f00006d3          	fmv.w.x	fa3,zero
  fmv.s.x f14,x0
    800000a0:	f0000753          	fmv.w.x	fa4,zero
  fmv.s.x f15,x0
    800000a4:	f00007d3          	fmv.w.x	fa5,zero
  fmv.s.x f16,x0
    800000a8:	f0000853          	fmv.w.x	fa6,zero
  fmv.s.x f17,x0
    800000ac:	f00008d3          	fmv.w.x	fa7,zero
  fmv.s.x f18,x0
    800000b0:	f0000953          	fmv.w.x	fs2,zero
  fmv.s.x f19,x0
    800000b4:	f00009d3          	fmv.w.x	fs3,zero
  fmv.s.x f20,x0
    800000b8:	f0000a53          	fmv.w.x	fs4,zero
  fmv.s.x f21,x0
    800000bc:	f0000ad3          	fmv.w.x	fs5,zero
  fmv.s.x f22,x0
    800000c0:	f0000b53          	fmv.w.x	fs6,zero
  fmv.s.x f23,x0
    800000c4:	f0000bd3          	fmv.w.x	fs7,zero
  fmv.s.x f24,x0
    800000c8:	f0000c53          	fmv.w.x	fs8,zero
  fmv.s.x f25,x0
    800000cc:	f0000cd3          	fmv.w.x	fs9,zero
  fmv.s.x f26,x0
    800000d0:	f0000d53          	fmv.w.x	fs10,zero
  fmv.s.x f27,x0
    800000d4:	f0000dd3          	fmv.w.x	fs11,zero
  fmv.s.x f28,x0
    800000d8:	f0000e53          	fmv.w.x	ft8,zero
  fmv.s.x f29,x0
    800000dc:	f0000ed3          	fmv.w.x	ft9,zero
  fmv.s.x f30,x0
    800000e0:	f0000f53          	fmv.w.x	ft10,zero
  fmv.s.x f31,x0
    800000e4:	f0000fd3          	fmv.w.x	ft11,zero
1:
#endif

  # initialize trap vector
  la t0, trap_entry
    800000e8:	00000297          	auipc	t0,0x0
    800000ec:	03828293          	addi	t0,t0,56 # 80000120 <trap_entry>
  csrw mtvec, t0
    800000f0:	30529073          	csrw	mtvec,t0

  # initialize global pointer
.option push
.option norelax
  la gp, __global_pointer$
    800000f4:	00002197          	auipc	gp,0x2
    800000f8:	75418193          	addi	gp,gp,1876 # 80002848 <__global_pointer$>
.option pop

  la  tp, _end + 63
    800000fc:	bcf18213          	addi	tp,gp,-1073 # 80002417 <_end+0x3f>
  and tp, tp, -64
    80000100:	fc027213          	andi	tp,tp,-64

  # get core id
  csrr a0, mhartid
    80000104:	f1402573          	csrr	a0,mhartid
  # for now, assume only 1 core
  li a1, 1
    80000108:	4585                	li	a1,1
1:bgeu a0, a1, 1b
    8000010a:	00b57063          	bgeu	a0,a1,8000010a <_start+0x10a>

  # give each core 128KB of stack + TLS
#define STKSHIFT 17
  add sp, a0, 1
    8000010e:	00150113          	addi	sp,a0,1
  sll sp, sp, STKSHIFT
    80000112:	0146                	slli	sp,sp,0x11
  add sp, sp, tp
    80000114:	9112                	add	sp,sp,tp
  sll a2, a0, STKSHIFT
    80000116:	01151613          	slli	a2,a0,0x11
  add tp, tp, a2
    8000011a:	9232                	add	tp,tp,a2

  j _init
    8000011c:	6a90006f          	j	80000fc4 <_init>

0000000080000120 <trap_entry>:

  .align 2
trap_entry:
  addi sp, sp, -272
    80000120:	716d                	addi	sp,sp,-272

  SREG x1, 1*REGBYTES(sp)
    80000122:	e406                	sd	ra,8(sp)
  SREG x2, 2*REGBYTES(sp)
    80000124:	e80a                	sd	sp,16(sp)
  SREG x3, 3*REGBYTES(sp)
    80000126:	ec0e                	sd	gp,24(sp)
  SREG x4, 4*REGBYTES(sp)
    80000128:	f012                	sd	tp,32(sp)
  SREG x5, 5*REGBYTES(sp)
    8000012a:	f416                	sd	t0,40(sp)
  SREG x6, 6*REGBYTES(sp)
    8000012c:	f81a                	sd	t1,48(sp)
  SREG x7, 7*REGBYTES(sp)
    8000012e:	fc1e                	sd	t2,56(sp)
  SREG x8, 8*REGBYTES(sp)
    80000130:	e0a2                	sd	s0,64(sp)
  SREG x9, 9*REGBYTES(sp)
    80000132:	e4a6                	sd	s1,72(sp)
  SREG x10, 10*REGBYTES(sp)
    80000134:	e8aa                	sd	a0,80(sp)
  SREG x11, 11*REGBYTES(sp)
    80000136:	ecae                	sd	a1,88(sp)
  SREG x12, 12*REGBYTES(sp)
    80000138:	f0b2                	sd	a2,96(sp)
  SREG x13, 13*REGBYTES(sp)
    8000013a:	f4b6                	sd	a3,104(sp)
  SREG x14, 14*REGBYTES(sp)
    8000013c:	f8ba                	sd	a4,112(sp)
  SREG x15, 15*REGBYTES(sp)
    8000013e:	fcbe                	sd	a5,120(sp)
  SREG x16, 16*REGBYTES(sp)
    80000140:	e142                	sd	a6,128(sp)
  SREG x17, 17*REGBYTES(sp)
    80000142:	e546                	sd	a7,136(sp)
  SREG x18, 18*REGBYTES(sp)
    80000144:	e94a                	sd	s2,144(sp)
  SREG x19, 19*REGBYTES(sp)
    80000146:	ed4e                	sd	s3,152(sp)
  SREG x20, 20*REGBYTES(sp)
    80000148:	f152                	sd	s4,160(sp)
  SREG x21, 21*REGBYTES(sp)
    8000014a:	f556                	sd	s5,168(sp)
  SREG x22, 22*REGBYTES(sp)
    8000014c:	f95a                	sd	s6,176(sp)
  SREG x23, 23*REGBYTES(sp)
    8000014e:	fd5e                	sd	s7,184(sp)
  SREG x24, 24*REGBYTES(sp)
    80000150:	e1e2                	sd	s8,192(sp)
  SREG x25, 25*REGBYTES(sp)
    80000152:	e5e6                	sd	s9,200(sp)
  SREG x26, 26*REGBYTES(sp)
    80000154:	e9ea                	sd	s10,208(sp)
  SREG x27, 27*REGBYTES(sp)
    80000156:	edee                	sd	s11,216(sp)
  SREG x28, 28*REGBYTES(sp)
    80000158:	f1f2                	sd	t3,224(sp)
  SREG x29, 29*REGBYTES(sp)
    8000015a:	f5f6                	sd	t4,232(sp)
  SREG x30, 30*REGBYTES(sp)
    8000015c:	f9fa                	sd	t5,240(sp)
  SREG x31, 31*REGBYTES(sp)
    8000015e:	fdfe                	sd	t6,248(sp)

  csrr a0, mcause
    80000160:	34202573          	csrr	a0,mcause
  csrr a1, mepc
    80000164:	341025f3          	csrr	a1,mepc
  mv a2, sp
    80000168:	860a                	mv	a2,sp
  jal handle_trap
    8000016a:	0cb000ef          	jal	80000a34 <handle_trap>
  csrw mepc, a0
    8000016e:	34151073          	csrw	mepc,a0

  # Remain in M-mode after eret
  li t0, MSTATUS_MPP
    80000172:	6289                	lui	t0,0x2
    80000174:	8002829b          	addiw	t0,t0,-2048 # 1800 <_start-0x7fffe800>
  csrs mstatus, t0
    80000178:	3002a073          	csrs	mstatus,t0

  LREG x1, 1*REGBYTES(sp)
    8000017c:	60a2                	ld	ra,8(sp)
  LREG x2, 2*REGBYTES(sp)
    8000017e:	6142                	ld	sp,16(sp)
  LREG x3, 3*REGBYTES(sp)
    80000180:	61e2                	ld	gp,24(sp)
  LREG x4, 4*REGBYTES(sp)
    80000182:	7202                	ld	tp,32(sp)
  LREG x5, 5*REGBYTES(sp)
    80000184:	72a2                	ld	t0,40(sp)
  LREG x6, 6*REGBYTES(sp)
    80000186:	7342                	ld	t1,48(sp)
  LREG x7, 7*REGBYTES(sp)
    80000188:	73e2                	ld	t2,56(sp)
  LREG x8, 8*REGBYTES(sp)
    8000018a:	6406                	ld	s0,64(sp)
  LREG x9, 9*REGBYTES(sp)
    8000018c:	64a6                	ld	s1,72(sp)
  LREG x10, 10*REGBYTES(sp)
    8000018e:	6546                	ld	a0,80(sp)
  LREG x11, 11*REGBYTES(sp)
    80000190:	65e6                	ld	a1,88(sp)
  LREG x12, 12*REGBYTES(sp)
    80000192:	7606                	ld	a2,96(sp)
  LREG x13, 13*REGBYTES(sp)
    80000194:	76a6                	ld	a3,104(sp)
  LREG x14, 14*REGBYTES(sp)
    80000196:	7746                	ld	a4,112(sp)
  LREG x15, 15*REGBYTES(sp)
    80000198:	77e6                	ld	a5,120(sp)
  LREG x16, 16*REGBYTES(sp)
    8000019a:	680a                	ld	a6,128(sp)
  LREG x17, 17*REGBYTES(sp)
    8000019c:	68aa                	ld	a7,136(sp)
  LREG x18, 18*REGBYTES(sp)
    8000019e:	694a                	ld	s2,144(sp)
  LREG x19, 19*REGBYTES(sp)
    800001a0:	69ea                	ld	s3,152(sp)
  LREG x20, 20*REGBYTES(sp)
    800001a2:	7a0a                	ld	s4,160(sp)
  LREG x21, 21*REGBYTES(sp)
    800001a4:	7aaa                	ld	s5,168(sp)
  LREG x22, 22*REGBYTES(sp)
    800001a6:	7b4a                	ld	s6,176(sp)
  LREG x23, 23*REGBYTES(sp)
    800001a8:	7bea                	ld	s7,184(sp)
  LREG x24, 24*REGBYTES(sp)
    800001aa:	6c0e                	ld	s8,192(sp)
  LREG x25, 25*REGBYTES(sp)
    800001ac:	6cae                	ld	s9,200(sp)
  LREG x26, 26*REGBYTES(sp)
    800001ae:	6d4e                	ld	s10,208(sp)
  LREG x27, 27*REGBYTES(sp)
    800001b0:	6dee                	ld	s11,216(sp)
  LREG x28, 28*REGBYTES(sp)
    800001b2:	7e0e                	ld	t3,224(sp)
  LREG x29, 29*REGBYTES(sp)
    800001b4:	7eae                	ld	t4,232(sp)
  LREG x30, 30*REGBYTES(sp)
    800001b6:	7f4e                	ld	t5,240(sp)
  LREG x31, 31*REGBYTES(sp)
    800001b8:	7fee                	ld	t6,248(sp)

  addi sp, sp, 272
    800001ba:	6151                	addi	sp,sp,272
  mret
    800001bc:	30200073          	mret
	...

Disassembly of section .text:

00000000800001c2 <add_q31>:

// Add two Q1.31 fixed point numbers
 int add_q31(int a, int b) {
 long int result = (long)a + (long)b;
 return result;
 }
    800001c2:	9d2d                	addw	a0,a0,a1
    800001c4:	8082                	ret

00000000800001c6 <mul_q31>:

 // Multiplly two Q1.31 fixed point numbers
 int mul_q31(int a, int b) {
   long res = (long)a * (long)b;
    800001c6:	02b50533          	mul	a0,a0,a1
     int result = res >> 31; // shift right to get the 32-bit result; 
    800001ca:	857d                	srai	a0,a0,0x1f
         //this is equivalent to shifting left by 1 and discarding the bottom 32 bits
     //printf("mul_q31: a = %x, b = %x, res = %lx, result = %x\n", a, b, res, result);
     return result; 
 }
    800001cc:	2501                	sext.w	a0,a0
    800001ce:	8082                	ret

00000000800001d0 <fir>:
 // n is the length of x, m is the length of c
 // y[i] = c[0]*x[i] + c[1]*x[i+1] + ... + c[m-1]*x[i+m-1]
 // inputs in Q1.31 format
 void fir(int x[], int c[], int y[], int n, int m) {
     int i, j;
     for (j=0; j<n-m+1; j++) {
    800001d0:	40e68ebb          	subw	t4,a3,a4
    800001d4:	040ecd63          	bltz	t4,8000022e <fir+0x5e>
    800001d8:	fff7079b          	addiw	a5,a4,-1
    800001dc:	078a                	slli	a5,a5,0x2
    800001de:	00271893          	slli	a7,a4,0x2
    800001e2:	2e85                	addiw	t4,t4,1
    800001e4:	00f50333          	add	t1,a0,a5
    800001e8:	98ae                	add	a7,a7,a1
    800001ea:	4e01                	li	t3,0
         y[j] = 0;
    800001ec:	00062023          	sw	zero,0(a2)
         for (i=0; i<m; i++) 
    800001f0:	00e04f63          	bgtz	a4,8000020e <fir+0x3e>
     for (j=0; j<n-m+1; j++) {
    800001f4:	2e05                	addiw	t3,t3,1
    800001f6:	0611                	addi	a2,a2,4
    800001f8:	0311                	addi	t1,t1,4
    800001fa:	ffce99e3          	bne	t4,t3,800001ec <fir+0x1c>
    800001fe:	8082                	ret
    80000200:	2e05                	addiw	t3,t3,1
    80000202:	0611                	addi	a2,a2,4
    80000204:	0311                	addi	t1,t1,4
    80000206:	03ce8463          	beq	t4,t3,8000022e <fir+0x5e>
         y[j] = 0;
    8000020a:	00062023          	sw	zero,0(a2)
     for (j=0; j<n-m+1; j++) {
    8000020e:	851a                	mv	a0,t1
    80000210:	872e                	mv	a4,a1
    80000212:	4681                	li	a3,0
   long res = (long)a * (long)b;
    80000214:	431c                	lw	a5,0(a4)
    80000216:	00052803          	lw	a6,0(a0)
         for (i=0; i<m; i++) 
    8000021a:	0711                	addi	a4,a4,4
    8000021c:	1571                	addi	a0,a0,-4
   long res = (long)a * (long)b;
    8000021e:	030787b3          	mul	a5,a5,a6
     int result = res >> 31; // shift right to get the 32-bit result; 
    80000222:	87fd                	srai	a5,a5,0x1f
 return result;
    80000224:	9ebd                	addw	a3,a3,a5
             y[j] = add_q31(y[j], mul_q31(c[i], x[j-i+(m-1)]));
    80000226:	c214                	sw	a3,0(a2)
         for (i=0; i<m; i++) 
    80000228:	fee896e3          	bne	a7,a4,80000214 <fir+0x44>
    8000022c:	bfd1                	j	80000200 <fir+0x30>
     }
 }
    8000022e:	8082                	ret

0000000080000230 <putchar>:

void uartSend(char c) {
  volatile uint8_t *UART_THR = (uint8_t*)0x10000000;
  volatile uint8_t *UART_LSR = (uint8_t*)0x10000005;

	while (!(*UART_LSR & (1<<5))); // wait for THRE (trans hold reg empty)
    80000230:	10000737          	lui	a4,0x10000
#undef putchar
int putchar(int ch)
{
  // David_Harris@hmc.edu 11/30/2024
  // Replaced syscall with uartSend
  uartSend(ch);
    80000234:	0ff57513          	zext.b	a0,a0
	while (!(*UART_LSR & (1<<5))); // wait for THRE (trans hold reg empty)
    80000238:	0715                	addi	a4,a4,5 # 10000005 <_start-0x6ffffffb>
    8000023a:	100006b7          	lui	a3,0x10000
    8000023e:	00074783          	lbu	a5,0(a4)
    80000242:	0207f793          	andi	a5,a5,32
    80000246:	dfe5                	beqz	a5,8000023e <putchar+0xe>
	*UART_THR = c;
    80000248:	00a68023          	sb	a0,0(a3) # 10000000 <_start-0x70000000>
    syscall(SYS_write, 1, (uintptr_t)buf, buflen);
    buflen = 0;
  } */

  return 0;
}
    8000024c:	4501                	li	a0,0
    8000024e:	8082                	ret

0000000080000250 <sprintf_putch.0>:
  va_start(ap, fmt);

  void sprintf_putch(int ch, void** data)
  {
    char** pstr = (char**)data;
    **pstr = ch;
    80000250:	619c                	ld	a5,0(a1)
    80000252:	00a78023          	sb	a0,0(a5)
    (*pstr)++;
    80000256:	619c                	ld	a5,0(a1)
    80000258:	0785                	addi	a5,a5,1
    8000025a:	e19c                	sd	a5,0(a1)
  }
    8000025c:	8082                	ret

000000008000025e <vprintfmt.constprop.1>:
static void vprintfmt(void (*putch)(int, void**), void **putdat, const char *fmt, va_list ap)
    8000025e:	716d                	addi	sp,sp,-272
    while ((ch = *(unsigned char *) fmt) != '%') {
    80000260:	02500313          	li	t1,37
    switch (ch = *(unsigned char *) fmt++) {
    80000264:	05500e93          	li	t4,85
    80000268:	8c018e13          	addi	t3,gp,-1856 # 80002108 <fromhost+0xc8>
    8000026c:	a809                	j	8000027e <vprintfmt.constprop.1+0x20>
      if (ch == '\0')
    8000026e:	c729                	beqz	a4,800002b8 <vprintfmt.constprop.1+0x5a>
    **pstr = ch;
    80000270:	6118                	ld	a4,0(a0)
      fmt++;
    80000272:	0585                	addi	a1,a1,1
    **pstr = ch;
    80000274:	00f70023          	sb	a5,0(a4)
    (*pstr)++;
    80000278:	611c                	ld	a5,0(a0)
    8000027a:	0785                	addi	a5,a5,1
    8000027c:	e11c                	sd	a5,0(a0)
    while ((ch = *(unsigned char *) fmt) != '%') {
    8000027e:	0005c783          	lbu	a5,0(a1)
    80000282:	0007871b          	sext.w	a4,a5
    80000286:	fe6794e3          	bne	a5,t1,8000026e <vprintfmt.constprop.1+0x10>
    switch (ch = *(unsigned char *) fmt++) {
    8000028a:	0015c803          	lbu	a6,1(a1)
    fmt++;
    8000028e:	00158893          	addi	a7,a1,1
    precision = -1;
    80000292:	577d                	li	a4,-1
    fmt++;
    80000294:	86c6                	mv	a3,a7
    width = -1;
    80000296:	8fba                	mv	t6,a4
    padc = ' ';
    80000298:	02000293          	li	t0,32
    lflag = 0;
    8000029c:	4f01                	li	t5,0
    switch (ch = *(unsigned char *) fmt++) {
    8000029e:	fdd8079b          	addiw	a5,a6,-35
    800002a2:	0ff7f793          	zext.b	a5,a5
    800002a6:	00168593          	addi	a1,a3,1
    800002aa:	02fee563          	bltu	t4,a5,800002d4 <vprintfmt.constprop.1+0x76>
    800002ae:	078a                	slli	a5,a5,0x2
    800002b0:	97f2                	add	a5,a5,t3
    800002b2:	439c                	lw	a5,0(a5)
    800002b4:	97f2                	add	a5,a5,t3
    800002b6:	8782                	jr	a5
}
    800002b8:	6151                	addi	sp,sp,272
    800002ba:	8082                	ret
      padc = '0';
    800002bc:	82c2                	mv	t0,a6
      goto reswitch;
    800002be:	0016c803          	lbu	a6,1(a3)
    switch (ch = *(unsigned char *) fmt++) {
    800002c2:	86ae                	mv	a3,a1
    800002c4:	00168593          	addi	a1,a3,1
    800002c8:	fdd8079b          	addiw	a5,a6,-35
    800002cc:	0ff7f793          	zext.b	a5,a5
    800002d0:	fcfeffe3          	bgeu	t4,a5,800002ae <vprintfmt.constprop.1+0x50>
    **pstr = ch;
    800002d4:	611c                	ld	a5,0(a0)
    800002d6:	02500713          	li	a4,37
      fmt = last_fmt;
    800002da:	85c6                	mv	a1,a7
    **pstr = ch;
    800002dc:	00e78023          	sb	a4,0(a5)
    (*pstr)++;
    800002e0:	611c                	ld	a5,0(a0)
    800002e2:	0785                	addi	a5,a5,1
    800002e4:	e11c                	sd	a5,0(a0)
  }
    800002e6:	bf61                	j	8000027e <vprintfmt.constprop.1+0x20>
    800002e8:	e622                	sd	s0,264(sp)
        precision = precision * 10 + ch - '0';
    800002ea:	fd08071b          	addiw	a4,a6,-48
        ch = *fmt;
    800002ee:	0016c803          	lbu	a6,1(a3)
        if (ch < '0' || ch > '9')
    800002f2:	4425                	li	s0,9
    switch (ch = *(unsigned char *) fmt++) {
    800002f4:	86ae                	mv	a3,a1
        if (ch < '0' || ch > '9')
    800002f6:	fd08079b          	addiw	a5,a6,-48
        ch = *fmt;
    800002fa:	0008039b          	sext.w	t2,a6
        if (ch < '0' || ch > '9')
    800002fe:	02f46463          	bltu	s0,a5,80000326 <vprintfmt.constprop.1+0xc8>
        precision = precision * 10 + ch - '0';
    80000302:	0027179b          	slliw	a5,a4,0x2
        ch = *fmt;
    80000306:	0016c803          	lbu	a6,1(a3)
        precision = precision * 10 + ch - '0';
    8000030a:	9fb9                	addw	a5,a5,a4
    8000030c:	0017979b          	slliw	a5,a5,0x1
    80000310:	007787bb          	addw	a5,a5,t2
        if (ch < '0' || ch > '9')
    80000314:	fd08059b          	addiw	a1,a6,-48
      for (precision = 0; ; ++fmt) {
    80000318:	0685                	addi	a3,a3,1
        precision = precision * 10 + ch - '0';
    8000031a:	fd07871b          	addiw	a4,a5,-48
        ch = *fmt;
    8000031e:	0008039b          	sext.w	t2,a6
        if (ch < '0' || ch > '9')
    80000322:	feb470e3          	bgeu	s0,a1,80000302 <vprintfmt.constprop.1+0xa4>
    switch (ch = *(unsigned char *) fmt++) {
    80000326:	6432                	ld	s0,264(sp)
      if (width < 0)
    80000328:	f60fdbe3          	bgez	t6,8000029e <vprintfmt.constprop.1+0x40>
        width = precision, precision = -1;
    8000032c:	8fba                	mv	t6,a4
    8000032e:	577d                	li	a4,-1
    80000330:	b7bd                	j	8000029e <vprintfmt.constprop.1+0x40>
        ch = *fmt;
    80000332:	0016c803          	lbu	a6,1(a3)
    switch (ch = *(unsigned char *) fmt++) {
    80000336:	86ae                	mv	a3,a1
      goto reswitch;
    80000338:	b79d                	j	8000029e <vprintfmt.constprop.1+0x40>
    **pstr = ch;
    8000033a:	611c                	ld	a5,0(a0)
    8000033c:	02500713          	li	a4,37
    80000340:	00e78023          	sb	a4,0(a5)
    (*pstr)++;
    80000344:	611c                	ld	a5,0(a0)
    80000346:	0785                	addi	a5,a5,1
    80000348:	e11c                	sd	a5,0(a0)
  }
    8000034a:	bf15                	j	8000027e <vprintfmt.constprop.1+0x20>
        ch = *fmt;
    8000034c:	0016c803          	lbu	a6,1(a3)
      precision = va_arg(ap, int);
    80000350:	4218                	lw	a4,0(a2)
    switch (ch = *(unsigned char *) fmt++) {
    80000352:	86ae                	mv	a3,a1
      precision = va_arg(ap, int);
    80000354:	0621                	addi	a2,a2,8
      goto process_precision;
    80000356:	bfc9                	j	80000328 <vprintfmt.constprop.1+0xca>
    **pstr = ch;
    80000358:	611c                	ld	a5,0(a0)
    8000035a:	03000693          	li	a3,48
    8000035e:	07800713          	li	a4,120
    80000362:	00d78023          	sb	a3,0(a5)
    (*pstr)++;
    80000366:	611c                	ld	a5,0(a0)
    80000368:	4841                	li	a6,16
    8000036a:	00860693          	addi	a3,a2,8
    8000036e:	00178893          	addi	a7,a5,1
    80000372:	01153023          	sd	a7,0(a0)
    **pstr = ch;
    80000376:	00e780a3          	sb	a4,1(a5)
    (*pstr)++;
    8000037a:	611c                	ld	a5,0(a0)
    8000037c:	0785                	addi	a5,a5,1
    8000037e:	e11c                	sd	a5,0(a0)
    return va_arg(*ap, unsigned long);
    80000380:	6218                	ld	a4,0(a2)
    80000382:	8636                	mv	a2,a3
    digs[pos++] = num % base;
    80000384:	03077f33          	remu	t5,a4,a6
    80000388:	00410893          	addi	a7,sp,4
    8000038c:	4685                	li	a3,1
    8000038e:	c07a                	sw	t5,0(sp)
    if (num < base)
    80000390:	1b076c63          	bltu	a4,a6,80000548 <vprintfmt.constprop.1+0x2ea>
    num /= base;
    80000394:	03075733          	divu	a4,a4,a6
    digs[pos++] = num % base;
    80000398:	83b6                	mv	t2,a3
    if (num < base)
    8000039a:	0891                	addi	a7,a7,4
    digs[pos++] = num % base;
    8000039c:	2685                	addiw	a3,a3,1
    8000039e:	03077f33          	remu	t5,a4,a6
    800003a2:	ffe8ae23          	sw	t5,-4(a7)
    if (num < base)
    800003a6:	ff0777e3          	bgeu	a4,a6,80000394 <vprintfmt.constprop.1+0x136>
  while (width-- > pos)
    800003aa:	ffff871b          	addiw	a4,t6,-1
    800003ae:	fff6881b          	addiw	a6,a3,-1
    800003b2:	01f6da63          	bge	a3,t6,800003c6 <vprintfmt.constprop.1+0x168>
    **pstr = ch;
    800003b6:	00578023          	sb	t0,0(a5)
    (*pstr)++;
    800003ba:	611c                	ld	a5,0(a0)
  while (width-- > pos)
    800003bc:	377d                	addiw	a4,a4,-1
    (*pstr)++;
    800003be:	0785                	addi	a5,a5,1
    800003c0:	e11c                	sd	a5,0(a0)
  while (width-- > pos)
    800003c2:	fee81ae3          	bne	a6,a4,800003b6 <vprintfmt.constprop.1+0x158>
  while (pos-- > 0)
    800003c6:	038a                	slli	t2,t2,0x2
    800003c8:	007106b3          	add	a3,sp,t2
    800003cc:	ffc10893          	addi	a7,sp,-4
    putch(digs[pos] + (digs[pos] >= 10 ? 'a' - 10 : '0'), putdat);
    800003d0:	4825                	li	a6,9
    800003d2:	a819                	j	800003e8 <vprintfmt.constprop.1+0x18a>
    800003d4:	0577071b          	addiw	a4,a4,87
    **pstr = ch;
    800003d8:	00e78023          	sb	a4,0(a5)
    (*pstr)++;
    800003dc:	611c                	ld	a5,0(a0)
  while (pos-- > 0)
    800003de:	16f1                	addi	a3,a3,-4
    (*pstr)++;
    800003e0:	0785                	addi	a5,a5,1
    800003e2:	e11c                	sd	a5,0(a0)
  while (pos-- > 0)
    800003e4:	e8d88de3          	beq	a7,a3,8000027e <vprintfmt.constprop.1+0x20>
    putch(digs[pos] + (digs[pos] >= 10 ? 'a' - 10 : '0'), putdat);
    800003e8:	4298                	lw	a4,0(a3)
    800003ea:	fee865e3          	bltu	a6,a4,800003d4 <vprintfmt.constprop.1+0x176>
    800003ee:	0307071b          	addiw	a4,a4,48
    800003f2:	b7dd                	j	800003d8 <vprintfmt.constprop.1+0x17a>
  if (lflag >= 2)
    800003f4:	4785                	li	a5,1
      precision = va_arg(ap, int);
    800003f6:	00860693          	addi	a3,a2,8
  if (lflag >= 2)
    800003fa:	01e7c463          	blt	a5,t5,80000402 <vprintfmt.constprop.1+0x1a4>
  else if (lflag)
    800003fe:	140f0763          	beqz	t5,8000054c <vprintfmt.constprop.1+0x2ee>
    return va_arg(*ap, long);
    80000402:	6218                	ld	a4,0(a2)
    **pstr = ch;
    80000404:	611c                	ld	a5,0(a0)
      if ((long long) num < 0) {
    80000406:	14074963          	bltz	a4,80000558 <vprintfmt.constprop.1+0x2fa>
      num = getint(&ap, lflag);
    8000040a:	8636                	mv	a2,a3
    8000040c:	4829                	li	a6,10
    8000040e:	bf9d                	j	80000384 <vprintfmt.constprop.1+0x126>
        ch = *fmt;
    80000410:	0016c803          	lbu	a6,1(a3)
      lflag++;
    80000414:	2f05                	addiw	t5,t5,1
    switch (ch = *(unsigned char *) fmt++) {
    80000416:	86ae                	mv	a3,a1
      goto reswitch;
    80000418:	b559                	j	8000029e <vprintfmt.constprop.1+0x40>
    switch (ch = *(unsigned char *) fmt++) {
    8000041a:	4841                	li	a6,16
  if (lflag >= 2)
    8000041c:	4705                	li	a4,1
    **pstr = ch;
    8000041e:	611c                	ld	a5,0(a0)
      precision = va_arg(ap, int);
    80000420:	00860693          	addi	a3,a2,8
  if (lflag >= 2)
    80000424:	f5e74ee3          	blt	a4,t5,80000380 <vprintfmt.constprop.1+0x122>
  else if (lflag)
    80000428:	f40f1ce3          	bnez	t5,80000380 <vprintfmt.constprop.1+0x122>
    return va_arg(*ap, unsigned int);
    8000042c:	00066703          	lwu	a4,0(a2)
    80000430:	8636                	mv	a2,a3
    80000432:	bf89                	j	80000384 <vprintfmt.constprop.1+0x126>
      if ((p = va_arg(ap, char *)) == NULL)
    80000434:	6214                	ld	a3,0(a2)
    80000436:	ca99                	beqz	a3,8000044c <vprintfmt.constprop.1+0x1ee>
      if (width > 0 && padc != '-')
    80000438:	07f05663          	blez	t6,800004a4 <vprintfmt.constprop.1+0x246>
    8000043c:	02d00793          	li	a5,45
    80000440:	02f29863          	bne	t0,a5,80000470 <vprintfmt.constprop.1+0x212>
      for (; (ch = *p) != '\0' && (precision < 0 || --precision >= 0); width--) {
    80000444:	0006c783          	lbu	a5,0(a3)
    80000448:	e3ad                	bnez	a5,800004aa <vprintfmt.constprop.1+0x24c>
    8000044a:	a879                	j	800004e8 <vprintfmt.constprop.1+0x28a>
        p = "(null)";
    8000044c:	00002697          	auipc	a3,0x2
    80000450:	c1c68693          	addi	a3,a3,-996 # 80002068 <fromhost+0x28>
      for (; (ch = *p) != '\0' && (precision < 0 || --precision >= 0); width--) {
    80000454:	02800793          	li	a5,40
      if (width > 0 && padc != '-')
    80000458:	05f05963          	blez	t6,800004aa <vprintfmt.constprop.1+0x24c>
    8000045c:	02d00813          	li	a6,45
        p = "(null)";
    80000460:	00002697          	auipc	a3,0x2
    80000464:	c0868693          	addi	a3,a3,-1016 # 80002068 <fromhost+0x28>
      for (; (ch = *p) != '\0' && (precision < 0 || --precision >= 0); width--) {
    80000468:	02800793          	li	a5,40
      if (width > 0 && padc != '-')
    8000046c:	03028f63          	beq	t0,a6,800004aa <vprintfmt.constprop.1+0x24c>
  return p - s;
}

size_t strnlen(const char *s, size_t n)
{
  const char *p = s;
    80000470:	87b6                	mv	a5,a3
  while (n-- && *p)
    80000472:	00e688b3          	add	a7,a3,a4
    80000476:	e709                	bnez	a4,80000480 <vprintfmt.constprop.1+0x222>
    80000478:	a829                	j	80000492 <vprintfmt.constprop.1+0x234>
    p++;
    8000047a:	0785                	addi	a5,a5,1
  while (n-- && *p)
    8000047c:	01178663          	beq	a5,a7,80000488 <vprintfmt.constprop.1+0x22a>
    80000480:	0007c803          	lbu	a6,0(a5)
    80000484:	fe081be3          	bnez	a6,8000047a <vprintfmt.constprop.1+0x21c>
  return p - s;
    80000488:	8f95                	sub	a5,a5,a3
        for (width -= strnlen(p, precision); width > 0; width--)
    8000048a:	40ff8fbb          	subw	t6,t6,a5
    8000048e:	01f05b63          	blez	t6,800004a4 <vprintfmt.constprop.1+0x246>
    **pstr = ch;
    80000492:	611c                	ld	a5,0(a0)
    80000494:	00578023          	sb	t0,0(a5)
    (*pstr)++;
    80000498:	611c                	ld	a5,0(a0)
        for (width -= strnlen(p, precision); width > 0; width--)
    8000049a:	3ffd                	addiw	t6,t6,-1
    (*pstr)++;
    8000049c:	0785                	addi	a5,a5,1
    8000049e:	e11c                	sd	a5,0(a0)
        for (width -= strnlen(p, precision); width > 0; width--)
    800004a0:	fe0f9ae3          	bnez	t6,80000494 <vprintfmt.constprop.1+0x236>
      for (; (ch = *p) != '\0' && (precision < 0 || --precision >= 0); width--) {
    800004a4:	0006c783          	lbu	a5,0(a3)
    800004a8:	cbb9                	beqz	a5,800004fe <vprintfmt.constprop.1+0x2a0>
    800004aa:	58fd                	li	a7,-1
    800004ac:	04075b63          	bgez	a4,80000502 <vprintfmt.constprop.1+0x2a4>
    **pstr = ch;
    800004b0:	6118                	ld	a4,0(a0)
        p++;
    800004b2:	00168813          	addi	a6,a3,1
      for (; (ch = *p) != '\0' && (precision < 0 || --precision >= 0); width--) {
    800004b6:	3ffd                	addiw	t6,t6,-1
    **pstr = ch;
    800004b8:	00f70023          	sb	a5,0(a4)
    (*pstr)++;
    800004bc:	611c                	ld	a5,0(a0)
    800004be:	8742                	mv	a4,a6
    800004c0:	0785                	addi	a5,a5,1
    800004c2:	e11c                	sd	a5,0(a0)
      for (; (ch = *p) != '\0' && (precision < 0 || --precision >= 0); width--) {
    800004c4:	0016c683          	lbu	a3,1(a3)
    800004c8:	ce91                	beqz	a3,800004e4 <vprintfmt.constprop.1+0x286>
    **pstr = ch;
    800004ca:	00d78023          	sb	a3,0(a5)
    (*pstr)++;
    800004ce:	611c                	ld	a5,0(a0)
        p++;
    800004d0:	0705                	addi	a4,a4,1
    (*pstr)++;
    800004d2:	0785                	addi	a5,a5,1
    800004d4:	e11c                	sd	a5,0(a0)
      for (; (ch = *p) != '\0' && (precision < 0 || --precision >= 0); width--) {
    800004d6:	00074683          	lbu	a3,0(a4)
    800004da:	fae5                	bnez	a3,800004ca <vprintfmt.constprop.1+0x26c>
    800004dc:	40e8083b          	subw	a6,a6,a4
    800004e0:	01f80fbb          	addw	t6,a6,t6
      for (; width > 0; width--)
    800004e4:	01f05d63          	blez	t6,800004fe <vprintfmt.constprop.1+0x2a0>
    **pstr = ch;
    800004e8:	611c                	ld	a5,0(a0)
    800004ea:	02000713          	li	a4,32
    800004ee:	00e78023          	sb	a4,0(a5)
    (*pstr)++;
    800004f2:	611c                	ld	a5,0(a0)
      for (; width > 0; width--)
    800004f4:	3ffd                	addiw	t6,t6,-1
    (*pstr)++;
    800004f6:	0785                	addi	a5,a5,1
    800004f8:	e11c                	sd	a5,0(a0)
      for (; width > 0; width--)
    800004fa:	fe0f9ae3          	bnez	t6,800004ee <vprintfmt.constprop.1+0x290>
      if ((p = va_arg(ap, char *)) == NULL)
    800004fe:	0621                	addi	a2,a2,8
    while ((ch = *(unsigned char *) fmt) != '%') {
    80000500:	bbbd                	j	8000027e <vprintfmt.constprop.1+0x20>
      for (; (ch = *p) != '\0' && (precision < 0 || --precision >= 0); width--) {
    80000502:	377d                	addiw	a4,a4,-1
    80000504:	ff1700e3          	beq	a4,a7,800004e4 <vprintfmt.constprop.1+0x286>
    **pstr = ch;
    80000508:	00053803          	ld	a6,0(a0)
        p++;
    8000050c:	0685                	addi	a3,a3,1
      for (; (ch = *p) != '\0' && (precision < 0 || --precision >= 0); width--) {
    8000050e:	3ffd                	addiw	t6,t6,-1
    **pstr = ch;
    80000510:	00f80023          	sb	a5,0(a6)
    (*pstr)++;
    80000514:	611c                	ld	a5,0(a0)
    80000516:	0785                	addi	a5,a5,1
    80000518:	e11c                	sd	a5,0(a0)
      for (; (ch = *p) != '\0' && (precision < 0 || --precision >= 0); width--) {
    8000051a:	0006c783          	lbu	a5,0(a3)
    8000051e:	f3f5                	bnez	a5,80000502 <vprintfmt.constprop.1+0x2a4>
    80000520:	b7d1                	j	800004e4 <vprintfmt.constprop.1+0x286>
      if (width < 0)
    80000522:	87fe                	mv	a5,t6
    80000524:	000fd363          	bgez	t6,8000052a <vprintfmt.constprop.1+0x2cc>
    80000528:	4781                	li	a5,0
        ch = *fmt;
    8000052a:	0016c803          	lbu	a6,1(a3)
      if (width < 0)
    8000052e:	00078f9b          	sext.w	t6,a5
    switch (ch = *(unsigned char *) fmt++) {
    80000532:	86ae                	mv	a3,a1
      goto reswitch;
    80000534:	b3ad                	j	8000029e <vprintfmt.constprop.1+0x40>
    **pstr = ch;
    80000536:	611c                	ld	a5,0(a0)
    80000538:	4218                	lw	a4,0(a2)
      putch(va_arg(ap, int), putdat);
    8000053a:	0621                	addi	a2,a2,8
    **pstr = ch;
    8000053c:	00e78023          	sb	a4,0(a5)
    (*pstr)++;
    80000540:	611c                	ld	a5,0(a0)
    80000542:	0785                	addi	a5,a5,1
    80000544:	e11c                	sd	a5,0(a0)
  }
    80000546:	bb25                	j	8000027e <vprintfmt.constprop.1+0x20>
    if (num < base)
    80000548:	4381                	li	t2,0
    8000054a:	b585                	j	800003aa <vprintfmt.constprop.1+0x14c>
    return va_arg(*ap, int);
    8000054c:	4218                	lw	a4,0(a2)
    8000054e:	bd5d                	j	80000404 <vprintfmt.constprop.1+0x1a6>
    switch (ch = *(unsigned char *) fmt++) {
    80000550:	4829                	li	a6,10
    80000552:	b5e9                	j	8000041c <vprintfmt.constprop.1+0x1be>
    80000554:	4821                	li	a6,8
    80000556:	b5d9                	j	8000041c <vprintfmt.constprop.1+0x1be>
    **pstr = ch;
    80000558:	02d00613          	li	a2,45
    8000055c:	00c78023          	sb	a2,0(a5)
    (*pstr)++;
    80000560:	611c                	ld	a5,0(a0)
        num = -(long long) num;
    80000562:	40e00733          	neg	a4,a4
    80000566:	8636                	mv	a2,a3
    (*pstr)++;
    80000568:	0785                	addi	a5,a5,1
    8000056a:	e11c                	sd	a5,0(a0)
        num = -(long long) num;
    8000056c:	4829                	li	a6,10
    8000056e:	bd19                	j	80000384 <vprintfmt.constprop.1+0x126>

0000000080000570 <vprintfmt.constprop.0>:
	while (!(*UART_LSR & (1<<5))); // wait for THRE (trans hold reg empty)
    80000570:	10000737          	lui	a4,0x10000
    80000574:	0715                	addi	a4,a4,5 # 10000005 <_start-0x6ffffffb>
    while ((ch = *(unsigned char *) fmt) != '%') {
    80000576:	02500813          	li	a6,37
	while (!(*UART_LSR & (1<<5))); // wait for THRE (trans hold reg empty)
    8000057a:	100008b7          	lui	a7,0x10000
    switch (ch = *(unsigned char *) fmt++) {
    8000057e:	05500e13          	li	t3,85
    80000582:	a1818313          	addi	t1,gp,-1512 # 80002260 <fromhost+0x220>
    while ((ch = *(unsigned char *) fmt) != '%') {
    80000586:	00054683          	lbu	a3,0(a0)
    8000058a:	0006879b          	sext.w	a5,a3
    8000058e:	03068163          	beq	a3,a6,800005b0 <vprintfmt.constprop.0+0x40>
      if (ch == '\0')
    80000592:	cbf1                	beqz	a5,80000666 <vprintfmt.constprop.0+0xf6>
      fmt++;
    80000594:	0505                	addi	a0,a0,1
	while (!(*UART_LSR & (1<<5))); // wait for THRE (trans hold reg empty)
    80000596:	00074783          	lbu	a5,0(a4)
    8000059a:	0207f793          	andi	a5,a5,32
    8000059e:	dfe5                	beqz	a5,80000596 <vprintfmt.constprop.0+0x26>
	*UART_THR = c;
    800005a0:	00d88023          	sb	a3,0(a7) # 10000000 <_start-0x70000000>
    while ((ch = *(unsigned char *) fmt) != '%') {
    800005a4:	00054683          	lbu	a3,0(a0)
    800005a8:	0006879b          	sext.w	a5,a3
    800005ac:	ff0693e3          	bne	a3,a6,80000592 <vprintfmt.constprop.0+0x22>
    switch (ch = *(unsigned char *) fmt++) {
    800005b0:	00154e83          	lbu	t4,1(a0)
    fmt++;
    800005b4:	00150f13          	addi	t5,a0,1
    precision = -1;
    800005b8:	56fd                	li	a3,-1
    switch (ch = *(unsigned char *) fmt++) {
    800005ba:	fdde879b          	addiw	a5,t4,-35
    800005be:	0ff7f793          	zext.b	a5,a5
    fmt++;
    800005c2:	867a                	mv	a2,t5
    width = -1;
    800005c4:	8fb6                	mv	t6,a3
    padc = ' ';
    800005c6:	02000293          	li	t0,32
    lflag = 0;
    800005ca:	4381                	li	t2,0
    switch (ch = *(unsigned char *) fmt++) {
    800005cc:	001f0513          	addi	a0,t5,1
    800005d0:	08fe6063          	bltu	t3,a5,80000650 <vprintfmt.constprop.0+0xe0>
static void vprintfmt(void (*putch)(int, void**), void **putdat, const char *fmt, va_list ap)
    800005d4:	716d                	addi	sp,sp,-272
    800005d6:	e622                	sd	s0,264(sp)
    switch (ch = *(unsigned char *) fmt++) {
    800005d8:	078a                	slli	a5,a5,0x2
    800005da:	979a                	add	a5,a5,t1
    800005dc:	439c                	lw	a5,0(a5)
    800005de:	979a                	add	a5,a5,t1
    800005e0:	8782                	jr	a5
      padc = '0';
    800005e2:	82f6                	mv	t0,t4
      goto reswitch;
    800005e4:	00164e83          	lbu	t4,1(a2)
    switch (ch = *(unsigned char *) fmt++) {
    800005e8:	862a                	mv	a2,a0
    800005ea:	fdde879b          	addiw	a5,t4,-35
    800005ee:	0ff7f793          	zext.b	a5,a5
    800005f2:	00160513          	addi	a0,a2,1
    800005f6:	fefe71e3          	bgeu	t3,a5,800005d8 <vprintfmt.constprop.0+0x68>
	while (!(*UART_LSR & (1<<5))); // wait for THRE (trans hold reg empty)
    800005fa:	00074783          	lbu	a5,0(a4)
    800005fe:	0207f793          	andi	a5,a5,32
    80000602:	dfe5                	beqz	a5,800005fa <vprintfmt.constprop.0+0x8a>
	*UART_THR = c;
    80000604:	02500793          	li	a5,37
      fmt = last_fmt;
    80000608:	857a                	mv	a0,t5
	*UART_THR = c;
    8000060a:	00f88023          	sb	a5,0(a7)
    while ((ch = *(unsigned char *) fmt) != '%') {
    8000060e:	00054683          	lbu	a3,0(a0)
    80000612:	0006879b          	sext.w	a5,a3
    80000616:	03068263          	beq	a3,a6,8000063a <vprintfmt.constprop.0+0xca>
      if (ch == '\0')
    8000061a:	28078d63          	beqz	a5,800008b4 <vprintfmt.constprop.0+0x344>
      fmt++;
    8000061e:	0505                	addi	a0,a0,1
	while (!(*UART_LSR & (1<<5))); // wait for THRE (trans hold reg empty)
    80000620:	00074783          	lbu	a5,0(a4)
    80000624:	0207f793          	andi	a5,a5,32
    80000628:	dfe5                	beqz	a5,80000620 <vprintfmt.constprop.0+0xb0>
	*UART_THR = c;
    8000062a:	00d88023          	sb	a3,0(a7)
    while ((ch = *(unsigned char *) fmt) != '%') {
    8000062e:	00054683          	lbu	a3,0(a0)
    80000632:	0006879b          	sext.w	a5,a3
    80000636:	ff0692e3          	bne	a3,a6,8000061a <vprintfmt.constprop.0+0xaa>
    fmt++;
    8000063a:	00150f13          	addi	t5,a0,1
    precision = -1;
    8000063e:	56fd                	li	a3,-1
    switch (ch = *(unsigned char *) fmt++) {
    80000640:	00154e83          	lbu	t4,1(a0)
    fmt++;
    80000644:	867a                	mv	a2,t5
    width = -1;
    80000646:	8fb6                	mv	t6,a3
    padc = ' ';
    80000648:	02000293          	li	t0,32
    lflag = 0;
    8000064c:	4381                	li	t2,0
    8000064e:	bf71                	j	800005ea <vprintfmt.constprop.0+0x7a>
	while (!(*UART_LSR & (1<<5))); // wait for THRE (trans hold reg empty)
    80000650:	00074783          	lbu	a5,0(a4)
    80000654:	0207f793          	andi	a5,a5,32
    80000658:	dfe5                	beqz	a5,80000650 <vprintfmt.constprop.0+0xe0>
	*UART_THR = c;
    8000065a:	02500793          	li	a5,37
      fmt = last_fmt;
    8000065e:	857a                	mv	a0,t5
	*UART_THR = c;
    80000660:	00f88023          	sb	a5,0(a7)
      break;
    80000664:	b70d                	j	80000586 <vprintfmt.constprop.0+0x16>
    80000666:	8082                	ret
    80000668:	e226                	sd	s1,256(sp)
        precision = precision * 10 + ch - '0';
    8000066a:	fd0e869b          	addiw	a3,t4,-48
        ch = *fmt;
    8000066e:	00164e83          	lbu	t4,1(a2)
        if (ch < '0' || ch > '9')
    80000672:	44a5                	li	s1,9
    switch (ch = *(unsigned char *) fmt++) {
    80000674:	862a                	mv	a2,a0
        if (ch < '0' || ch > '9')
    80000676:	fd0e879b          	addiw	a5,t4,-48
        ch = *fmt;
    8000067a:	000e841b          	sext.w	s0,t4
        if (ch < '0' || ch > '9')
    8000067e:	02f4e363          	bltu	s1,a5,800006a4 <vprintfmt.constprop.0+0x134>
        precision = precision * 10 + ch - '0';
    80000682:	0026979b          	slliw	a5,a3,0x2
        ch = *fmt;
    80000686:	00164e83          	lbu	t4,1(a2)
        precision = precision * 10 + ch - '0';
    8000068a:	9fb5                	addw	a5,a5,a3
    8000068c:	0017979b          	slliw	a5,a5,0x1
    80000690:	9fa1                	addw	a5,a5,s0
        if (ch < '0' || ch > '9')
    80000692:	fd0e851b          	addiw	a0,t4,-48
      for (precision = 0; ; ++fmt) {
    80000696:	0605                	addi	a2,a2,1
        precision = precision * 10 + ch - '0';
    80000698:	fd07869b          	addiw	a3,a5,-48
        ch = *fmt;
    8000069c:	000e841b          	sext.w	s0,t4
        if (ch < '0' || ch > '9')
    800006a0:	fea4f1e3          	bgeu	s1,a0,80000682 <vprintfmt.constprop.0+0x112>
    switch (ch = *(unsigned char *) fmt++) {
    800006a4:	6492                	ld	s1,256(sp)
      if (width < 0)
    800006a6:	f40fd2e3          	bgez	t6,800005ea <vprintfmt.constprop.0+0x7a>
        width = precision, precision = -1;
    800006aa:	8fb6                	mv	t6,a3
    800006ac:	56fd                	li	a3,-1
    800006ae:	bf35                	j	800005ea <vprintfmt.constprop.0+0x7a>
        ch = *fmt;
    800006b0:	00164e83          	lbu	t4,1(a2)
    switch (ch = *(unsigned char *) fmt++) {
    800006b4:	862a                	mv	a2,a0
      goto reswitch;
    800006b6:	bf15                	j	800005ea <vprintfmt.constprop.0+0x7a>
        ch = *fmt;
    800006b8:	00164e83          	lbu	t4,1(a2)
      precision = va_arg(ap, int);
    800006bc:	4194                	lw	a3,0(a1)
    switch (ch = *(unsigned char *) fmt++) {
    800006be:	862a                	mv	a2,a0
      precision = va_arg(ap, int);
    800006c0:	05a1                	addi	a1,a1,8
      goto process_precision;
    800006c2:	b7d5                	j	800006a6 <vprintfmt.constprop.0+0x136>
      if (width < 0)
    800006c4:	87fe                	mv	a5,t6
    800006c6:	000fd363          	bgez	t6,800006cc <vprintfmt.constprop.0+0x15c>
    800006ca:	4781                	li	a5,0
        ch = *fmt;
    800006cc:	00164e83          	lbu	t4,1(a2)
      if (width < 0)
    800006d0:	00078f9b          	sext.w	t6,a5
    switch (ch = *(unsigned char *) fmt++) {
    800006d4:	862a                	mv	a2,a0
      goto reswitch;
    800006d6:	bf11                	j	800005ea <vprintfmt.constprop.0+0x7a>
    switch (ch = *(unsigned char *) fmt++) {
    800006d8:	46c1                	li	a3,16
  if (lflag >= 2)
    800006da:	4785                	li	a5,1
      precision = va_arg(ap, int);
    800006dc:	00858613          	addi	a2,a1,8
  if (lflag >= 2)
    800006e0:	2077cc63          	blt	a5,t2,800008f8 <vprintfmt.constprop.0+0x388>
  else if (lflag)
    800006e4:	20039a63          	bnez	t2,800008f8 <vprintfmt.constprop.0+0x388>
    return va_arg(*ap, unsigned int);
    800006e8:	0005e783          	lwu	a5,0(a1)
    800006ec:	85b2                	mv	a1,a2
    digs[pos++] = num % base;
    800006ee:	02d7ff33          	remu	t5,a5,a3
    800006f2:	00410e93          	addi	t4,sp,4
    800006f6:	4605                	li	a2,1
    800006f8:	c07a                	sw	t5,0(sp)
    if (num < base)
    800006fa:	24d7ed63          	bltu	a5,a3,80000954 <vprintfmt.constprop.0+0x3e4>
    num /= base;
    800006fe:	02d7d7b3          	divu	a5,a5,a3
    digs[pos++] = num % base;
    80000702:	83b2                	mv	t2,a2
    if (num < base)
    80000704:	0e91                	addi	t4,t4,4
    digs[pos++] = num % base;
    80000706:	2605                	addiw	a2,a2,1
    80000708:	02d7ff33          	remu	t5,a5,a3
    8000070c:	ffeeae23          	sw	t5,-4(t4)
    if (num < base)
    80000710:	fed7f7e3          	bgeu	a5,a3,800006fe <vprintfmt.constprop.0+0x18e>
	while (!(*UART_LSR & (1<<5))); // wait for THRE (trans hold reg empty)
    80000714:	100006b7          	lui	a3,0x10000
    80000718:	0695                	addi	a3,a3,5 # 10000005 <_start-0x6ffffffb>
  while (width-- > pos)
    8000071a:	ffff8e9b          	addiw	t4,t6,-1
    8000071e:	fff6041b          	addiw	s0,a2,-1
	while (!(*UART_LSR & (1<<5))); // wait for THRE (trans hold reg empty)
    80000722:	10000f37          	lui	t5,0x10000
  while (width-- > pos)
    80000726:	01f65c63          	bge	a2,t6,8000073e <vprintfmt.constprop.0+0x1ce>
	while (!(*UART_LSR & (1<<5))); // wait for THRE (trans hold reg empty)
    8000072a:	0006c783          	lbu	a5,0(a3)
    8000072e:	0207f793          	andi	a5,a5,32
    80000732:	dfe5                	beqz	a5,8000072a <vprintfmt.constprop.0+0x1ba>
	*UART_THR = c;
    80000734:	005f0023          	sb	t0,0(t5) # 10000000 <_start-0x70000000>
  while (width-- > pos)
    80000738:	3efd                	addiw	t4,t4,-1
    8000073a:	fe8e98e3          	bne	t4,s0,8000072a <vprintfmt.constprop.0+0x1ba>
  while (pos-- > 0)
    8000073e:	038a                	slli	t2,t2,0x2
	while (!(*UART_LSR & (1<<5))); // wait for THRE (trans hold reg empty)
    80000740:	100006b7          	lui	a3,0x10000
    80000744:	00710eb3          	add	t4,sp,t2
    80000748:	0695                	addi	a3,a3,5 # 10000005 <_start-0x6ffffffb>
    8000074a:	ffc10293          	addi	t0,sp,-4
    putch(digs[pos] + (digs[pos] >= 10 ? 'a' - 10 : '0'), putdat);
    8000074e:	4fa5                	li	t6,9
	while (!(*UART_LSR & (1<<5))); // wait for THRE (trans hold reg empty)
    80000750:	10000f37          	lui	t5,0x10000
    putch(digs[pos] + (digs[pos] >= 10 ? 'a' - 10 : '0'), putdat);
    80000754:	000ea783          	lw	a5,0(t4)
    80000758:	03000613          	li	a2,48
    8000075c:	00fff463          	bgeu	t6,a5,80000764 <vprintfmt.constprop.0+0x1f4>
    80000760:	05700613          	li	a2,87
    80000764:	9fb1                	addw	a5,a5,a2
  uartSend(ch);
    80000766:	0ff7f613          	zext.b	a2,a5
	while (!(*UART_LSR & (1<<5))); // wait for THRE (trans hold reg empty)
    8000076a:	0006c783          	lbu	a5,0(a3)
    8000076e:	0207f793          	andi	a5,a5,32
    80000772:	dfe5                	beqz	a5,8000076a <vprintfmt.constprop.0+0x1fa>
	*UART_THR = c;
    80000774:	00cf0023          	sb	a2,0(t5) # 10000000 <_start-0x70000000>
  while (pos-- > 0)
    80000778:	1ef1                	addi	t4,t4,-4
    8000077a:	fdd29de3          	bne	t0,t4,80000754 <vprintfmt.constprop.0+0x1e4>
    8000077e:	bd41                	j	8000060e <vprintfmt.constprop.0+0x9e>
      if ((p = va_arg(ap, char *)) == NULL)
    80000780:	0005bf03          	ld	t5,0(a1)
    80000784:	000f0d63          	beqz	t5,8000079e <vprintfmt.constprop.0+0x22e>
      if (width > 0 && padc != '-')
    80000788:	07f05e63          	blez	t6,80000804 <vprintfmt.constprop.0+0x294>
    8000078c:	02d00793          	li	a5,45
    80000790:	02f29963          	bne	t0,a5,800007c2 <vprintfmt.constprop.0+0x252>
      for (; (ch = *p) != '\0' && (precision < 0 || --precision >= 0); width--) {
    80000794:	000f4e83          	lbu	t4,0(t5)
    80000798:	060e9a63          	bnez	t4,8000080c <vprintfmt.constprop.0+0x29c>
    8000079c:	aa49                	j	8000092e <vprintfmt.constprop.0+0x3be>
        p = "(null)";
    8000079e:	00002f17          	auipc	t5,0x2
    800007a2:	8caf0f13          	addi	t5,t5,-1846 # 80002068 <fromhost+0x28>
      for (; (ch = *p) != '\0' && (precision < 0 || --precision >= 0); width--) {
    800007a6:	02800e93          	li	t4,40
      if (width > 0 && padc != '-')
    800007aa:	07f05163          	blez	t6,8000080c <vprintfmt.constprop.0+0x29c>
    800007ae:	02d00793          	li	a5,45
        p = "(null)";
    800007b2:	00002f17          	auipc	t5,0x2
    800007b6:	8b6f0f13          	addi	t5,t5,-1866 # 80002068 <fromhost+0x28>
      for (; (ch = *p) != '\0' && (precision < 0 || --precision >= 0); width--) {
    800007ba:	02800e93          	li	t4,40
      if (width > 0 && padc != '-')
    800007be:	04f28763          	beq	t0,a5,8000080c <vprintfmt.constprop.0+0x29c>
  const char *p = s;
    800007c2:	87fa                	mv	a5,t5
  while (n-- && *p)
    800007c4:	00df0633          	add	a2,t5,a3
    800007c8:	e689                	bnez	a3,800007d2 <vprintfmt.constprop.0+0x262>
    800007ca:	a831                	j	800007e6 <vprintfmt.constprop.0+0x276>
    p++;
    800007cc:	0785                	addi	a5,a5,1
  while (n-- && *p)
    800007ce:	00c78663          	beq	a5,a2,800007da <vprintfmt.constprop.0+0x26a>
    800007d2:	0007ce83          	lbu	t4,0(a5)
    800007d6:	fe0e9be3          	bnez	t4,800007cc <vprintfmt.constprop.0+0x25c>
  return p - s;
    800007da:	41e787b3          	sub	a5,a5,t5
        for (width -= strnlen(p, precision); width > 0; width--)
    800007de:	40ff8fbb          	subw	t6,t6,a5
    800007e2:	03f05163          	blez	t6,80000804 <vprintfmt.constprop.0+0x294>
	while (!(*UART_LSR & (1<<5))); // wait for THRE (trans hold reg empty)
    800007e6:	10000637          	lui	a2,0x10000
    800007ea:	0615                	addi	a2,a2,5 # 10000005 <_start-0x6ffffffb>
    800007ec:	10000eb7          	lui	t4,0x10000
    800007f0:	00064783          	lbu	a5,0(a2)
    800007f4:	0207f793          	andi	a5,a5,32
    800007f8:	dfe5                	beqz	a5,800007f0 <vprintfmt.constprop.0+0x280>
	*UART_THR = c;
    800007fa:	005e8023          	sb	t0,0(t4) # 10000000 <_start-0x70000000>
        for (width -= strnlen(p, precision); width > 0; width--)
    800007fe:	3ffd                	addiw	t6,t6,-1
    80000800:	fe0f98e3          	bnez	t6,800007f0 <vprintfmt.constprop.0+0x280>
      for (; (ch = *p) != '\0' && (precision < 0 || --precision >= 0); width--) {
    80000804:	000f4e83          	lbu	t4,0(t5)
    80000808:	140e8463          	beqz	t4,80000950 <vprintfmt.constprop.0+0x3e0>
	while (!(*UART_LSR & (1<<5))); // wait for THRE (trans hold reg empty)
    8000080c:	10000637          	lui	a2,0x10000
    80000810:	0615                	addi	a2,a2,5 # 10000005 <_start-0x6ffffffb>
      for (; (ch = *p) != '\0' && (precision < 0 || --precision >= 0); width--) {
    80000812:	547d                	li	s0,-1
	while (!(*UART_LSR & (1<<5))); // wait for THRE (trans hold reg empty)
    80000814:	100003b7          	lui	t2,0x10000
      for (; (ch = *p) != '\0' && (precision < 0 || --precision >= 0); width--) {
    80000818:	0206c863          	bltz	a3,80000848 <vprintfmt.constprop.0+0x2d8>
    8000081c:	fff6829b          	addiw	t0,a3,-1
    80000820:	10828563          	beq	t0,s0,8000092a <vprintfmt.constprop.0+0x3ba>
	while (!(*UART_LSR & (1<<5))); // wait for THRE (trans hold reg empty)
    80000824:	00064783          	lbu	a5,0(a2)
    80000828:	0207f793          	andi	a5,a5,32
    8000082c:	dfe5                	beqz	a5,80000824 <vprintfmt.constprop.0+0x2b4>
	*UART_THR = c;
    8000082e:	01d38023          	sb	t4,0(t2) # 10000000 <_start-0x70000000>
      for (; (ch = *p) != '\0' && (precision < 0 || --precision >= 0); width--) {
    80000832:	001f4e83          	lbu	t4,1(t5)
        p++;
    80000836:	0f05                	addi	t5,t5,1
      for (; (ch = *p) != '\0' && (precision < 0 || --precision >= 0); width--) {
    80000838:	3ffd                	addiw	t6,t6,-1
    8000083a:	0e0e8863          	beqz	t4,8000092a <vprintfmt.constprop.0+0x3ba>
    8000083e:	0c06c063          	bltz	a3,800008fe <vprintfmt.constprop.0+0x38e>
    80000842:	8696                	mv	a3,t0
    80000844:	fc06dce3          	bgez	a3,8000081c <vprintfmt.constprop.0+0x2ac>
    80000848:	82b6                	mv	t0,a3
    8000084a:	bfe9                	j	80000824 <vprintfmt.constprop.0+0x2b4>
        ch = *fmt;
    8000084c:	00164e83          	lbu	t4,1(a2)
      lflag++;
    80000850:	2385                	addiw	t2,t2,1
    switch (ch = *(unsigned char *) fmt++) {
    80000852:	862a                	mv	a2,a0
      goto reswitch;
    80000854:	bb59                	j	800005ea <vprintfmt.constprop.0+0x7a>
  if (lflag >= 2)
    80000856:	4785                	li	a5,1
      precision = va_arg(ap, int);
    80000858:	00858e93          	addi	t4,a1,8
  if (lflag >= 2)
    8000085c:	0077c463          	blt	a5,t2,80000864 <vprintfmt.constprop.0+0x2f4>
  else if (lflag)
    80000860:	0e038c63          	beqz	t2,80000958 <vprintfmt.constprop.0+0x3e8>
    return va_arg(*ap, long);
    80000864:	619c                	ld	a5,0(a1)
      num = getint(&ap, lflag);
    80000866:	85f6                	mv	a1,t4
    80000868:	46a9                	li	a3,10
      if ((long long) num < 0) {
    8000086a:	e807d2e3          	bgez	a5,800006ee <vprintfmt.constprop.0+0x17e>
	while (!(*UART_LSR & (1<<5))); // wait for THRE (trans hold reg empty)
    8000086e:	10000637          	lui	a2,0x10000
    80000872:	0615                	addi	a2,a2,5 # 10000005 <_start-0x6ffffffb>
    80000874:	10000f37          	lui	t5,0x10000
    80000878:	00064683          	lbu	a3,0(a2)
    8000087c:	0206f693          	andi	a3,a3,32
    80000880:	dee5                	beqz	a3,80000878 <vprintfmt.constprop.0+0x308>
	*UART_THR = c;
    80000882:	02d00693          	li	a3,45
    80000886:	00df0023          	sb	a3,0(t5) # 10000000 <_start-0x70000000>
        num = -(long long) num;
    8000088a:	40f007b3          	neg	a5,a5
    8000088e:	85f6                	mv	a1,t4
    80000890:	46a9                	li	a3,10
    80000892:	bdb1                	j	800006ee <vprintfmt.constprop.0+0x17e>
	while (!(*UART_LSR & (1<<5))); // wait for THRE (trans hold reg empty)
    80000894:	100006b7          	lui	a3,0x10000
  uartSend(ch);
    80000898:	0005ce83          	lbu	t4,0(a1)
	while (!(*UART_LSR & (1<<5))); // wait for THRE (trans hold reg empty)
    8000089c:	0695                	addi	a3,a3,5 # 10000005 <_start-0x6ffffffb>
      putch(va_arg(ap, int), putdat);
    8000089e:	05a1                	addi	a1,a1,8
	while (!(*UART_LSR & (1<<5))); // wait for THRE (trans hold reg empty)
    800008a0:	10000637          	lui	a2,0x10000
    800008a4:	0006c783          	lbu	a5,0(a3)
    800008a8:	0207f793          	andi	a5,a5,32
    800008ac:	dfe5                	beqz	a5,800008a4 <vprintfmt.constprop.0+0x334>
	*UART_THR = c;
    800008ae:	01d60023          	sb	t4,0(a2) # 10000000 <_start-0x70000000>
  return 0;
    800008b2:	bbb1                	j	8000060e <vprintfmt.constprop.0+0x9e>
}
    800008b4:	6432                	ld	s0,264(sp)
    800008b6:	6151                	addi	sp,sp,272
    800008b8:	8082                	ret
	while (!(*UART_LSR & (1<<5))); // wait for THRE (trans hold reg empty)
    800008ba:	100006b7          	lui	a3,0x10000
    800008be:	0695                	addi	a3,a3,5 # 10000005 <_start-0x6ffffffb>
    800008c0:	10000637          	lui	a2,0x10000
    800008c4:	0006c783          	lbu	a5,0(a3)
    800008c8:	0207f793          	andi	a5,a5,32
    800008cc:	dfe5                	beqz	a5,800008c4 <vprintfmt.constprop.0+0x354>
	*UART_THR = c;
    800008ce:	03000793          	li	a5,48
	while (!(*UART_LSR & (1<<5))); // wait for THRE (trans hold reg empty)
    800008d2:	100006b7          	lui	a3,0x10000
	*UART_THR = c;
    800008d6:	00f60023          	sb	a5,0(a2) # 10000000 <_start-0x70000000>
	while (!(*UART_LSR & (1<<5))); // wait for THRE (trans hold reg empty)
    800008da:	0695                	addi	a3,a3,5 # 10000005 <_start-0x6ffffffb>
    800008dc:	10000637          	lui	a2,0x10000
    800008e0:	0006c783          	lbu	a5,0(a3)
    800008e4:	0207f793          	andi	a5,a5,32
    800008e8:	dfe5                	beqz	a5,800008e0 <vprintfmt.constprop.0+0x370>
	*UART_THR = c;
    800008ea:	07800793          	li	a5,120
    800008ee:	00f60023          	sb	a5,0(a2) # 10000000 <_start-0x70000000>
    800008f2:	46c1                	li	a3,16
    800008f4:	00858613          	addi	a2,a1,8
    return va_arg(*ap, unsigned long);
    800008f8:	619c                	ld	a5,0(a1)
    800008fa:	85b2                	mv	a1,a2
    800008fc:	bbcd                	j	800006ee <vprintfmt.constprop.0+0x17e>
	while (!(*UART_LSR & (1<<5))); // wait for THRE (trans hold reg empty)
    800008fe:	100006b7          	lui	a3,0x10000
    80000902:	0695                	addi	a3,a3,5 # 10000005 <_start-0x6ffffffb>
      for (; (ch = *p) != '\0' && (precision < 0 || --precision >= 0); width--) {
    80000904:	867a                	mv	a2,t5
	while (!(*UART_LSR & (1<<5))); // wait for THRE (trans hold reg empty)
    80000906:	100002b7          	lui	t0,0x10000
    8000090a:	0006c783          	lbu	a5,0(a3)
    8000090e:	0207f793          	andi	a5,a5,32
    80000912:	dfe5                	beqz	a5,8000090a <vprintfmt.constprop.0+0x39a>
	*UART_THR = c;
    80000914:	01d28023          	sb	t4,0(t0) # 10000000 <_start-0x70000000>
      for (; (ch = *p) != '\0' && (precision < 0 || --precision >= 0); width--) {
    80000918:	00164e83          	lbu	t4,1(a2)
        p++;
    8000091c:	0605                	addi	a2,a2,1
      for (; (ch = *p) != '\0' && (precision < 0 || --precision >= 0); width--) {
    8000091e:	fe0e96e3          	bnez	t4,8000090a <vprintfmt.constprop.0+0x39a>
    80000922:	01ff0f3b          	addw	t5,t5,t6
    80000926:	40cf0fbb          	subw	t6,t5,a2
      for (; width > 0; width--)
    8000092a:	03f05363          	blez	t6,80000950 <vprintfmt.constprop.0+0x3e0>
	while (!(*UART_LSR & (1<<5))); // wait for THRE (trans hold reg empty)
    8000092e:	100006b7          	lui	a3,0x10000
    80000932:	0695                	addi	a3,a3,5 # 10000005 <_start-0x6ffffffb>
    80000934:	10000eb7          	lui	t4,0x10000
	*UART_THR = c;
    80000938:	02000613          	li	a2,32
	while (!(*UART_LSR & (1<<5))); // wait for THRE (trans hold reg empty)
    8000093c:	0006c783          	lbu	a5,0(a3)
    80000940:	0207f793          	andi	a5,a5,32
    80000944:	dfe5                	beqz	a5,8000093c <vprintfmt.constprop.0+0x3cc>
	*UART_THR = c;
    80000946:	00ce8023          	sb	a2,0(t4) # 10000000 <_start-0x70000000>
      for (; width > 0; width--)
    8000094a:	3ffd                	addiw	t6,t6,-1
    8000094c:	fe0f98e3          	bnez	t6,8000093c <vprintfmt.constprop.0+0x3cc>
      if ((p = va_arg(ap, char *)) == NULL)
    80000950:	05a1                	addi	a1,a1,8
    while ((ch = *(unsigned char *) fmt) != '%') {
    80000952:	b975                	j	8000060e <vprintfmt.constprop.0+0x9e>
    if (num < base)
    80000954:	4381                	li	t2,0
    80000956:	bb7d                	j	80000714 <vprintfmt.constprop.0+0x1a4>
    return va_arg(*ap, int);
    80000958:	419c                	lw	a5,0(a1)
    8000095a:	b731                	j	80000866 <vprintfmt.constprop.0+0x2f6>
    switch (ch = *(unsigned char *) fmt++) {
    8000095c:	46a9                	li	a3,10
    8000095e:	bbb5                	j	800006da <vprintfmt.constprop.0+0x16a>
    80000960:	46a1                	li	a3,8
    80000962:	bba5                	j	800006da <vprintfmt.constprop.0+0x16a>
	while (!(*UART_LSR & (1<<5))); // wait for THRE (trans hold reg empty)
    80000964:	100006b7          	lui	a3,0x10000
    80000968:	0695                	addi	a3,a3,5 # 10000005 <_start-0x6ffffffb>
    8000096a:	10000637          	lui	a2,0x10000
    8000096e:	0006c783          	lbu	a5,0(a3)
    80000972:	0207f793          	andi	a5,a5,32
    80000976:	dfe5                	beqz	a5,8000096e <vprintfmt.constprop.0+0x3fe>
	*UART_THR = c;
    80000978:	02500793          	li	a5,37
    8000097c:	00f60023          	sb	a5,0(a2) # 10000000 <_start-0x70000000>
  return 0;
    80000980:	b179                	j	8000060e <vprintfmt.constprop.0+0x9e>

0000000080000982 <uartInit>:
	*UART_LCR = 0b0000011; // 8-bit characters, 1 stop bit, no parity
    80000982:	100007b7          	lui	a5,0x10000
    80000986:	470d                	li	a4,3
    80000988:	00e781a3          	sb	a4,3(a5) # 10000003 <_start-0x6ffffffd>
}
    8000098c:	8082                	ret

000000008000098e <uartSend>:
	while (!(*UART_LSR & (1<<5))); // wait for THRE (trans hold reg empty)
    8000098e:	10000737          	lui	a4,0x10000
    80000992:	0715                	addi	a4,a4,5 # 10000005 <_start-0x6ffffffb>
    80000994:	100006b7          	lui	a3,0x10000
    80000998:	00074783          	lbu	a5,0(a4)
    8000099c:	0207f793          	andi	a5,a5,32
    800009a0:	dfe5                	beqz	a5,80000998 <uartSend+0xa>
	*UART_THR = c;
    800009a2:	00a68023          	sb	a0,0(a3) # 10000000 <_start-0x70000000>
}
    800009a6:	8082                	ret

00000000800009a8 <uartReceive>:
	while (!(*UART_LSR & (1<<0))); // wait for DR (Data Ready)
    800009a8:	10000737          	lui	a4,0x10000
    800009ac:	0715                	addi	a4,a4,5 # 10000005 <_start-0x6ffffffb>
    800009ae:	100006b7          	lui	a3,0x10000
    800009b2:	00074783          	lbu	a5,0(a4)
    800009b6:	8b85                	andi	a5,a5,1
    800009b8:	dfed                	beqz	a5,800009b2 <uartReceive+0xa>
	return *UART_RBR;
    800009ba:	0006c503          	lbu	a0,0(a3) # 10000000 <_start-0x70000000>
}
    800009be:	8082                	ret

00000000800009c0 <uartPutStr>:
    while (*str) {
    800009c0:	00054683          	lbu	a3,0(a0)
    800009c4:	c28d                	beqz	a3,800009e6 <uartPutStr+0x26>
	while (!(*UART_LSR & (1<<5))); // wait for THRE (trans hold reg empty)
    800009c6:	10000737          	lui	a4,0x10000
    800009ca:	0715                	addi	a4,a4,5 # 10000005 <_start-0x6ffffffb>
    800009cc:	10000637          	lui	a2,0x10000
        uartSend(*str++);
    800009d0:	0505                	addi	a0,a0,1
	while (!(*UART_LSR & (1<<5))); // wait for THRE (trans hold reg empty)
    800009d2:	00074783          	lbu	a5,0(a4)
    800009d6:	0207f793          	andi	a5,a5,32
    800009da:	dfe5                	beqz	a5,800009d2 <uartPutStr+0x12>
	*UART_THR = c;
    800009dc:	00d60023          	sb	a3,0(a2) # 10000000 <_start-0x70000000>
    while (*str) {
    800009e0:	00054683          	lbu	a3,0(a0)
    800009e4:	f6f5                	bnez	a3,800009d0 <uartPutStr+0x10>
}
    800009e6:	8082                	ret

00000000800009e8 <setStats>:
  READ_CTR(mcycle);
    800009e8:	b0002773          	csrr	a4,mcycle
    800009ec:	b7018793          	addi	a5,gp,-1168 # 800023b8 <counters>
    800009f0:	c511                	beqz	a0,800009fc <setStats+0x14>
    800009f2:	e398                	sd	a4,0(a5)
  READ_CTR(minstret);
    800009f4:	b0202773          	csrr	a4,minstret
    800009f8:	e798                	sd	a4,8(a5)
}
    800009fa:	8082                	ret
  READ_CTR(mcycle);
    800009fc:	6394                	ld	a3,0(a5)
    800009fe:	00001617          	auipc	a2,0x1
    80000a02:	67a60613          	addi	a2,a2,1658 # 80002078 <fromhost+0x38>
    80000a06:	eb90                	sd	a2,16(a5)
    80000a08:	8f15                	sub	a4,a4,a3
    80000a0a:	e398                	sd	a4,0(a5)
  READ_CTR(minstret);
    80000a0c:	b0202773          	csrr	a4,minstret
    80000a10:	6794                	ld	a3,8(a5)
    80000a12:	00001617          	auipc	a2,0x1
    80000a16:	66e60613          	addi	a2,a2,1646 # 80002080 <fromhost+0x40>
    80000a1a:	ef90                	sd	a2,24(a5)
    80000a1c:	8f15                	sub	a4,a4,a3
    80000a1e:	e798                	sd	a4,8(a5)
}
    80000a20:	8082                	ret

0000000080000a22 <tohost_exit>:
  tohost = (code << 1) | 1;
    80000a22:	00151793          	slli	a5,a0,0x1
    80000a26:	0017e793          	ori	a5,a5,1
    80000a2a:	00001717          	auipc	a4,0x1
    80000a2e:	5cf73b23          	sd	a5,1494(a4) # 80002000 <tohost>
  while (1);
    80000a32:	a001                	j	80000a32 <tohost_exit+0x10>

0000000080000a34 <handle_trap>:
  tohost = (code << 1) | 1;
    80000a34:	6785                	lui	a5,0x1
    80000a36:	a7378793          	addi	a5,a5,-1421 # a73 <_start-0x7ffff58d>
    80000a3a:	00001717          	auipc	a4,0x1
    80000a3e:	5cf73323          	sd	a5,1478(a4) # 80002000 <tohost>
  while (1);
    80000a42:	a001                	j	80000a42 <handle_trap+0xe>

0000000080000a44 <exit>:
{
    80000a44:	1141                	addi	sp,sp,-16
    80000a46:	e406                	sd	ra,8(sp)
  tohost_exit(code);
    80000a48:	fdbff0ef          	jal	80000a22 <tohost_exit>

0000000080000a4c <abort>:
  tohost = (code << 1) | 1;
    80000a4c:	10d00793          	li	a5,269
    80000a50:	00001717          	auipc	a4,0x1
    80000a54:	5af73823          	sd	a5,1456(a4) # 80002000 <tohost>
  while (1);
    80000a58:	a001                	j	80000a58 <abort+0xc>

0000000080000a5a <printstr>:
    while (*str) {
    80000a5a:	00054683          	lbu	a3,0(a0)
    80000a5e:	c28d                	beqz	a3,80000a80 <printstr+0x26>
	while (!(*UART_LSR & (1<<5))); // wait for THRE (trans hold reg empty)
    80000a60:	10000737          	lui	a4,0x10000
    80000a64:	0715                	addi	a4,a4,5 # 10000005 <_start-0x6ffffffb>
    80000a66:	10000637          	lui	a2,0x10000
        uartSend(*str++);
    80000a6a:	0505                	addi	a0,a0,1
	while (!(*UART_LSR & (1<<5))); // wait for THRE (trans hold reg empty)
    80000a6c:	00074783          	lbu	a5,0(a4)
    80000a70:	0207f793          	andi	a5,a5,32
    80000a74:	dfe5                	beqz	a5,80000a6c <printstr+0x12>
	*UART_THR = c;
    80000a76:	00d60023          	sb	a3,0(a2) # 10000000 <_start-0x70000000>
    while (*str) {
    80000a7a:	00054683          	lbu	a3,0(a0)
    80000a7e:	f6f5                	bnez	a3,80000a6a <printstr+0x10>
}
    80000a80:	8082                	ret

0000000080000a82 <puts>:
    while (*str) {
    80000a82:	00054683          	lbu	a3,0(a0)
    80000a86:	c28d                	beqz	a3,80000aa8 <puts+0x26>
	while (!(*UART_LSR & (1<<5))); // wait for THRE (trans hold reg empty)
    80000a88:	10000737          	lui	a4,0x10000
    80000a8c:	0715                	addi	a4,a4,5 # 10000005 <_start-0x6ffffffb>
    80000a8e:	10000637          	lui	a2,0x10000
        uartSend(*str++);
    80000a92:	0505                	addi	a0,a0,1
	while (!(*UART_LSR & (1<<5))); // wait for THRE (trans hold reg empty)
    80000a94:	00074783          	lbu	a5,0(a4)
    80000a98:	0207f793          	andi	a5,a5,32
    80000a9c:	dfe5                	beqz	a5,80000a94 <puts+0x12>
	*UART_THR = c;
    80000a9e:	00d60023          	sb	a3,0(a2) # 10000000 <_start-0x70000000>
    while (*str) {
    80000aa2:	00054683          	lbu	a3,0(a0)
    80000aa6:	f6f5                	bnez	a3,80000a92 <puts+0x10>
}
    80000aa8:	4501                	li	a0,0
    80000aaa:	8082                	ret

0000000080000aac <thread_entry>:
  while (cid != 0);
    80000aac:	e111                	bnez	a0,80000ab0 <thread_entry+0x4>
}
    80000aae:	8082                	ret
  while (cid != 0);
    80000ab0:	a001                	j	80000ab0 <thread_entry+0x4>

0000000080000ab2 <printhex>:
    str[15-i] = (x & 0xF) + ((x & 0xF) < 10 ? '0' : 'a'-10);
    80000ab2:	00f57613          	andi	a2,a0,15
    80000ab6:	46a5                	li	a3,9
{
    80000ab8:	1101                	addi	sp,sp,-32
    str[15-i] = (x & 0xF) + ((x & 0xF) < 10 ? '0' : 'a'-10);
    80000aba:	8732                	mv	a4,a2
    80000abc:	03000793          	li	a5,48
    80000ac0:	00c6f463          	bgeu	a3,a2,80000ac8 <printhex+0x16>
    80000ac4:	05700793          	li	a5,87
    80000ac8:	9f3d                	addw	a4,a4,a5
    x >>= 4;
    80000aca:	00455793          	srli	a5,a0,0x4
    str[15-i] = (x & 0xF) + ((x & 0xF) < 10 ? '0' : 'a'-10);
    80000ace:	00e10ba3          	sb	a4,23(sp)
    80000ad2:	00f7f613          	andi	a2,a5,15
    80000ad6:	46a5                	li	a3,9
    80000ad8:	87b2                	mv	a5,a2
    80000ada:	05700713          	li	a4,87
    80000ade:	00c6e463          	bltu	a3,a2,80000ae6 <printhex+0x34>
    80000ae2:	03000713          	li	a4,48
    80000ae6:	9f3d                	addw	a4,a4,a5
    x >>= 4;
    80000ae8:	00855793          	srli	a5,a0,0x8
    str[15-i] = (x & 0xF) + ((x & 0xF) < 10 ? '0' : 'a'-10);
    80000aec:	00e10b23          	sb	a4,22(sp)
    80000af0:	00f7f613          	andi	a2,a5,15
    80000af4:	46a5                	li	a3,9
    80000af6:	87b2                	mv	a5,a2
    80000af8:	05700713          	li	a4,87
    80000afc:	00c6e463          	bltu	a3,a2,80000b04 <printhex+0x52>
    80000b00:	03000713          	li	a4,48
    80000b04:	9f3d                	addw	a4,a4,a5
    x >>= 4;
    80000b06:	00c55793          	srli	a5,a0,0xc
    str[15-i] = (x & 0xF) + ((x & 0xF) < 10 ? '0' : 'a'-10);
    80000b0a:	00e10aa3          	sb	a4,21(sp)
    80000b0e:	00f7f613          	andi	a2,a5,15
    80000b12:	46a5                	li	a3,9
    80000b14:	87b2                	mv	a5,a2
    80000b16:	05700713          	li	a4,87
    80000b1a:	00c6e463          	bltu	a3,a2,80000b22 <printhex+0x70>
    80000b1e:	03000713          	li	a4,48
    80000b22:	9f3d                	addw	a4,a4,a5
    x >>= 4;
    80000b24:	01055793          	srli	a5,a0,0x10
    str[15-i] = (x & 0xF) + ((x & 0xF) < 10 ? '0' : 'a'-10);
    80000b28:	00e10a23          	sb	a4,20(sp)
    80000b2c:	00f7f613          	andi	a2,a5,15
    80000b30:	46a5                	li	a3,9
    80000b32:	87b2                	mv	a5,a2
    80000b34:	05700713          	li	a4,87
    80000b38:	00c6e463          	bltu	a3,a2,80000b40 <printhex+0x8e>
    80000b3c:	03000713          	li	a4,48
    80000b40:	9f3d                	addw	a4,a4,a5
    x >>= 4;
    80000b42:	01455793          	srli	a5,a0,0x14
    str[15-i] = (x & 0xF) + ((x & 0xF) < 10 ? '0' : 'a'-10);
    80000b46:	00e109a3          	sb	a4,19(sp)
    80000b4a:	00f7f613          	andi	a2,a5,15
    80000b4e:	46a5                	li	a3,9
    80000b50:	87b2                	mv	a5,a2
    80000b52:	05700713          	li	a4,87
    80000b56:	00c6e463          	bltu	a3,a2,80000b5e <printhex+0xac>
    80000b5a:	03000713          	li	a4,48
    80000b5e:	9f3d                	addw	a4,a4,a5
    x >>= 4;
    80000b60:	01855793          	srli	a5,a0,0x18
    str[15-i] = (x & 0xF) + ((x & 0xF) < 10 ? '0' : 'a'-10);
    80000b64:	00e10923          	sb	a4,18(sp)
    80000b68:	00f7f613          	andi	a2,a5,15
    80000b6c:	46a5                	li	a3,9
    80000b6e:	87b2                	mv	a5,a2
    80000b70:	05700713          	li	a4,87
    80000b74:	00c6e463          	bltu	a3,a2,80000b7c <printhex+0xca>
    80000b78:	03000713          	li	a4,48
    80000b7c:	9fb9                	addw	a5,a5,a4
    80000b7e:	00f108a3          	sb	a5,17(sp)
    80000b82:	4625                	li	a2,9
    80000b84:	01c5579b          	srliw	a5,a0,0x1c
    80000b88:	873e                	mv	a4,a5
    80000b8a:	05700693          	li	a3,87
    80000b8e:	00f66463          	bltu	a2,a5,80000b96 <printhex+0xe4>
    80000b92:	03000693          	li	a3,48
    80000b96:	9f35                	addw	a4,a4,a3
    x >>= 4;
    80000b98:	02055793          	srli	a5,a0,0x20
    str[15-i] = (x & 0xF) + ((x & 0xF) < 10 ? '0' : 'a'-10);
    80000b9c:	00e10823          	sb	a4,16(sp)
    80000ba0:	00f7f613          	andi	a2,a5,15
    80000ba4:	46a5                	li	a3,9
    80000ba6:	87b2                	mv	a5,a2
    80000ba8:	05700713          	li	a4,87
    80000bac:	00c6e463          	bltu	a3,a2,80000bb4 <printhex+0x102>
    80000bb0:	03000713          	li	a4,48
    80000bb4:	9f3d                	addw	a4,a4,a5
    x >>= 4;
    80000bb6:	02455793          	srli	a5,a0,0x24
    str[15-i] = (x & 0xF) + ((x & 0xF) < 10 ? '0' : 'a'-10);
    80000bba:	00e107a3          	sb	a4,15(sp)
    80000bbe:	00f7f613          	andi	a2,a5,15
    80000bc2:	46a5                	li	a3,9
    80000bc4:	87b2                	mv	a5,a2
    80000bc6:	05700713          	li	a4,87
    80000bca:	00c6e463          	bltu	a3,a2,80000bd2 <printhex+0x120>
    80000bce:	03000713          	li	a4,48
    80000bd2:	9f3d                	addw	a4,a4,a5
    x >>= 4;
    80000bd4:	02855793          	srli	a5,a0,0x28
    str[15-i] = (x & 0xF) + ((x & 0xF) < 10 ? '0' : 'a'-10);
    80000bd8:	00e10723          	sb	a4,14(sp)
    80000bdc:	00f7f613          	andi	a2,a5,15
    80000be0:	46a5                	li	a3,9
    80000be2:	87b2                	mv	a5,a2
    80000be4:	05700713          	li	a4,87
    80000be8:	00c6e463          	bltu	a3,a2,80000bf0 <printhex+0x13e>
    80000bec:	03000713          	li	a4,48
    80000bf0:	9f3d                	addw	a4,a4,a5
    x >>= 4;
    80000bf2:	02c55793          	srli	a5,a0,0x2c
    str[15-i] = (x & 0xF) + ((x & 0xF) < 10 ? '0' : 'a'-10);
    80000bf6:	00e106a3          	sb	a4,13(sp)
    80000bfa:	00f7f613          	andi	a2,a5,15
    80000bfe:	46a5                	li	a3,9
    80000c00:	87b2                	mv	a5,a2
    80000c02:	05700713          	li	a4,87
    80000c06:	00c6e463          	bltu	a3,a2,80000c0e <printhex+0x15c>
    80000c0a:	03000713          	li	a4,48
    80000c0e:	9f3d                	addw	a4,a4,a5
    x >>= 4;
    80000c10:	03055793          	srli	a5,a0,0x30
    str[15-i] = (x & 0xF) + ((x & 0xF) < 10 ? '0' : 'a'-10);
    80000c14:	00e10623          	sb	a4,12(sp)
    80000c18:	00f7f613          	andi	a2,a5,15
    80000c1c:	46a5                	li	a3,9
    80000c1e:	87b2                	mv	a5,a2
    80000c20:	05700713          	li	a4,87
    80000c24:	00c6e463          	bltu	a3,a2,80000c2c <printhex+0x17a>
    80000c28:	03000713          	li	a4,48
    80000c2c:	9f3d                	addw	a4,a4,a5
    x >>= 4;
    80000c2e:	03455793          	srli	a5,a0,0x34
    str[15-i] = (x & 0xF) + ((x & 0xF) < 10 ? '0' : 'a'-10);
    80000c32:	00e105a3          	sb	a4,11(sp)
    80000c36:	00f7f613          	andi	a2,a5,15
    80000c3a:	46a5                	li	a3,9
    80000c3c:	87b2                	mv	a5,a2
    80000c3e:	05700713          	li	a4,87
    80000c42:	00c6e463          	bltu	a3,a2,80000c4a <printhex+0x198>
    80000c46:	03000713          	li	a4,48
    80000c4a:	9f3d                	addw	a4,a4,a5
    x >>= 4;
    80000c4c:	03855793          	srli	a5,a0,0x38
    str[15-i] = (x & 0xF) + ((x & 0xF) < 10 ? '0' : 'a'-10);
    80000c50:	00e10523          	sb	a4,10(sp)
    80000c54:	00f7f613          	andi	a2,a5,15
    80000c58:	46a5                	li	a3,9
    80000c5a:	87b2                	mv	a5,a2
    80000c5c:	05700713          	li	a4,87
    80000c60:	00c6e463          	bltu	a3,a2,80000c68 <printhex+0x1b6>
    80000c64:	03000713          	li	a4,48
    80000c68:	9fb9                	addw	a5,a5,a4
    80000c6a:	00f104a3          	sb	a5,9(sp)
    x >>= 4;
    80000c6e:	03c55613          	srli	a2,a0,0x3c
    str[15-i] = (x & 0xF) + ((x & 0xF) < 10 ? '0' : 'a'-10);
    80000c72:	4725                	li	a4,9
    80000c74:	86b2                	mv	a3,a2
    80000c76:	05700793          	li	a5,87
    80000c7a:	00c76463          	bltu	a4,a2,80000c82 <printhex+0x1d0>
    80000c7e:	03000793          	li	a5,48
    80000c82:	96be                	add	a3,a3,a5
	while (!(*UART_LSR & (1<<5))); // wait for THRE (trans hold reg empty)
    80000c84:	10000737          	lui	a4,0x10000
    str[15-i] = (x & 0xF) + ((x & 0xF) < 10 ? '0' : 'a'-10);
    80000c88:	00d10423          	sb	a3,8(sp)
  str[16] = 0;
    80000c8c:	00010c23          	sb	zero,24(sp)
	while (!(*UART_LSR & (1<<5))); // wait for THRE (trans hold reg empty)
    80000c90:	0715                	addi	a4,a4,5 # 10000005 <_start-0x6ffffffb>
  str[16] = 0;
    80000c92:	0030                	addi	a2,sp,8
	while (!(*UART_LSR & (1<<5))); // wait for THRE (trans hold reg empty)
    80000c94:	100005b7          	lui	a1,0x10000
        uartSend(*str++);
    80000c98:	0605                	addi	a2,a2,1
	while (!(*UART_LSR & (1<<5))); // wait for THRE (trans hold reg empty)
    80000c9a:	00074783          	lbu	a5,0(a4)
    80000c9e:	0207f793          	andi	a5,a5,32
    80000ca2:	dfe5                	beqz	a5,80000c9a <printhex+0x1e8>
	*UART_THR = c;
    80000ca4:	00d58023          	sb	a3,0(a1) # 10000000 <_start-0x70000000>
    while (*str) {
    80000ca8:	00064683          	lbu	a3,0(a2)
    80000cac:	f6f5                	bnez	a3,80000c98 <printhex+0x1e6>
}
    80000cae:	6105                	addi	sp,sp,32
    80000cb0:	8082                	ret

0000000080000cb2 <printf>:
{
    80000cb2:	711d                	addi	sp,sp,-96
  va_start(ap, fmt);
    80000cb4:	02810313          	addi	t1,sp,40
{
    80000cb8:	f42e                	sd	a1,40(sp)
  vprintfmt((void*)putchar, 0, fmt, ap);
    80000cba:	859a                	mv	a1,t1
{
    80000cbc:	ec06                	sd	ra,24(sp)
    80000cbe:	f832                	sd	a2,48(sp)
    80000cc0:	fc36                	sd	a3,56(sp)
    80000cc2:	e0ba                	sd	a4,64(sp)
    80000cc4:	e4be                	sd	a5,72(sp)
    80000cc6:	e8c2                	sd	a6,80(sp)
    80000cc8:	ecc6                	sd	a7,88(sp)
  va_start(ap, fmt);
    80000cca:	e41a                	sd	t1,8(sp)
  vprintfmt((void*)putchar, 0, fmt, ap);
    80000ccc:	8a5ff0ef          	jal	80000570 <vprintfmt.constprop.0>
}
    80000cd0:	60e2                	ld	ra,24(sp)
    80000cd2:	4501                	li	a0,0
    80000cd4:	6125                	addi	sp,sp,96
    80000cd6:	8082                	ret

0000000080000cd8 <sprintf>:
{
    80000cd8:	711d                	addi	sp,sp,-96
  va_start(ap, fmt);
    80000cda:	03010313          	addi	t1,sp,48
{
    80000cde:	f022                	sd	s0,32(sp)
    80000ce0:	e42a                	sd	a0,8(sp)
    80000ce2:	f832                	sd	a2,48(sp)
  char* str0 = str;
    80000ce4:	842a                	mv	s0,a0
  vprintfmt(sprintf_putch, (void**)&str, fmt, ap);
    80000ce6:	861a                	mv	a2,t1
    80000ce8:	0028                	addi	a0,sp,8
{
    80000cea:	f406                	sd	ra,40(sp)
    80000cec:	fc36                	sd	a3,56(sp)
    80000cee:	e0ba                	sd	a4,64(sp)
    80000cf0:	e4be                	sd	a5,72(sp)
    80000cf2:	e8c2                	sd	a6,80(sp)
    80000cf4:	ecc6                	sd	a7,88(sp)
  va_start(ap, fmt);
    80000cf6:	ec1a                	sd	t1,24(sp)
  vprintfmt(sprintf_putch, (void**)&str, fmt, ap);
    80000cf8:	d66ff0ef          	jal	8000025e <vprintfmt.constprop.1>
  *str = 0;
    80000cfc:	6522                	ld	a0,8(sp)
    80000cfe:	00050023          	sb	zero,0(a0)
}
    80000d02:	70a2                	ld	ra,40(sp)
    80000d04:	9d01                	subw	a0,a0,s0
    80000d06:	7402                	ld	s0,32(sp)
    80000d08:	6125                	addi	sp,sp,96
    80000d0a:	8082                	ret

0000000080000d0c <memcpy>:
  if ((((uintptr_t)dest | (uintptr_t)src | len) & (sizeof(uintptr_t)-1)) == 0) {
    80000d0c:	00c5e833          	or	a6,a1,a2
    80000d10:	00a86833          	or	a6,a6,a0
    80000d14:	00787813          	andi	a6,a6,7
    80000d18:	87ae                	mv	a5,a1
    80000d1a:	872a                	mv	a4,a0
    while (d < (char*)(dest + len))
    80000d1c:	00c506b3          	add	a3,a0,a2
  if ((((uintptr_t)dest | (uintptr_t)src | len) & (sizeof(uintptr_t)-1)) == 0) {
    80000d20:	0a080b63          	beqz	a6,80000dd6 <memcpy+0xca>
    while (d < (char*)(dest + len))
    80000d24:	0ed57263          	bgeu	a0,a3,80000e08 <memcpy+0xfc>
    80000d28:	fff60813          	addi	a6,a2,-1
    80000d2c:	489d                	li	a7,7
    80000d2e:	0b08ff63          	bgeu	a7,a6,80000dec <memcpy+0xe0>
    80000d32:	00b56833          	or	a6,a0,a1
    80000d36:	00787813          	andi	a6,a6,7
    80000d3a:	0a081963          	bnez	a6,80000dec <memcpy+0xe0>
    80000d3e:	00158813          	addi	a6,a1,1
    80000d42:	410508b3          	sub	a7,a0,a6
    80000d46:	0078b893          	sltiu	a7,a7,7
    80000d4a:	0a089363          	bnez	a7,80000df0 <memcpy+0xe4>
    80000d4e:	ff867893          	andi	a7,a2,-8
    80000d52:	01158833          	add	a6,a1,a7
      *d++ = *s++;
    80000d56:	638c                	ld	a1,0(a5)
    80000d58:	07a1                	addi	a5,a5,8
    80000d5a:	0721                	addi	a4,a4,8
    80000d5c:	feb73c23          	sd	a1,-8(a4)
    while (d < (char*)(dest + len))
    80000d60:	fef81be3          	bne	a6,a5,80000d56 <memcpy+0x4a>
    80000d64:	011507b3          	add	a5,a0,a7
    80000d68:	09160f63          	beq	a2,a7,80000e06 <memcpy+0xfa>
      *d++ = *s++;
    80000d6c:	00084603          	lbu	a2,0(a6)
    80000d70:	00178713          	addi	a4,a5,1
    80000d74:	00c78023          	sb	a2,0(a5)
    while (d < (char*)(dest + len))
    80000d78:	08d77763          	bgeu	a4,a3,80000e06 <memcpy+0xfa>
      *d++ = *s++;
    80000d7c:	00184603          	lbu	a2,1(a6)
    80000d80:	00278713          	addi	a4,a5,2
    80000d84:	00c780a3          	sb	a2,1(a5)
    while (d < (char*)(dest + len))
    80000d88:	06d77f63          	bgeu	a4,a3,80000e06 <memcpy+0xfa>
      *d++ = *s++;
    80000d8c:	00284603          	lbu	a2,2(a6)
    80000d90:	00378713          	addi	a4,a5,3
    80000d94:	00c78123          	sb	a2,2(a5)
    while (d < (char*)(dest + len))
    80000d98:	06d77763          	bgeu	a4,a3,80000e06 <memcpy+0xfa>
      *d++ = *s++;
    80000d9c:	00384603          	lbu	a2,3(a6)
    80000da0:	00478713          	addi	a4,a5,4
    80000da4:	00c781a3          	sb	a2,3(a5)
    while (d < (char*)(dest + len))
    80000da8:	04d77f63          	bgeu	a4,a3,80000e06 <memcpy+0xfa>
      *d++ = *s++;
    80000dac:	00484603          	lbu	a2,4(a6)
    80000db0:	00578713          	addi	a4,a5,5
    80000db4:	00c78223          	sb	a2,4(a5)
    while (d < (char*)(dest + len))
    80000db8:	04d77763          	bgeu	a4,a3,80000e06 <memcpy+0xfa>
      *d++ = *s++;
    80000dbc:	00584603          	lbu	a2,5(a6)
    80000dc0:	00678713          	addi	a4,a5,6
    80000dc4:	00c782a3          	sb	a2,5(a5)
    while (d < (char*)(dest + len))
    80000dc8:	02d77f63          	bgeu	a4,a3,80000e06 <memcpy+0xfa>
      *d++ = *s++;
    80000dcc:	00684703          	lbu	a4,6(a6)
    80000dd0:	00e78323          	sb	a4,6(a5)
    while (d < (char*)(dest + len))
    80000dd4:	8082                	ret
    while (d < (uintptr_t*)(dest + len))
    80000dd6:	02d57863          	bgeu	a0,a3,80000e06 <memcpy+0xfa>
    uintptr_t *d = dest;
    80000dda:	87aa                	mv	a5,a0
      *d++ = *s++;
    80000ddc:	6198                	ld	a4,0(a1)
    80000dde:	07a1                	addi	a5,a5,8
    80000de0:	05a1                	addi	a1,a1,8
    80000de2:	fee7bc23          	sd	a4,-8(a5)
    while (d < (uintptr_t*)(dest + len))
    80000de6:	fed7ebe3          	bltu	a5,a3,80000ddc <memcpy+0xd0>
    80000dea:	8082                	ret
    80000dec:	00158813          	addi	a6,a1,1
    80000df0:	95b2                	add	a1,a1,a2
    char *d = dest;
    80000df2:	87aa                	mv	a5,a0
    80000df4:	a011                	j	80000df8 <memcpy+0xec>
    80000df6:	0805                	addi	a6,a6,1
      *d++ = *s++;
    80000df8:	fff84703          	lbu	a4,-1(a6)
    80000dfc:	0785                	addi	a5,a5,1
    80000dfe:	fee78fa3          	sb	a4,-1(a5)
    while (d < (char*)(dest + len))
    80000e02:	feb81ae3          	bne	a6,a1,80000df6 <memcpy+0xea>
}
    80000e06:	8082                	ret
    80000e08:	8082                	ret

0000000080000e0a <memset>:
  if ((((uintptr_t)dest | len) & (sizeof(uintptr_t)-1)) == 0) {
    80000e0a:	00c567b3          	or	a5,a0,a2
    80000e0e:	8b9d                	andi	a5,a5,7
    while (d < (char*)(dest + len))
    80000e10:	00c50833          	add	a6,a0,a2
  if ((((uintptr_t)dest | len) & (sizeof(uintptr_t)-1)) == 0) {
    80000e14:	16078663          	beqz	a5,80000f80 <memset+0x176>
    while (d < (char*)(dest + len))
    80000e18:	19057863          	bgeu	a0,a6,80000fa8 <memset+0x19e>
    80000e1c:	40a006b3          	neg	a3,a0
    80000e20:	0076f793          	andi	a5,a3,7
    80000e24:	00778893          	addi	a7,a5,7
    80000e28:	432d                	li	t1,11
      *d++ = byte;
    80000e2a:	0ff5f713          	zext.b	a4,a1
    80000e2e:	fff60593          	addi	a1,a2,-1
    80000e32:	0068f363          	bgeu	a7,t1,80000e38 <memset+0x2e>
    80000e36:	889a                	mv	a7,t1
    80000e38:	1915e263          	bltu	a1,a7,80000fbc <memset+0x1b2>
    80000e3c:	16078e63          	beqz	a5,80000fb8 <memset+0x1ae>
    80000e40:	00e50023          	sb	a4,0(a0)
    while (d < (char*)(dest + len))
    80000e44:	0066f593          	andi	a1,a3,6
    80000e48:	16058563          	beqz	a1,80000fb2 <memset+0x1a8>
      *d++ = byte;
    80000e4c:	00e500a3          	sb	a4,1(a0)
    while (d < (char*)(dest + len))
    80000e50:	4589                	li	a1,2
    80000e52:	16f5f763          	bgeu	a1,a5,80000fc0 <memset+0x1b6>
      *d++ = byte;
    80000e56:	00e50123          	sb	a4,2(a0)
    while (d < (char*)(dest + len))
    80000e5a:	8a91                	andi	a3,a3,4
      *d++ = byte;
    80000e5c:	00350593          	addi	a1,a0,3
    80000e60:	c695                	beqz	a3,80000e8c <memset+0x82>
    80000e62:	00e501a3          	sb	a4,3(a0)
    while (d < (char*)(dest + len))
    80000e66:	4691                	li	a3,4
    80000e68:	14f6f163          	bgeu	a3,a5,80000faa <memset+0x1a0>
      *d++ = byte;
    80000e6c:	00e50223          	sb	a4,4(a0)
    while (d < (char*)(dest + len))
    80000e70:	4695                	li	a3,5
    80000e72:	12d78c63          	beq	a5,a3,80000faa <memset+0x1a0>
      *d++ = byte;
    80000e76:	00e502a3          	sb	a4,5(a0)
    while (d < (char*)(dest + len))
    80000e7a:	469d                	li	a3,7
      *d++ = byte;
    80000e7c:	00650593          	addi	a1,a0,6
    80000e80:	00d79663          	bne	a5,a3,80000e8c <memset+0x82>
    80000e84:	00e50323          	sb	a4,6(a0)
    80000e88:	00750593          	addi	a1,a0,7
    while (d < (char*)(dest + len))
    80000e8c:	00871693          	slli	a3,a4,0x8
    80000e90:	01071893          	slli	a7,a4,0x10
    80000e94:	8ed9                	or	a3,a3,a4
    80000e96:	0116e6b3          	or	a3,a3,a7
    80000e9a:	01871893          	slli	a7,a4,0x18
    80000e9e:	0116e6b3          	or	a3,a3,a7
    80000ea2:	02071893          	slli	a7,a4,0x20
    80000ea6:	0116e6b3          	or	a3,a3,a7
    80000eaa:	02871893          	slli	a7,a4,0x28
    80000eae:	8e1d                	sub	a2,a2,a5
    80000eb0:	0116e6b3          	or	a3,a3,a7
    80000eb4:	03071893          	slli	a7,a4,0x30
    80000eb8:	0116e6b3          	or	a3,a3,a7
    80000ebc:	97aa                	add	a5,a5,a0
    80000ebe:	03871893          	slli	a7,a4,0x38
    80000ec2:	ff867313          	andi	t1,a2,-8
    80000ec6:	0116e6b3          	or	a3,a3,a7
    80000eca:	00f308b3          	add	a7,t1,a5
      *d++ = byte;
    80000ece:	e394                	sd	a3,0(a5)
    while (d < (char*)(dest + len))
    80000ed0:	07a1                	addi	a5,a5,8
    80000ed2:	ff179ee3          	bne	a5,a7,80000ece <memset+0xc4>
    80000ed6:	006587b3          	add	a5,a1,t1
    80000eda:	0cc30b63          	beq	t1,a2,80000fb0 <memset+0x1a6>
      *d++ = byte;
    80000ede:	00e78023          	sb	a4,0(a5)
    80000ee2:	00178693          	addi	a3,a5,1
    while (d < (char*)(dest + len))
    80000ee6:	0906fc63          	bgeu	a3,a6,80000f7e <memset+0x174>
      *d++ = byte;
    80000eea:	00e780a3          	sb	a4,1(a5)
    80000eee:	00278693          	addi	a3,a5,2
    while (d < (char*)(dest + len))
    80000ef2:	0906f663          	bgeu	a3,a6,80000f7e <memset+0x174>
      *d++ = byte;
    80000ef6:	00e78123          	sb	a4,2(a5)
    80000efa:	00378693          	addi	a3,a5,3
    while (d < (char*)(dest + len))
    80000efe:	0906f063          	bgeu	a3,a6,80000f7e <memset+0x174>
      *d++ = byte;
    80000f02:	00e781a3          	sb	a4,3(a5)
    80000f06:	00478693          	addi	a3,a5,4
    while (d < (char*)(dest + len))
    80000f0a:	0706fa63          	bgeu	a3,a6,80000f7e <memset+0x174>
      *d++ = byte;
    80000f0e:	00e78223          	sb	a4,4(a5)
    80000f12:	00578693          	addi	a3,a5,5
    while (d < (char*)(dest + len))
    80000f16:	0706f463          	bgeu	a3,a6,80000f7e <memset+0x174>
      *d++ = byte;
    80000f1a:	00e782a3          	sb	a4,5(a5)
    80000f1e:	00678693          	addi	a3,a5,6
    while (d < (char*)(dest + len))
    80000f22:	0506fe63          	bgeu	a3,a6,80000f7e <memset+0x174>
      *d++ = byte;
    80000f26:	00e78323          	sb	a4,6(a5)
    80000f2a:	00778693          	addi	a3,a5,7
    while (d < (char*)(dest + len))
    80000f2e:	0506f863          	bgeu	a3,a6,80000f7e <memset+0x174>
      *d++ = byte;
    80000f32:	00e783a3          	sb	a4,7(a5)
    80000f36:	00878693          	addi	a3,a5,8
    while (d < (char*)(dest + len))
    80000f3a:	0506f263          	bgeu	a3,a6,80000f7e <memset+0x174>
      *d++ = byte;
    80000f3e:	00e78423          	sb	a4,8(a5)
    80000f42:	00978693          	addi	a3,a5,9
    while (d < (char*)(dest + len))
    80000f46:	0306fc63          	bgeu	a3,a6,80000f7e <memset+0x174>
      *d++ = byte;
    80000f4a:	00e784a3          	sb	a4,9(a5)
    80000f4e:	00a78693          	addi	a3,a5,10
    while (d < (char*)(dest + len))
    80000f52:	0306f663          	bgeu	a3,a6,80000f7e <memset+0x174>
      *d++ = byte;
    80000f56:	00e78523          	sb	a4,10(a5)
    80000f5a:	00b78693          	addi	a3,a5,11
    while (d < (char*)(dest + len))
    80000f5e:	0306f063          	bgeu	a3,a6,80000f7e <memset+0x174>
      *d++ = byte;
    80000f62:	00e785a3          	sb	a4,11(a5)
    80000f66:	00c78693          	addi	a3,a5,12
    while (d < (char*)(dest + len))
    80000f6a:	0106fa63          	bgeu	a3,a6,80000f7e <memset+0x174>
      *d++ = byte;
    80000f6e:	00e78623          	sb	a4,12(a5)
    80000f72:	00d78693          	addi	a3,a5,13
    while (d < (char*)(dest + len))
    80000f76:	0106f463          	bgeu	a3,a6,80000f7e <memset+0x174>
      *d++ = byte;
    80000f7a:	00e786a3          	sb	a4,13(a5)
}
    80000f7e:	8082                	ret
    word |= word << 16 << 16;
    80000f80:	010107b7          	lui	a5,0x1010
    80000f84:	10178793          	addi	a5,a5,257 # 1010101 <_start-0x7efefeff>
    80000f88:	02079693          	slli	a3,a5,0x20
    uintptr_t word = byte & 0xFF;
    80000f8c:	0ff5f713          	zext.b	a4,a1
    80000f90:	97b6                	add	a5,a5,a3
    80000f92:	02f70733          	mul	a4,a4,a5
    while (d < (uintptr_t*)(dest + len))
    80000f96:	ff0574e3          	bgeu	a0,a6,80000f7e <memset+0x174>
    uintptr_t *d = dest;
    80000f9a:	87aa                	mv	a5,a0
      *d++ = word;
    80000f9c:	07a1                	addi	a5,a5,8
    80000f9e:	fee7bc23          	sd	a4,-8(a5)
    while (d < (uintptr_t*)(dest + len))
    80000fa2:	ff07ede3          	bltu	a5,a6,80000f9c <memset+0x192>
    80000fa6:	8082                	ret
    80000fa8:	8082                	ret
      *d++ = byte;
    80000faa:	00d505b3          	add	a1,a0,a3
    80000fae:	bdf9                	j	80000e8c <memset+0x82>
    80000fb0:	8082                	ret
    80000fb2:	00150593          	addi	a1,a0,1
    80000fb6:	bdd9                	j	80000e8c <memset+0x82>
    char *d = dest;
    80000fb8:	85aa                	mv	a1,a0
    80000fba:	bdc9                	j	80000e8c <memset+0x82>
    80000fbc:	87aa                	mv	a5,a0
    80000fbe:	b705                	j	80000ede <memset+0xd4>
      *d++ = byte;
    80000fc0:	95aa                	add	a1,a1,a0
    80000fc2:	b5e9                	j	80000e8c <memset+0x82>

0000000080000fc4 <_init>:
{
    80000fc4:	7171                	addi	sp,sp,-176
  size_t tdata_size = &_tdata_end - &_tdata_begin;
    80000fc6:	b9018793          	addi	a5,gp,-1136 # 800023d8 <_end>
{
    80000fca:	e54e                	sd	s3,136(sp)
  size_t tdata_size = &_tdata_end - &_tdata_begin;
    80000fcc:	b9018993          	addi	s3,gp,-1136 # 800023d8 <_end>
{
    80000fd0:	e152                	sd	s4,128(sp)
  size_t tdata_size = &_tdata_end - &_tdata_begin;
    80000fd2:	40f98a33          	sub	s4,s3,a5
{
    80000fd6:	03f10693          	addi	a3,sp,63
  memcpy(thread_pointer, &_tdata_begin, tdata_size);
    80000fda:	8652                	mv	a2,s4
{
    80000fdc:	ed26                	sd	s1,152(sp)
    80000fde:	e94a                	sd	s2,144(sp)
    80000fe0:	84aa                	mv	s1,a0
    80000fe2:	892e                	mv	s2,a1
  memcpy(thread_pointer, &_tdata_begin, tdata_size);
    80000fe4:	8512                	mv	a0,tp
    80000fe6:	85be                	mv	a1,a5
{
    80000fe8:	f506                	sd	ra,168(sp)
    80000fea:	f122                	sd	s0,160(sp)
    80000fec:	fcd6                	sd	s5,120(sp)
    80000fee:	fc06f413          	andi	s0,a3,-64
  memcpy(thread_pointer, &_tdata_begin, tdata_size);
    80000ff2:	8a92                	mv	s5,tp
    80000ff4:	d19ff0ef          	jal	80000d0c <memcpy>
  size_t tbss_size = &_tbss_end - &_tdata_end;
    80000ff8:	b9018613          	addi	a2,gp,-1136 # 800023d8 <_end>
  memset(thread_pointer + tdata_size, 0, tbss_size);
    80000ffc:	41360633          	sub	a2,a2,s3
    80001000:	014a8533          	add	a0,s5,s4
    80001004:	4581                	li	a1,0
    80001006:	e05ff0ef          	jal	80000e0a <memset>
  thread_entry(cid, nc);
    8000100a:	85ca                	mv	a1,s2
    8000100c:	8526                	mv	a0,s1
    8000100e:	a9fff0ef          	jal	80000aac <thread_entry>
	*UART_LCR = 0b0000011; // 8-bit characters, 1 stop bit, no parity
    80001012:	100007b7          	lui	a5,0x10000
    80001016:	470d                	li	a4,3
    80001018:	00e781a3          	sb	a4,3(a5) # 10000003 <_start-0x6ffffffd>
  int ret = main(0, 0);
    8000101c:	4581                	li	a1,0
    8000101e:	4501                	li	a0,0
    80001020:	156000ef          	jal	80001176 <main>
    if (counters[i])
    80001024:	b7018913          	addi	s2,gp,-1168 # 800023b8 <counters>
    80001028:	00093683          	ld	a3,0(s2)
    8000102c:	00893a03          	ld	s4,8(s2)
  int ret = main(0, 0);
    80001030:	84aa                	mv	s1,a0
    if (counters[i])
    80001032:	eaa1                	bnez	a3,80001082 <_init+0xbe>
  char* pbuf = buf;
    80001034:	89a2                	mv	s3,s0
    if (counters[i])
    80001036:	040a0363          	beqz	s4,8000107c <_init+0xb8>
      pbuf += sprintf(pbuf, "%s = %d\n", counter_names[i], counters[i]);
    8000103a:	01893603          	ld	a2,24(s2)
    8000103e:	854e                	mv	a0,s3
    80001040:	86d2                	mv	a3,s4
    80001042:	00001597          	auipc	a1,0x1
    80001046:	06658593          	addi	a1,a1,102 # 800020a8 <fromhost+0x68>
    8000104a:	c8fff0ef          	jal	80000cd8 <sprintf>
    8000104e:	99aa                	add	s3,s3,a0
  if (pbuf != buf)
    80001050:	03340663          	beq	s0,s3,8000107c <_init+0xb8>
    while (*str) {
    80001054:	00044603          	lbu	a2,0(s0)
    80001058:	c215                	beqz	a2,8000107c <_init+0xb8>
	while (!(*UART_LSR & (1<<5))); // wait for THRE (trans hold reg empty)
    8000105a:	10000737          	lui	a4,0x10000
    while (*str) {
    8000105e:	86a2                	mv	a3,s0
	while (!(*UART_LSR & (1<<5))); // wait for THRE (trans hold reg empty)
    80001060:	0715                	addi	a4,a4,5 # 10000005 <_start-0x6ffffffb>
    80001062:	100005b7          	lui	a1,0x10000
        uartSend(*str++);
    80001066:	0685                	addi	a3,a3,1
	while (!(*UART_LSR & (1<<5))); // wait for THRE (trans hold reg empty)
    80001068:	00074783          	lbu	a5,0(a4)
    8000106c:	0207f793          	andi	a5,a5,32
    80001070:	dfe5                	beqz	a5,80001068 <_init+0xa4>
	*UART_THR = c;
    80001072:	00c58023          	sb	a2,0(a1) # 10000000 <_start-0x70000000>
    while (*str) {
    80001076:	0006c603          	lbu	a2,0(a3)
    8000107a:	f675                	bnez	a2,80001066 <_init+0xa2>
  tohost_exit(code);
    8000107c:	8526                	mv	a0,s1
    8000107e:	9a5ff0ef          	jal	80000a22 <tohost_exit>
      pbuf += sprintf(pbuf, "%s = %d\n", counter_names[i], counters[i]);
    80001082:	01093603          	ld	a2,16(s2)
    80001086:	00001597          	auipc	a1,0x1
    8000108a:	02258593          	addi	a1,a1,34 # 800020a8 <fromhost+0x68>
    8000108e:	8522                	mv	a0,s0
    80001090:	c49ff0ef          	jal	80000cd8 <sprintf>
    80001094:	00a409b3          	add	s3,s0,a0
    if (counters[i])
    80001098:	fa0a0ce3          	beqz	s4,80001050 <_init+0x8c>
    8000109c:	bf79                	j	8000103a <_init+0x76>

000000008000109e <strlen>:
  while (*p)
    8000109e:	00054783          	lbu	a5,0(a0)
    800010a2:	cb89                	beqz	a5,800010b4 <strlen+0x16>
  const char *p = s;
    800010a4:	87aa                	mv	a5,a0
  while (*p)
    800010a6:	0017c703          	lbu	a4,1(a5)
    p++;
    800010aa:	0785                	addi	a5,a5,1
  while (*p)
    800010ac:	ff6d                	bnez	a4,800010a6 <strlen+0x8>
  return p - s;
    800010ae:	40a78533          	sub	a0,a5,a0
    800010b2:	8082                	ret
  while (*p)
    800010b4:	4501                	li	a0,0
}
    800010b6:	8082                	ret

00000000800010b8 <strnlen>:
  while (n-- && *p)
    800010b8:	00b506b3          	add	a3,a0,a1
  const char *p = s;
    800010bc:	87aa                	mv	a5,a0
  while (n-- && *p)
    800010be:	e589                	bnez	a1,800010c8 <strnlen+0x10>
    800010c0:	a821                	j	800010d8 <strnlen+0x20>
    p++;
    800010c2:	0785                	addi	a5,a5,1
  while (n-- && *p)
    800010c4:	00f68863          	beq	a3,a5,800010d4 <strnlen+0x1c>
    800010c8:	0007c703          	lbu	a4,0(a5)
    800010cc:	fb7d                	bnez	a4,800010c2 <strnlen+0xa>
  return p - s;
    800010ce:	40a78533          	sub	a0,a5,a0
}
    800010d2:	8082                	ret
  return p - s;
    800010d4:	852e                	mv	a0,a1
    800010d6:	8082                	ret
  while (n-- && *p)
    800010d8:	4501                	li	a0,0
    800010da:	8082                	ret

00000000800010dc <strcmp>:
int strcmp(const char* s1, const char* s2)
{
  unsigned char c1, c2;

  do {
    c1 = *s1++;
    800010dc:	00054783          	lbu	a5,0(a0)
    800010e0:	0505                	addi	a0,a0,1
    c2 = *s2++;
    800010e2:	0585                	addi	a1,a1,1
    800010e4:	fff5c703          	lbu	a4,-1(a1)
  } while (c1 != 0 && c1 == c2);
    800010e8:	c799                	beqz	a5,800010f6 <strcmp+0x1a>
    800010ea:	fee789e3          	beq	a5,a4,800010dc <strcmp>

  return c1 - c2;
    800010ee:	0007851b          	sext.w	a0,a5
}
    800010f2:	9d19                	subw	a0,a0,a4
    800010f4:	8082                	ret
    800010f6:	4501                	li	a0,0
    800010f8:	bfed                	j	800010f2 <strcmp+0x16>

00000000800010fa <strcpy>:

char* strcpy(char* dest, const char* src)
{
  char* d = dest;
    800010fa:	87aa                	mv	a5,a0
  while ((*d++ = *src++))
    800010fc:	0005c703          	lbu	a4,0(a1)
    80001100:	0585                	addi	a1,a1,1
    80001102:	0785                	addi	a5,a5,1
    80001104:	fee78fa3          	sb	a4,-1(a5)
    80001108:	fb75                	bnez	a4,800010fc <strcpy+0x2>
    ;
  return dest;
}
    8000110a:	8082                	ret

000000008000110c <atol>:
long atol(const char* str)
{
  long res = 0;
  int sign = 0;

  while (*str == ' ')
    8000110c:	00054683          	lbu	a3,0(a0)
    80001110:	02000713          	li	a4,32
{
    80001114:	87aa                	mv	a5,a0
  while (*str == ' ')
    80001116:	00e69863          	bne	a3,a4,80001126 <atol+0x1a>
    8000111a:	8736                	mv	a4,a3
    8000111c:	0017c683          	lbu	a3,1(a5)
    str++;
    80001120:	0785                	addi	a5,a5,1
  while (*str == ' ')
    80001122:	fee68de3          	beq	a3,a4,8000111c <atol+0x10>

  if (*str == '-' || *str == '+') {
    80001126:	02d00713          	li	a4,45
    8000112a:	02e68f63          	beq	a3,a4,80001168 <atol+0x5c>
    8000112e:	02b00713          	li	a4,43
    80001132:	02e68563          	beq	a3,a4,8000115c <atol+0x50>
  int sign = 0;
    80001136:	4581                	li	a1,0
    sign = *str == '-';
    str++;
  }

  while (*str) {
    80001138:	ce8d                	beqz	a3,80001172 <atol+0x66>
  int sign = 0;
    8000113a:	4501                	li	a0,0
    res *= 10;
    res += *str++ - '0';
    8000113c:	0785                	addi	a5,a5,1
    8000113e:	fd06861b          	addiw	a2,a3,-48
    res *= 10;
    80001142:	00251713          	slli	a4,a0,0x2
  while (*str) {
    80001146:	0007c683          	lbu	a3,0(a5)
    res *= 10;
    8000114a:	972a                	add	a4,a4,a0
    8000114c:	0706                	slli	a4,a4,0x1
    res += *str++ - '0';
    8000114e:	00e60533          	add	a0,a2,a4
  while (*str) {
    80001152:	f6ed                	bnez	a3,8000113c <atol+0x30>
  }

  return sign ? -res : res;
    80001154:	c185                	beqz	a1,80001174 <atol+0x68>
    80001156:	40a00533          	neg	a0,a0
    8000115a:	8082                	ret
  while (*str) {
    8000115c:	0017c683          	lbu	a3,1(a5)
    str++;
    80001160:	0785                	addi	a5,a5,1
  while (*str) {
    80001162:	ca81                	beqz	a3,80001172 <atol+0x66>
    sign = *str == '-';
    80001164:	4581                	li	a1,0
    80001166:	bfd1                	j	8000113a <atol+0x2e>
  while (*str) {
    80001168:	0017c683          	lbu	a3,1(a5)
    sign = *str == '-';
    8000116c:	4585                	li	a1,1
    str++;
    8000116e:	97ae                	add	a5,a5,a1
  while (*str) {
    80001170:	f6e9                	bnez	a3,8000113a <atol+0x2e>
  return sign ? -res : res;
    80001172:	4501                	li	a0,0
}
    80001174:	8082                	ret

Disassembly of section .text.startup:

0000000080001176 <main>:

int main(void) {
    int32_t sin_table[20] = { // in Q1.31 format
    80001176:	87018793          	addi	a5,gp,-1936 # 800020b8 <fromhost+0x78>
    8000117a:	0007bf83          	ld	t6,0(a5)
    8000117e:	0087bf03          	ld	t5,8(a5)
    80001182:	0107be83          	ld	t4,16(a5)
    80001186:	0187be03          	ld	t3,24(a5)
    8000118a:	0207b303          	ld	t1,32(a5)
    8000118e:	0287b883          	ld	a7,40(a5)
    80001192:	0307b803          	ld	a6,48(a5)
    80001196:	7f8c                	ld	a1,56(a5)
    80001198:	63b0                	ld	a2,64(a5)
    8000119a:	67b4                	ld	a3,72(a5)
        0xB4C373EE, // sin(16*2pi/10)
        0x8643C7B3, // sin(17*2pi/10)
        0x8643C7B3, // sin(18*2pi/10)
        0xB4C373EE  // sin(19*2pi/10)
    };  
    int lowpass[4] = {0x20000001, 0x20000002, 0x20000003, 0x20000004}; // 1/4 in Q1.31 format
    8000119c:	00001717          	auipc	a4,0x1
    800011a0:	eac73703          	ld	a4,-340(a4) # 80002048 <fromhost+0x8>
    800011a4:	00001797          	auipc	a5,0x1
    800011a8:	eac7b783          	ld	a5,-340(a5) # 80002050 <fromhost+0x10>
int main(void) {
    800011ac:	7155                	addi	sp,sp,-208
        0x1e6f0e17,
        0xe190f1eb,
        0xb052c0ce,
        0x9d839dc6
    };
    setStats(1);        // record initial mcycle and minstret
    800011ae:	4505                	li	a0,1
int main(void) {
    800011b0:	e586                	sd	ra,200(sp)
    int32_t sin_table[20] = { // in Q1.31 format
    800011b2:	f0fe                	sd	t6,96(sp)
    800011b4:	f4fa                	sd	t5,104(sp)
    800011b6:	f8f6                	sd	t4,112(sp)
    800011b8:	fcf2                	sd	t3,120(sp)
    800011ba:	e11a                	sd	t1,128(sp)
    800011bc:	e546                	sd	a7,136(sp)
    800011be:	e942                	sd	a6,144(sp)
    int lowpass[4] = {0x20000001, 0x20000002, 0x20000003, 0x20000004}; // 1/4 in Q1.31 format
    800011c0:	e83e                	sd	a5,16(sp)
int main(void) {
    800011c2:	e1a2                	sd	s0,192(sp)
    800011c4:	fd26                	sd	s1,184(sp)
    800011c6:	f94a                	sd	s2,176(sp)
    int32_t sin_table[20] = { // in Q1.31 format
    800011c8:	ed2e                	sd	a1,152(sp)
    800011ca:	f132                	sd	a2,160(sp)
    800011cc:	f536                	sd	a3,168(sp)
    int lowpass[4] = {0x20000001, 0x20000002, 0x20000003, 0x20000004}; // 1/4 in Q1.31 format
    800011ce:	e43a                	sd	a4,8(sp)
    setStats(1);        // record initial mcycle and minstret
    800011d0:	819ff0ef          	jal	800009e8 <setStats>
    fir(sin_table, lowpass, y, 20, 4);
    800011d4:	0830                	addi	a2,sp,24
    800011d6:	002c                	addi	a1,sp,8
    800011d8:	1088                	addi	a0,sp,96
    800011da:	4711                	li	a4,4
    800011dc:	46d1                	li	a3,20
    800011de:	ff3fe0ef          	jal	800001d0 <fir>
    setStats(0);        // record elapsed mcycle and minstret
    800011e2:	4501                	li	a0,0
    800011e4:	805ff0ef          	jal	800009e8 <setStats>
    for (int i=0; i<17; i++) {
    800011e8:	0824                	addi	s1,sp,24
    800011ea:	4401                	li	s0,0
    800011ec:	4945                	li	s2,17
        printf("y[%d] = %x\n", i, y[i]);
    800011ee:	4090                	lw	a2,0(s1)
    800011f0:	85a2                	mv	a1,s0
    800011f2:	00001517          	auipc	a0,0x1
    800011f6:	e6650513          	addi	a0,a0,-410 # 80002058 <fromhost+0x18>
    for (int i=0; i<17; i++) {
    800011fa:	2405                	addiw	s0,s0,1
        printf("y[%d] = %x\n", i, y[i]);
    800011fc:	ab7ff0ef          	jal	80000cb2 <printf>
    for (int i=0; i<17; i++) {
    80001200:	0491                	addi	s1,s1,4
    80001202:	ff2416e3          	bne	s0,s2,800011ee <main+0x78>
{
  int i;
  // Unrolled for faster verification
  for (i = 0; i < n/2*2; i+=2)
  {
    int t0 = test[i], t1 = test[i+1];
    80001206:	46e2                	lw	a3,24(sp)
    80001208:	4772                	lw	a4,28(sp)
    int v0 = verify[i], v1 = verify[i+1];
    if (t0 != v0) return i+1;
    8000120a:	4fad47b7          	lui	a5,0x4fad4
    8000120e:	f2f78793          	addi	a5,a5,-209 # 4fad3f2f <_start-0x3052c0d1>
    int t0 = test[i], t1 = test[i+1];
    80001212:	2701                	sext.w	a4,a4
    if (t0 != v0) return i+1;
    80001214:	0ef69a63          	bne	a3,a5,80001308 <main+0x192>
    if (t1 != v1) return i+2;
    80001218:	627c67b7          	lui	a5,0x627c6
    8000121c:	23678793          	addi	a5,a5,566 # 627c6236 <_start-0x1d839dca>
    80001220:	0ef71763          	bne	a4,a5,8000130e <main+0x198>
    int t0 = test[i], t1 = test[i+1];
    80001224:	5682                	lw	a3,32(sp)
    80001226:	5712                	lw	a4,36(sp)
    if (t0 != v0) return i+1;
    80001228:	4fad47b7          	lui	a5,0x4fad4
    8000122c:	f3278793          	addi	a5,a5,-206 # 4fad3f32 <_start-0x3052c0ce>
    int t0 = test[i], t1 = test[i+1];
    80001230:	2701                	sext.w	a4,a4
    if (t0 != v0) return i+1;
    80001232:	0ef69063          	bne	a3,a5,80001312 <main+0x19c>
    if (t1 != v1) return i+2;
    80001236:	1e6f17b7          	lui	a5,0x1e6f1
    8000123a:	e1778793          	addi	a5,a5,-489 # 1e6f0e17 <_start-0x6190f1e9>
    8000123e:	0cf71d63          	bne	a4,a5,80001318 <main+0x1a2>
    int t0 = test[i], t1 = test[i+1];
    80001242:	56a2                	lw	a3,40(sp)
    80001244:	5732                	lw	a4,44(sp)
    if (t0 != v0) return i+1;
    80001246:	e190f7b7          	lui	a5,0xe190f
    8000124a:	1eb78793          	addi	a5,a5,491 # ffffffffe190f1eb <__global_pointer$+0xffffffff6190c9a3>
    int t0 = test[i], t1 = test[i+1];
    8000124e:	2701                	sext.w	a4,a4
    if (t0 != v0) return i+1;
    80001250:	0cf69663          	bne	a3,a5,8000131c <main+0x1a6>
    if (t1 != v1) return i+2;
    80001254:	b052c7b7          	lui	a5,0xb052c
    80001258:	0ce78793          	addi	a5,a5,206 # ffffffffb052c0ce <__global_pointer$+0xffffffff30529886>
    8000125c:	0cf71363          	bne	a4,a5,80001322 <main+0x1ac>
    int t0 = test[i], t1 = test[i+1];
    80001260:	56c2                	lw	a3,48(sp)
    80001262:	5752                	lw	a4,52(sp)
    if (t0 != v0) return i+1;
    80001264:	9d83a7b7          	lui	a5,0x9d83a
    80001268:	dc678793          	addi	a5,a5,-570 # ffffffff9d839dc6 <__global_pointer$+0xffffffff1d83757e>
    int t0 = test[i], t1 = test[i+1];
    8000126c:	2701                	sext.w	a4,a4
    if (t0 != v0) return i+1;
    8000126e:	0af69e63          	bne	a3,a5,8000132a <main+0x1b4>
    if (t1 != v1) return i+2;
    80001272:	b052c7b7          	lui	a5,0xb052c
    80001276:	0cb78793          	addi	a5,a5,203 # ffffffffb052c0cb <__global_pointer$+0xffffffff30529883>
    8000127a:	0af71663          	bne	a4,a5,80001326 <main+0x1b0>
    int t0 = test[i], t1 = test[i+1];
    8000127e:	56e2                	lw	a3,56(sp)
    80001280:	5772                	lw	a4,60(sp)
    if (t0 != v0) return i+1;
    80001282:	e190f7b7          	lui	a5,0xe190f
    80001286:	1e678793          	addi	a5,a5,486 # ffffffffe190f1e6 <__global_pointer$+0xffffffff6190c99e>
    int t0 = test[i], t1 = test[i+1];
    8000128a:	2701                	sext.w	a4,a4
    if (t0 != v0) return i+1;
    8000128c:	0af69463          	bne	a3,a5,80001334 <main+0x1be>
    if (t1 != v1) return i+2;
    80001290:	1e6f17b7          	lui	a5,0x1e6f1
    80001294:	e1278793          	addi	a5,a5,-494 # 1e6f0e12 <_start-0x6190f1ee>
    80001298:	08f71c63          	bne	a4,a5,80001330 <main+0x1ba>
    int t0 = test[i], t1 = test[i+1];
    8000129c:	4686                	lw	a3,64(sp)
    8000129e:	4716                	lw	a4,68(sp)
    if (t0 != v0) return i+1;
    800012a0:	4fad47b7          	lui	a5,0x4fad4
    800012a4:	f2f78793          	addi	a5,a5,-209 # 4fad3f2f <_start-0x3052c0d1>
    int t0 = test[i], t1 = test[i+1];
    800012a8:	2701                	sext.w	a4,a4
    if (t0 != v0) return i+1;
    800012aa:	08f69a63          	bne	a3,a5,8000133e <main+0x1c8>
    if (t1 != v1) return i+2;
    800012ae:	627c67b7          	lui	a5,0x627c6
    800012b2:	23678793          	addi	a5,a5,566 # 627c6236 <_start-0x1d839dca>
    800012b6:	08f71263          	bne	a4,a5,8000133a <main+0x1c4>
    int t0 = test[i], t1 = test[i+1];
    800012ba:	46a6                	lw	a3,72(sp)
    800012bc:	4736                	lw	a4,76(sp)
    if (t0 != v0) return i+1;
    800012be:	4fad47b7          	lui	a5,0x4fad4
    800012c2:	f3278793          	addi	a5,a5,-206 # 4fad3f32 <_start-0x3052c0ce>
    int t0 = test[i], t1 = test[i+1];
    800012c6:	2701                	sext.w	a4,a4
    if (t0 != v0) return i+1;
    800012c8:	08f69063          	bne	a3,a5,80001348 <main+0x1d2>
    if (t1 != v1) return i+2;
    800012cc:	1e6f17b7          	lui	a5,0x1e6f1
    800012d0:	e1778793          	addi	a5,a5,-489 # 1e6f0e17 <_start-0x6190f1e9>
    800012d4:	06f71863          	bne	a4,a5,80001344 <main+0x1ce>
    int t0 = test[i], t1 = test[i+1];
    800012d8:	46c6                	lw	a3,80(sp)
    800012da:	47d6                	lw	a5,84(sp)
    if (t0 != v0) return i+1;
    800012dc:	e190f737          	lui	a4,0xe190f
    800012e0:	1eb70713          	addi	a4,a4,491 # ffffffffe190f1eb <__global_pointer$+0xffffffff6190c9a3>
    int t0 = test[i], t1 = test[i+1];
    800012e4:	2781                	sext.w	a5,a5
    if (t0 != v0) return i+1;
    800012e6:	4539                	li	a0,14
    800012e8:	02e69163          	bne	a3,a4,8000130a <main+0x194>
    if (t1 != v1) return i+2;
    800012ec:	b052c737          	lui	a4,0xb052c
    800012f0:	0ce70713          	addi	a4,a4,206 # ffffffffb052c0ce <__global_pointer$+0xffffffff30529886>
    800012f4:	8f99                	sub	a5,a5,a4
    800012f6:	00f03533          	snez	a0,a5
    800012fa:	0512                	slli	a0,a0,0x4
    }
    return verify(16, y, expected); 
// check the 1 element of s matches expected. 0 means success
}
    800012fc:	60ae                	ld	ra,200(sp)
    800012fe:	640e                	ld	s0,192(sp)
    80001300:	74ea                	ld	s1,184(sp)
    80001302:	794a                	ld	s2,176(sp)
    80001304:	6169                	addi	sp,sp,208
    80001306:	8082                	ret
  for (i = 0; i < n/2*2; i+=2)
    80001308:	4501                	li	a0,0
    if (t0 != v0) return i+1;
    8000130a:	2505                	addiw	a0,a0,1
    8000130c:	bfc5                	j	800012fc <main+0x186>
    if (t1 != v1) return i+2;
    8000130e:	4509                	li	a0,2
    80001310:	b7f5                	j	800012fc <main+0x186>
    80001312:	4509                	li	a0,2
    if (t0 != v0) return i+1;
    80001314:	2505                	addiw	a0,a0,1
    80001316:	b7dd                	j	800012fc <main+0x186>
    if (t1 != v1) return i+2;
    80001318:	4511                	li	a0,4
    8000131a:	b7cd                	j	800012fc <main+0x186>
    8000131c:	4511                	li	a0,4
    if (t0 != v0) return i+1;
    8000131e:	2505                	addiw	a0,a0,1
    80001320:	bff1                	j	800012fc <main+0x186>
    if (t1 != v1) return i+2;
    80001322:	4519                	li	a0,6
    80001324:	bfe1                	j	800012fc <main+0x186>
    80001326:	4521                	li	a0,8
    80001328:	bfd1                	j	800012fc <main+0x186>
    8000132a:	4519                	li	a0,6
    if (t0 != v0) return i+1;
    8000132c:	2505                	addiw	a0,a0,1
    8000132e:	b7f9                	j	800012fc <main+0x186>
    if (t1 != v1) return i+2;
    80001330:	4529                	li	a0,10
    80001332:	b7e9                	j	800012fc <main+0x186>
    80001334:	4521                	li	a0,8
    if (t0 != v0) return i+1;
    80001336:	2505                	addiw	a0,a0,1
    80001338:	b7d1                	j	800012fc <main+0x186>
    if (t1 != v1) return i+2;
    8000133a:	4531                	li	a0,12
    8000133c:	b7c1                	j	800012fc <main+0x186>
    8000133e:	4529                	li	a0,10
    if (t0 != v0) return i+1;
    80001340:	2505                	addiw	a0,a0,1
    80001342:	bf6d                	j	800012fc <main+0x186>
    if (t1 != v1) return i+2;
    80001344:	4539                	li	a0,14
    80001346:	bf5d                	j	800012fc <main+0x186>
    80001348:	4531                	li	a0,12
    if (t0 != v0) return i+1;
    8000134a:	2505                	addiw	a0,a0,1
    8000134c:	bf45                	j	800012fc <main+0x186>
	while (!(*UART_LSR & (1<<5))); // wait for THRE (trans hold reg empty)
    8000134e:	10000737          	lui	a4,0x10000
    80001352:	0715                	addi	a4,a4,5 # 10000005 <_start-0x6ffffffb>
    while (*str) {
    80001354:	04900613          	li	a2,73
    80001358:	00001697          	auipc	a3,0x1
    8000135c:	d3868693          	addi	a3,a3,-712 # 80002090 <fromhost+0x50>
	while (!(*UART_LSR & (1<<5))); // wait for THRE (trans hold reg empty)
    80001360:	100005b7          	lui	a1,0x10000
        uartSend(*str++);
    80001364:	0685                	addi	a3,a3,1
	while (!(*UART_LSR & (1<<5))); // wait for THRE (trans hold reg empty)
    80001366:	00074783          	lbu	a5,0(a4)
    8000136a:	0207f793          	andi	a5,a5,32
    8000136e:	dfe5                	beqz	a5,80001366 <main+0x1f0>
	*UART_THR = c;
    80001370:	00c58023          	sb	a2,0(a1) # 10000000 <_start-0x70000000>
    while (*str) {
    80001374:	0006c603          	lbu	a2,0(a3)
    80001378:	f675                	bnez	a2,80001364 <main+0x1ee>
}
    8000137a:	557d                	li	a0,-1
    8000137c:	8082                	ret

Disassembly of section .tohost:

0000000080002000 <tohost>:
	...

0000000080002040 <fromhost>:
	...

Disassembly of section .sdata:

0000000080002048 <__global_pointer$-0x800>:
    80002048:	0001                	nop
    8000204a:	2000                	fld	fs0,0(s0)
    8000204c:	0002                	c.slli64	zero
    8000204e:	2000                	fld	fs0,0(s0)
    80002050:	20000003          	lb	zero,512(zero) # 200 <_start-0x7ffffe00>
    80002054:	0004                	.insn	2, 0x0004
    80002056:	2000                	fld	fs0,0(s0)

Disassembly of section .rodata.str1.8:

0000000080002058 <.rodata.str1.8>:
    80002058:	5b79                	li	s6,-2
    8000205a:	6425                	lui	s0,0x9
    8000205c:	205d                	.insn	2, 0x205d
    8000205e:	203d                	.insn	2, 0x203d
    80002060:	7825                	lui	a6,0xfffe9
    80002062:	000a                	c.slli	zero,0x2
    80002064:	0000                	unimp
    80002066:	0000                	unimp
    80002068:	6e28                	ld	a0,88(a2)
    8000206a:	6c75                	lui	s8,0x1d
    8000206c:	296c                	fld	fa1,208(a0)
	...
    80002076:	0000                	unimp
    80002078:	636d                	lui	t1,0x1b
    8000207a:	6379                	lui	t1,0x1e
    8000207c:	656c                	ld	a1,200(a0)
    8000207e:	0000                	unimp
    80002080:	696d                	lui	s2,0x1b
    80002082:	736e                	ld	t1,248(sp)
    80002084:	7274                	ld	a3,224(a2)
    80002086:	7465                	lui	s0,0xffff9
	...
    80002090:	6d49                	lui	s10,0x12
    80002092:	6c70                	ld	a2,216(s0)
    80002094:	6d65                	lui	s10,0x19
    80002096:	6e65                	lui	t3,0x19
    80002098:	2074                	fld	fa3,192(s0)
    8000209a:	616d                	addi	sp,sp,240
    8000209c:	6e69                	lui	t3,0x1a
    8000209e:	2928                	fld	fa0,80(a0)
    800020a0:	202c                	fld	fa1,64(s0)
    800020a2:	6f66                	ld	t5,88(sp)
    800020a4:	000a216f          	jal	sp,800a40a4 <__global_pointer$+0xa185c>
    800020a8:	7325                	lui	t1,0xfffe9
    800020aa:	3d20                	fld	fs0,120(a0)
    800020ac:	2520                	fld	fs0,72(a0)
    800020ae:	0a64                	addi	s1,sp,284
	...

Disassembly of section .rodata:

00000000800020b8 <.rodata>:
    800020b8:	0000                	unimp
    800020ba:	0000                	unimp
    800020bc:	8c12                	mv	s8,tp
    800020be:	4b3c                	lw	a5,80(a4)
    800020c0:	384d                	addiw	a6,a6,-13 # fffffffffffe8ff3 <__global_pointer$+0xffffffff7ffe67ab>
    800020c2:	79bc                	ld	a5,112(a1)
    800020c4:	384d                	addiw	a6,a6,-13
    800020c6:	79bc                	ld	a5,112(a1)
    800020c8:	8c12                	mv	s8,tp
    800020ca:	4b3c                	lw	a5,80(a4)
    800020cc:	0000                	unimp
    800020ce:	0000                	unimp
    800020d0:	73ee                	ld	t2,248(sp)
    800020d2:	c7b3b4c3          	.insn	4, 0xc7b3b4c3
    800020d6:	c7b38643          	.insn	4, 0xc7b38643
    800020da:	73ee8643          	fmadd.d	fa2,ft9,ft10,fa4,rne
    800020de:	0000b4c3          	fmadd.s	fs1,ft1,ft0,ft0,rup
    800020e2:	0000                	unimp
    800020e4:	8c12                	mv	s8,tp
    800020e6:	4b3c                	lw	a5,80(a4)
    800020e8:	384d                	addiw	a6,a6,-13
    800020ea:	79bc                	ld	a5,112(a1)
    800020ec:	384d                	addiw	a6,a6,-13
    800020ee:	79bc                	ld	a5,112(a1)
    800020f0:	8c12                	mv	s8,tp
    800020f2:	4b3c                	lw	a5,80(a4)
    800020f4:	0000                	unimp
    800020f6:	0000                	unimp
    800020f8:	73ee                	ld	t2,248(sp)
    800020fa:	c7b3b4c3          	.insn	4, 0xc7b3b4c3
    800020fe:	c7b38643          	.insn	4, 0xc7b38643
    80002102:	73ee8643          	fmadd.d	fa2,ft9,ft10,fa4,rne
    80002106:	e22ab4c3          	fmadd.d	fs1,fs5,ft2,ft8,rup
    8000210a:	ffff                	.insn	2, 0xffff
    8000210c:	e1cc                	sd	a1,128(a1)
    8000210e:	ffff                	.insn	2, 0xffff
    80002110:	e232                	sd	a2,256(sp)
    80002112:	ffff                	.insn	2, 0xffff
    80002114:	e1cc                	sd	a1,128(a1)
    80002116:	ffff                	.insn	2, 0xffff
    80002118:	e1cc                	sd	a1,128(a1)
    8000211a:	ffff                	.insn	2, 0xffff
    8000211c:	e1cc                	sd	a1,128(a1)
    8000211e:	ffff                	.insn	2, 0xffff
    80002120:	e1cc                	sd	a1,128(a1)
    80002122:	ffff                	.insn	2, 0xffff
    80002124:	e244                	sd	s1,128(a2)
    80002126:	ffff                	.insn	2, 0xffff
    80002128:	e1cc                	sd	a1,128(a1)
    8000212a:	ffff                	.insn	2, 0xffff
    8000212c:	e1cc                	sd	a1,128(a1)
    8000212e:	ffff                	.insn	2, 0xffff
    80002130:	e1b4                	sd	a3,64(a1)
    80002132:	ffff                	.insn	2, 0xffff
    80002134:	e41a                	sd	t1,8(sp)
    80002136:	ffff                	.insn	2, 0xffff
    80002138:	e1cc                	sd	a1,128(a1)
    8000213a:	ffff                	.insn	2, 0xffff
    8000213c:	e1b4                	sd	a3,64(a1)
    8000213e:	ffff                	.insn	2, 0xffff
    80002140:	e1e0                	sd	s0,192(a1)
    80002142:	ffff                	.insn	2, 0xffff
    80002144:	e1e0                	sd	s0,192(a1)
    80002146:	ffff                	.insn	2, 0xffff
    80002148:	e1e0                	sd	s0,192(a1)
    8000214a:	ffff                	.insn	2, 0xffff
    8000214c:	e1e0                	sd	s0,192(a1)
    8000214e:	ffff                	.insn	2, 0xffff
    80002150:	e1e0                	sd	s0,192(a1)
    80002152:	ffff                	.insn	2, 0xffff
    80002154:	e1e0                	sd	s0,192(a1)
    80002156:	ffff                	.insn	2, 0xffff
    80002158:	e1e0                	sd	s0,192(a1)
    8000215a:	ffff                	.insn	2, 0xffff
    8000215c:	e1e0                	sd	s0,192(a1)
    8000215e:	ffff                	.insn	2, 0xffff
    80002160:	e1e0                	sd	s0,192(a1)
    80002162:	ffff                	.insn	2, 0xffff
    80002164:	e1cc                	sd	a1,128(a1)
    80002166:	ffff                	.insn	2, 0xffff
    80002168:	e1cc                	sd	a1,128(a1)
    8000216a:	ffff                	.insn	2, 0xffff
    8000216c:	e1cc                	sd	a1,128(a1)
    8000216e:	ffff                	.insn	2, 0xffff
    80002170:	e1cc                	sd	a1,128(a1)
    80002172:	ffff                	.insn	2, 0xffff
    80002174:	e1cc                	sd	a1,128(a1)
    80002176:	ffff                	.insn	2, 0xffff
    80002178:	e1cc                	sd	a1,128(a1)
    8000217a:	ffff                	.insn	2, 0xffff
    8000217c:	e1cc                	sd	a1,128(a1)
    8000217e:	ffff                	.insn	2, 0xffff
    80002180:	e1cc                	sd	a1,128(a1)
    80002182:	ffff                	.insn	2, 0xffff
    80002184:	e1cc                	sd	a1,128(a1)
    80002186:	ffff                	.insn	2, 0xffff
    80002188:	e1cc                	sd	a1,128(a1)
    8000218a:	ffff                	.insn	2, 0xffff
    8000218c:	e1cc                	sd	a1,128(a1)
    8000218e:	ffff                	.insn	2, 0xffff
    80002190:	e1cc                	sd	a1,128(a1)
    80002192:	ffff                	.insn	2, 0xffff
    80002194:	e1cc                	sd	a1,128(a1)
    80002196:	ffff                	.insn	2, 0xffff
    80002198:	e1cc                	sd	a1,128(a1)
    8000219a:	ffff                	.insn	2, 0xffff
    8000219c:	e1cc                	sd	a1,128(a1)
    8000219e:	ffff                	.insn	2, 0xffff
    800021a0:	e1cc                	sd	a1,128(a1)
    800021a2:	ffff                	.insn	2, 0xffff
    800021a4:	e1cc                	sd	a1,128(a1)
    800021a6:	ffff                	.insn	2, 0xffff
    800021a8:	e1cc                	sd	a1,128(a1)
    800021aa:	ffff                	.insn	2, 0xffff
    800021ac:	e1cc                	sd	a1,128(a1)
    800021ae:	ffff                	.insn	2, 0xffff
    800021b0:	e1cc                	sd	a1,128(a1)
    800021b2:	ffff                	.insn	2, 0xffff
    800021b4:	e1cc                	sd	a1,128(a1)
    800021b6:	ffff                	.insn	2, 0xffff
    800021b8:	e1cc                	sd	a1,128(a1)
    800021ba:	ffff                	.insn	2, 0xffff
    800021bc:	e1cc                	sd	a1,128(a1)
    800021be:	ffff                	.insn	2, 0xffff
    800021c0:	e1cc                	sd	a1,128(a1)
    800021c2:	ffff                	.insn	2, 0xffff
    800021c4:	e1cc                	sd	a1,128(a1)
    800021c6:	ffff                	.insn	2, 0xffff
    800021c8:	e1cc                	sd	a1,128(a1)
    800021ca:	ffff                	.insn	2, 0xffff
    800021cc:	e1cc                	sd	a1,128(a1)
    800021ce:	ffff                	.insn	2, 0xffff
    800021d0:	e1cc                	sd	a1,128(a1)
    800021d2:	ffff                	.insn	2, 0xffff
    800021d4:	e1cc                	sd	a1,128(a1)
    800021d6:	ffff                	.insn	2, 0xffff
    800021d8:	e1cc                	sd	a1,128(a1)
    800021da:	ffff                	.insn	2, 0xffff
    800021dc:	e1cc                	sd	a1,128(a1)
    800021de:	ffff                	.insn	2, 0xffff
    800021e0:	e1cc                	sd	a1,128(a1)
    800021e2:	ffff                	.insn	2, 0xffff
    800021e4:	e1cc                	sd	a1,128(a1)
    800021e6:	ffff                	.insn	2, 0xffff
    800021e8:	e1cc                	sd	a1,128(a1)
    800021ea:	ffff                	.insn	2, 0xffff
    800021ec:	e1cc                	sd	a1,128(a1)
    800021ee:	ffff                	.insn	2, 0xffff
    800021f0:	e1cc                	sd	a1,128(a1)
    800021f2:	ffff                	.insn	2, 0xffff
    800021f4:	e1cc                	sd	a1,128(a1)
    800021f6:	ffff                	.insn	2, 0xffff
    800021f8:	e1cc                	sd	a1,128(a1)
    800021fa:	ffff                	.insn	2, 0xffff
    800021fc:	e1cc                	sd	a1,128(a1)
    800021fe:	ffff                	.insn	2, 0xffff
    80002200:	e1cc                	sd	a1,128(a1)
    80002202:	ffff                	.insn	2, 0xffff
    80002204:	e1cc                	sd	a1,128(a1)
    80002206:	ffff                	.insn	2, 0xffff
    80002208:	e42e                	sd	a1,8(sp)
    8000220a:	ffff                	.insn	2, 0xffff
    8000220c:	e2ec                	sd	a1,192(a3)
    8000220e:	ffff                	.insn	2, 0xffff
    80002210:	e1cc                	sd	a1,128(a1)
    80002212:	ffff                	.insn	2, 0xffff
    80002214:	e1cc                	sd	a1,128(a1)
    80002216:	ffff                	.insn	2, 0xffff
    80002218:	e1cc                	sd	a1,128(a1)
    8000221a:	ffff                	.insn	2, 0xffff
    8000221c:	e1cc                	sd	a1,128(a1)
    8000221e:	ffff                	.insn	2, 0xffff
    80002220:	e1cc                	sd	a1,128(a1)
    80002222:	ffff                	.insn	2, 0xffff
    80002224:	e1cc                	sd	a1,128(a1)
    80002226:	ffff                	.insn	2, 0xffff
    80002228:	e1cc                	sd	a1,128(a1)
    8000222a:	ffff                	.insn	2, 0xffff
    8000222c:	e308                	sd	a0,0(a4)
    8000222e:	ffff                	.insn	2, 0xffff
    80002230:	e1cc                	sd	a1,128(a1)
    80002232:	ffff                	.insn	2, 0xffff
    80002234:	e1cc                	sd	a1,128(a1)
    80002236:	ffff                	.insn	2, 0xffff
    80002238:	e44c                	sd	a1,136(s0)
    8000223a:	ffff                	.insn	2, 0xffff
    8000223c:	e250                	sd	a2,128(a2)
    8000223e:	ffff                	.insn	2, 0xffff
    80002240:	e1cc                	sd	a1,128(a1)
    80002242:	ffff                	.insn	2, 0xffff
    80002244:	e1cc                	sd	a1,128(a1)
    80002246:	ffff                	.insn	2, 0xffff
    80002248:	e32c                	sd	a1,64(a4)
    8000224a:	ffff                	.insn	2, 0xffff
    8000224c:	e1cc                	sd	a1,128(a1)
    8000224e:	ffff                	.insn	2, 0xffff
    80002250:	e448                	sd	a0,136(s0)
    80002252:	ffff                	.insn	2, 0xffff
    80002254:	e1cc                	sd	a1,128(a1)
    80002256:	ffff                	.insn	2, 0xffff
    80002258:	e1cc                	sd	a1,128(a1)
    8000225a:	ffff                	.insn	2, 0xffff
    8000225c:	e312                	sd	tp,384(sp)
    8000225e:	ffff                	.insn	2, 0xffff
    80002260:	e450                	sd	a2,136(s0)
    80002262:	ffff                	.insn	2, 0xffff
    80002264:	e39a                	sd	t1,448(sp)
    80002266:	ffff                	.insn	2, 0xffff
    80002268:	e704                	sd	s1,8(a4)
    8000226a:	ffff                	.insn	2, 0xffff
    8000226c:	e39a                	sd	t1,448(sp)
    8000226e:	ffff                	.insn	2, 0xffff
    80002270:	e39a                	sd	t1,448(sp)
    80002272:	ffff                	.insn	2, 0xffff
    80002274:	e39a                	sd	t1,448(sp)
    80002276:	ffff                	.insn	2, 0xffff
    80002278:	e39a                	sd	t1,448(sp)
    8000227a:	ffff                	.insn	2, 0xffff
    8000227c:	e458                	sd	a4,136(s0)
    8000227e:	ffff                	.insn	2, 0xffff
    80002280:	e39a                	sd	t1,448(sp)
    80002282:	ffff                	.insn	2, 0xffff
    80002284:	e39a                	sd	t1,448(sp)
    80002286:	ffff                	.insn	2, 0xffff
    80002288:	e382                	sd	zero,448(sp)
    8000228a:	ffff                	.insn	2, 0xffff
    8000228c:	e464                	sd	s1,200(s0)
    8000228e:	ffff                	.insn	2, 0xffff
    80002290:	e39a                	sd	t1,448(sp)
    80002292:	ffff                	.insn	2, 0xffff
    80002294:	e382                	sd	zero,448(sp)
    80002296:	ffff                	.insn	2, 0xffff
    80002298:	e408                	sd	a0,8(s0)
    8000229a:	ffff                	.insn	2, 0xffff
    8000229c:	e408                	sd	a0,8(s0)
    8000229e:	ffff                	.insn	2, 0xffff
    800022a0:	e408                	sd	a0,8(s0)
    800022a2:	ffff                	.insn	2, 0xffff
    800022a4:	e408                	sd	a0,8(s0)
    800022a6:	ffff                	.insn	2, 0xffff
    800022a8:	e408                	sd	a0,8(s0)
    800022aa:	ffff                	.insn	2, 0xffff
    800022ac:	e408                	sd	a0,8(s0)
    800022ae:	ffff                	.insn	2, 0xffff
    800022b0:	e408                	sd	a0,8(s0)
    800022b2:	ffff                	.insn	2, 0xffff
    800022b4:	e408                	sd	a0,8(s0)
    800022b6:	ffff                	.insn	2, 0xffff
    800022b8:	e408                	sd	a0,8(s0)
    800022ba:	ffff                	.insn	2, 0xffff
    800022bc:	e39a                	sd	t1,448(sp)
    800022be:	ffff                	.insn	2, 0xffff
    800022c0:	e39a                	sd	t1,448(sp)
    800022c2:	ffff                	.insn	2, 0xffff
    800022c4:	e39a                	sd	t1,448(sp)
    800022c6:	ffff                	.insn	2, 0xffff
    800022c8:	e39a                	sd	t1,448(sp)
    800022ca:	ffff                	.insn	2, 0xffff
    800022cc:	e39a                	sd	t1,448(sp)
    800022ce:	ffff                	.insn	2, 0xffff
    800022d0:	e39a                	sd	t1,448(sp)
    800022d2:	ffff                	.insn	2, 0xffff
    800022d4:	e39a                	sd	t1,448(sp)
    800022d6:	ffff                	.insn	2, 0xffff
    800022d8:	e39a                	sd	t1,448(sp)
    800022da:	ffff                	.insn	2, 0xffff
    800022dc:	e39a                	sd	t1,448(sp)
    800022de:	ffff                	.insn	2, 0xffff
    800022e0:	e39a                	sd	t1,448(sp)
    800022e2:	ffff                	.insn	2, 0xffff
    800022e4:	e39a                	sd	t1,448(sp)
    800022e6:	ffff                	.insn	2, 0xffff
    800022e8:	e39a                	sd	t1,448(sp)
    800022ea:	ffff                	.insn	2, 0xffff
    800022ec:	e39a                	sd	t1,448(sp)
    800022ee:	ffff                	.insn	2, 0xffff
    800022f0:	e39a                	sd	t1,448(sp)
    800022f2:	ffff                	.insn	2, 0xffff
    800022f4:	e39a                	sd	t1,448(sp)
    800022f6:	ffff                	.insn	2, 0xffff
    800022f8:	e39a                	sd	t1,448(sp)
    800022fa:	ffff                	.insn	2, 0xffff
    800022fc:	e39a                	sd	t1,448(sp)
    800022fe:	ffff                	.insn	2, 0xffff
    80002300:	e39a                	sd	t1,448(sp)
    80002302:	ffff                	.insn	2, 0xffff
    80002304:	e39a                	sd	t1,448(sp)
    80002306:	ffff                	.insn	2, 0xffff
    80002308:	e39a                	sd	t1,448(sp)
    8000230a:	ffff                	.insn	2, 0xffff
    8000230c:	e39a                	sd	t1,448(sp)
    8000230e:	ffff                	.insn	2, 0xffff
    80002310:	e39a                	sd	t1,448(sp)
    80002312:	ffff                	.insn	2, 0xffff
    80002314:	e39a                	sd	t1,448(sp)
    80002316:	ffff                	.insn	2, 0xffff
    80002318:	e39a                	sd	t1,448(sp)
    8000231a:	ffff                	.insn	2, 0xffff
    8000231c:	e39a                	sd	t1,448(sp)
    8000231e:	ffff                	.insn	2, 0xffff
    80002320:	e39a                	sd	t1,448(sp)
    80002322:	ffff                	.insn	2, 0xffff
    80002324:	e39a                	sd	t1,448(sp)
    80002326:	ffff                	.insn	2, 0xffff
    80002328:	e39a                	sd	t1,448(sp)
    8000232a:	ffff                	.insn	2, 0xffff
    8000232c:	e39a                	sd	t1,448(sp)
    8000232e:	ffff                	.insn	2, 0xffff
    80002330:	e39a                	sd	t1,448(sp)
    80002332:	ffff                	.insn	2, 0xffff
    80002334:	e39a                	sd	t1,448(sp)
    80002336:	ffff                	.insn	2, 0xffff
    80002338:	e39a                	sd	t1,448(sp)
    8000233a:	ffff                	.insn	2, 0xffff
    8000233c:	e39a                	sd	t1,448(sp)
    8000233e:	ffff                	.insn	2, 0xffff
    80002340:	e39a                	sd	t1,448(sp)
    80002342:	ffff                	.insn	2, 0xffff
    80002344:	e39a                	sd	t1,448(sp)
    80002346:	ffff                	.insn	2, 0xffff
    80002348:	e39a                	sd	t1,448(sp)
    8000234a:	ffff                	.insn	2, 0xffff
    8000234c:	e39a                	sd	t1,448(sp)
    8000234e:	ffff                	.insn	2, 0xffff
    80002350:	e39a                	sd	t1,448(sp)
    80002352:	ffff                	.insn	2, 0xffff
    80002354:	e39a                	sd	t1,448(sp)
    80002356:	ffff                	.insn	2, 0xffff
    80002358:	e39a                	sd	t1,448(sp)
    8000235a:	ffff                	.insn	2, 0xffff
    8000235c:	e39a                	sd	t1,448(sp)
    8000235e:	ffff                	.insn	2, 0xffff
    80002360:	e634                	sd	a3,72(a2)
    80002362:	ffff                	.insn	2, 0xffff
    80002364:	e5f6                	sd	t4,200(sp)
    80002366:	ffff                	.insn	2, 0xffff
    80002368:	e39a                	sd	t1,448(sp)
    8000236a:	ffff                	.insn	2, 0xffff
    8000236c:	e39a                	sd	t1,448(sp)
    8000236e:	ffff                	.insn	2, 0xffff
    80002370:	e39a                	sd	t1,448(sp)
    80002372:	ffff                	.insn	2, 0xffff
    80002374:	e39a                	sd	t1,448(sp)
    80002376:	ffff                	.insn	2, 0xffff
    80002378:	e39a                	sd	t1,448(sp)
    8000237a:	ffff                	.insn	2, 0xffff
    8000237c:	e39a                	sd	t1,448(sp)
    8000237e:	ffff                	.insn	2, 0xffff
    80002380:	e39a                	sd	t1,448(sp)
    80002382:	ffff                	.insn	2, 0xffff
    80002384:	e5ec                	sd	a1,200(a1)
    80002386:	ffff                	.insn	2, 0xffff
    80002388:	e39a                	sd	t1,448(sp)
    8000238a:	ffff                	.insn	2, 0xffff
    8000238c:	e39a                	sd	t1,448(sp)
    8000238e:	ffff                	.insn	2, 0xffff
    80002390:	e700                	sd	s0,8(a4)
    80002392:	ffff                	.insn	2, 0xffff
    80002394:	e65a                	sd	s6,264(sp)
    80002396:	ffff                	.insn	2, 0xffff
    80002398:	e39a                	sd	t1,448(sp)
    8000239a:	ffff                	.insn	2, 0xffff
    8000239c:	e39a                	sd	t1,448(sp)
    8000239e:	ffff                	.insn	2, 0xffff
    800023a0:	e520                	sd	s0,72(a0)
    800023a2:	ffff                	.insn	2, 0xffff
    800023a4:	e39a                	sd	t1,448(sp)
    800023a6:	ffff                	.insn	2, 0xffff
    800023a8:	e6fc                	sd	a5,200(a3)
    800023aa:	ffff                	.insn	2, 0xffff
    800023ac:	e39a                	sd	t1,448(sp)
    800023ae:	ffff                	.insn	2, 0xffff
    800023b0:	e39a                	sd	t1,448(sp)
    800023b2:	ffff                	.insn	2, 0xffff
    800023b4:	e478                	sd	a4,200(s0)
    800023b6:	ffff                	.insn	2, 0xffff

Disassembly of section .debug_info:

0000000000000000 <_tbss_end-0x800023d8>:
       0:	00000487          	.insn	4, 0x0487
       4:	0005                	c.nop	1
       6:	0801                	addi	a6,a6,0
       8:	0000                	unimp
       a:	0000                	unimp
       c:	931a                	add	t1,t1,t1
       e:	0000                	unimp
      10:	1d00                	addi	s0,sp,688
      12:	0031                	c.nop	12
      14:	0000                	unimp
      16:	0000                	unimp
      18:	0000                	unimp
      1a:	0070                	addi	a2,sp,12
	...
      28:	0000                	unimp
      2a:	0101                	addi	sp,sp,0
      2c:	4906                	lw	s2,64(sp)
      2e:	0000                	unimp
      30:	0100                	addi	s0,sp,128
      32:	0801                	addi	a6,a6,0
      34:	00000047          	fmsub.s	ft0,ft0,ft0,ft0,rne
      38:	0201                	addi	tp,tp,0 # 0 <_start-0x80000000>
      3a:	2b05                	addiw	s6,s6,1
      3c:	0001                	nop
      3e:	0100                	addi	s0,sp,128
      40:	0702                	c.slli64	a4
      42:	0025                	c.nop	9
      44:	0000                	unimp
      46:	0010                	.insn	2, 0x0010
      48:	0000                	unimp
      4a:	0300                	addi	s0,sp,384
      4c:	184d                	addi	a6,a6,-13
      4e:	0052                	c.slli	zero,0x14
      50:	0000                	unimp
      52:	6905041b          	addiw	s0,a0,1680
      56:	746e                	ld	s0,248(sp)
      58:	1c00                	addi	s0,sp,560
      5a:	0052                	c.slli	zero,0x14
      5c:	0000                	unimp
      5e:	590a                	lw	s2,160(sp)
      60:	0000                	unimp
      62:	0a00                	addi	s0,sp,272
      64:	0052                	c.slli	zero,0x14
      66:	0000                	unimp
      68:	0401                	addi	s0,s0,0 # ffffffffffff9000 <__global_pointer$+0xffffffff7fff67b8>
      6a:	00006907          	.insn	4, 0x6907
      6e:	0100                	addi	s0,sp,128
      70:	0508                	addi	a0,sp,640
      72:	0082                	c.slli64	ra
      74:	0000                	unimp
      76:	0801                	addi	a6,a6,0
      78:	00006407          	.insn	4, 0x6407
      7c:	0100                	addi	s0,sp,128
      7e:	0508                	addi	a0,sp,640
      80:	007d                	c.nop	31
      82:	0000                	unimp
      84:	1001                	c.nop	-32
      86:	3504                	fld	fs1,40(a0)
      88:	0001                	nop
      8a:	0100                	addi	s0,sp,128
      8c:	0801                	addi	a6,a6,0
      8e:	0050                	addi	a2,sp,4
      90:	0000                	unimp
      92:	8b0a                	mv	s6,sp
      94:	0000                	unimp
      96:	0700                	addi	s0,sp,896
      98:	0092                	slli	ra,ra,0x4
      9a:	0000                	unimp
      9c:	0801                	addi	a6,a6,0
      9e:	00005f07          	.insn	4, 0x5f07
      a2:	1000                	addi	s0,sp,32
      a4:	0002                	c.slli64	zero
      a6:	0000                	unimp
      a8:	2c04                	fld	fs1,24(s0)
      aa:	00004613          	xori	a2,zero,0
      ae:	1d00                	addi	s0,sp,688
      b0:	02d6                	slli	t0,t0,0x15
      b2:	0000                	unimp
      b4:	ce05                	beqz	a2,ec <_start-0x7fffff14>
      b6:	5205                	li	tp,-31
      b8:	0000                	unimp
      ba:	c600                	sw	s0,8(a2)
      bc:	0000                	unimp
      be:	1100                	addi	s0,sp,160
      c0:	00000097          	auipc	ra,0x0
      c4:	001e                	c.slli	zero,0x7
      c6:	411f 0001 0200      	.insn	6, 0x02000001411f
      cc:	0d06                	slli	s10,s10,0x1
      ce:	00d8                	addi	a4,sp,68
      d0:	0000                	unimp
      d2:	5211                	li	tp,-28
      d4:	0000                	unimp
      d6:	0000                	unimp
      d8:	5520                	lw	s0,104(a0)
      da:	0000                	unimp
      dc:	0100                	addi	s0,sp,128
      de:	0526                	slli	a0,a0,0x9
      e0:	0052                	c.slli	zero,0x14
      e2:	0000                	unimp
      e4:	1176                	slli	sp,sp,0x3d
      e6:	8000                	.insn	2, 0x8000
      e8:	0000                	unimp
      ea:	0000                	unimp
      ec:	01d8                	addi	a4,sp,196
      ee:	0000                	unimp
      f0:	0000                	unimp
      f2:	0000                	unimp
      f4:	9c01                	subw	s0,s0,s0
      f6:	0000022f          	.insn	4, 0x022f
      fa:	1212                	slli	tp,tp,0x24
      fc:	0000                	unimp
      fe:	2700                	fld	fs0,8(a4)
     100:	2f0d                	addiw	t5,t5,3
     102:	0002                	c.slli64	zero
     104:	0300                	addi	s0,sp,384
     106:	9091                	srli	s1,s1,0x24
     108:	008b127f 093d0000 	.insn	12, 0x023f093d0000008b127f
     110:	0000023f 
     114:	7eb89103          	lh	sp,2027(a7)
     118:	7921                	lui	s2,0xfffe8
     11a:	0100                	addi	s0,sp,128
     11c:	093e                	slli	s2,s2,0xf
     11e:	0000024f          	fnmadd.s	ft4,ft0,ft0,ft0,rne
     122:	7ec89103          	lh	sp,2028(a7)
     126:	00001c0b          	.insn	4, 0x1c0b
     12a:	3f00                	fld	fs0,56(a4)
     12c:	4f09                	li	t5,2
     12e:	0002                	c.slli64	zero
     130:	2200                	fld	fs0,0(a2)
     132:	11e8                	addi	a0,sp,236
     134:	8000                	.insn	2, 0x8000
     136:	0000                	unimp
     138:	0000                	unimp
     13a:	001e                	c.slli	zero,0x7
     13c:	0000                	unimp
     13e:	0000                	unimp
     140:	0000                	unimp
     142:	0000016f          	jal	sp,142 <_start-0x7ffffebe>
     146:	690c                	ld	a1,16(a0)
     148:	5500                	lw	s0,40(a0)
     14a:	520e                	lw	tp,224(sp)
     14c:	0000                	unimp
     14e:	0c00                	addi	s0,sp,528
     150:	0000                	unimp
     152:	1300                	addi	s0,sp,416
     154:	1200                	addi	s0,sp,288
     156:	8000                	.insn	2, 0x8000
     158:	0000                	unimp
     15a:	0000                	unimp
     15c:	000000af          	.insn	4, 0x00af
     160:	095a0103          	lb	sp,149(s4)
     164:	00205803          	lhu	a6,2(zero) # 2 <_start-0x7ffffffe>
     168:	0080                	addi	s0,sp,64
     16a:	0000                	unimp
     16c:	0000                	unimp
     16e:	1400                	addi	s0,sp,544
     170:	03a9                	addi	t2,t2,10
     172:	0000                	unimp
     174:	1206                	slli	tp,tp,0x21
     176:	8000                	.insn	2, 0x8000
     178:	0000                	unimp
     17a:	0000                	unimp
     17c:	0000002f          	.insn	4, 0x002f
     180:	0c58                	addi	a4,sp,532
     182:	000001d3          	fadd.s	ft3,ft0,ft0,rne
     186:	ba05                	j	fffffffffffffab6 <__global_pointer$+0xffffffff7fffd26e>
     188:	05000003          	lb	zero,80(zero) # 50 <_start-0x7fffffb0>
     18c:	03c4                	addi	s1,sp,452
     18e:	0000                	unimp
     190:	ce05                	beqz	a2,1c8 <_start-0x7ffffe38>
     192:	0d000003          	lb	zero,208(zero) # d0 <_start-0x7fffff30>
     196:	0000002f          	.insn	4, 0x002f
     19a:	d802                	sw	zero,48(sp)
     19c:	33000003          	lb	zero,816(zero) # 330 <_start-0x7ffffcd0>
     1a0:	0000                	unimp
     1a2:	2300                	fld	fs0,0(a4)
     1a4:	03e2                	slli	t2,t2,0x18
     1a6:	0000                	unimp
     1a8:	0042                	c.slli	zero,0x10
     1aa:	0000                	unimp
     1ac:	e302                	sd	zero,384(sp)
     1ae:	b4000003          	lb	zero,-1216(zero) # fffffffffffffb40 <__global_pointer$+0xffffffff7fffd2f8>
     1b2:	0000                	unimp
     1b4:	0200                	addi	s0,sp,256
     1b6:	03ee                	slli	t2,t2,0x1b
     1b8:	0000                	unimp
     1ba:	000000cb          	fnmsub.s	ft1,ft0,ft0,ft0,rne
     1be:	f902                	sd	zero,176(sp)
     1c0:	1f000003          	lb	zero,496(zero) # 1f0 <_start-0x7ffffe10>
     1c4:	0001                	nop
     1c6:	0200                	addi	s0,sp,256
     1c8:	0404                	addi	s1,sp,512
     1ca:	0000                	unimp
     1cc:	01e0                	addi	s0,sp,204
     1ce:	0000                	unimp
     1d0:	0000                	unimp
     1d2:	1500                	addi	s0,sp,672
     1d4:	11d4                	addi	a3,sp,228
     1d6:	8000                	.insn	2, 0x8000
     1d8:	0000                	unimp
     1da:	0000                	unimp
     1dc:	00c6                	slli	ra,ra,0x11
     1de:	0000                	unimp
     1e0:	01ea                	slli	gp,gp,0x1a
     1e2:	0000                	unimp
     1e4:	015a0103          	lb	sp,21(s4)
     1e8:	0031                	c.nop	12
     1ea:	e215                	bnez	a2,20e <_start-0x7ffffdf2>
     1ec:	0011                	c.nop	4
     1ee:	0080                	addi	s0,sp,64
     1f0:	0000                	unimp
     1f2:	5f00                	lw	s0,56(a4)
     1f4:	0002                	c.slli64	zero
     1f6:	1b00                	addi	s0,sp,432
     1f8:	0002                	c.slli64	zero
     1fa:	0300                	addi	s0,sp,384
     1fc:	5a01                	li	s4,-32
     1fe:	7f909103          	lh	sp,2041(ra) # 8b9 <_start-0x7ffff747>
     202:	035b0103          	lb	sp,53(s6)
     206:	b891                	j	fffffffffffffa5a <__global_pointer$+0xffffffff7fffd212>
     208:	037e                	slli	t1,t1,0x1f
     20a:	5c01                	li	s8,-32
     20c:	7ec89103          	lh	sp,2028(a7)
     210:	015d0103          	lb	sp,21(s10) # 19015 <_start-0x7ffe6feb>
     214:	0344                	addi	s1,sp,388
     216:	5e01                	li	t3,-32
     218:	3401                	addiw	s0,s0,-32
     21a:	1300                	addi	s0,sp,416
     21c:	11e8                	addi	a0,sp,236
     21e:	8000                	.insn	2, 0x8000
     220:	0000                	unimp
     222:	0000                	unimp
     224:	00c6                	slli	ra,ra,0x11
     226:	0000                	unimp
     228:	015a0103          	lb	sp,21(s4)
     22c:	0030                	addi	a2,sp,8
     22e:	0e00                	addi	s0,sp,784
     230:	000000a3          	sb	zero,1(zero) # 1 <_start-0x7fffffff>
     234:	0000023f 0000760f 	.insn	8, 0x760f0000023f
     23c:	1300                	addi	s0,sp,416
     23e:	0e00                	addi	s0,sp,784
     240:	0052                	c.slli	zero,0x14
     242:	0000                	unimp
     244:	0000024f          	fnmadd.s	ft4,ft0,ft0,ft0,rne
     248:	0000760f          	.insn	4, 0x760f
     24c:	0300                	addi	s0,sp,384
     24e:	0e00                	addi	s0,sp,784
     250:	0052                	c.slli	zero,0x14
     252:	0000                	unimp
     254:	025f 0000 760f      	.insn	6, 0x760f0000025f
     25a:	0000                	unimp
     25c:	1000                	addi	s0,sp,32
     25e:	2400                	fld	fs0,8(s0)
     260:	6966                	ld	s2,88(sp)
     262:	0072                	c.slli	zero,0x1c
     264:	1d01                	addi	s10,s10,-32
     266:	0001d007          	.insn	4, 0x0001d007
     26a:	0080                	addi	s0,sp,64
     26c:	0000                	unimp
     26e:	6000                	ld	s0,0(s0)
     270:	0000                	unimp
     272:	0000                	unimp
     274:	0000                	unimp
     276:	0100                	addi	s0,sp,128
     278:	3c9c                	fld	fa5,56(s1)
     27a:	08000003          	lb	zero,128(zero) # 80 <_start-0x7fffff80>
     27e:	0078                	addi	a4,sp,12
     280:	00033c0f          	.insn	4, 0x00033c0f
     284:	a100                	fsd	fs0,0(a0)
     286:	0002                	c.slli64	zero
     288:	2500                	fld	fs0,8(a0)
     28a:	1d010063          	beq	sp,a6,44a <_start-0x7ffffbb6>
     28e:	3c18                	fld	fa4,56(s0)
     290:	01000003          	lb	zero,16(zero) # 10 <_start-0x7ffffff0>
     294:	0079085b          	.insn	4, 0x0079085b
     298:	3c21                	addiw	s8,s8,-24 # 1cfe8 <_start-0x7ffe3018>
     29a:	b8000003          	lb	zero,-1152(zero) # fffffffffffffb80 <__global_pointer$+0xffffffff7fffd338>
     29e:	0002                	c.slli64	zero
     2a0:	0800                	addi	s0,sp,16
     2a2:	006e                	c.slli	zero,0x1b
     2a4:	522a                	lw	tp,168(sp)
     2a6:	0000                	unimp
     2a8:	cf00                	sw	s0,24(a4)
     2aa:	0002                	c.slli64	zero
     2ac:	0800                	addi	s0,sp,16
     2ae:	006d                	c.nop	27
     2b0:	5231                	li	tp,-20
     2b2:	0000                	unimp
     2b4:	e600                	sd	s0,8(a2)
     2b6:	0002                	c.slli64	zero
     2b8:	0c00                	addi	s0,sp,528
     2ba:	0069                	c.nop	26
     2bc:	0a1e                	slli	s4,s4,0x7
     2be:	0052                	c.slli	zero,0x14
     2c0:	0000                	unimp
     2c2:	02fd                	addi	t0,t0,31
     2c4:	0000                	unimp
     2c6:	6a0c                	ld	a1,16(a2)
     2c8:	1e00                	addi	s0,sp,816
     2ca:	520d                	li	tp,-29
     2cc:	0000                	unimp
     2ce:	2d00                	fld	fs0,24(a0)
     2d0:	14000003          	lb	zero,320(zero) # 140 <_start-0x7ffffec0>
     2d4:	0341                	addi	t1,t1,16 # fffffffffffe9010 <__global_pointer$+0xffffffff7ffe67c8>
     2d6:	0000                	unimp
     2d8:	0214                	addi	a3,sp,256
     2da:	8000                	.insn	2, 0x8000
     2dc:	0000                	unimp
     2de:	0000                	unimp
     2e0:	000c                	.insn	2, 0x000c
     2e2:	0000                	unimp
     2e4:	1522                	slli	a0,a0,0x28
     2e6:	0305                	addi	t1,t1,1
     2e8:	0000                	unimp
     2ea:	4f05                	li	t5,1
     2ec:	05000003          	lb	zero,80(zero) # 50 <_start-0x7fffffb0>
     2f0:	0359                	addi	t1,t1,22
     2f2:	0000                	unimp
     2f4:	0c0d                	addi	s8,s8,3
     2f6:	0000                	unimp
     2f8:	1600                	addi	s0,sp,800
     2fa:	00000363          	beqz	zero,300 <_start-0x7ffffd00>
     2fe:	6f16                	ld	t5,320(sp)
     300:	00000003          	lb	zero,0(zero) # 0 <_start-0x80000000>
     304:	2600                	fld	fs0,8(a2)
     306:	0000037b          	.insn	4, 0x037b
     30a:	0214                	addi	a3,sp,256
     30c:	8000                	.insn	2, 0x8000
     30e:	0000                	unimp
     310:	0000                	unimp
     312:	001f 0000 2201      	.insn	6, 0x22010000001f
     318:	0915                	addi	s2,s2,5 # fffffffffffe8005 <__global_pointer$+0xffffffff7ffe57bd>
     31a:	0389                	addi	t2,t2,2
     31c:	0000                	unimp
     31e:	00000347          	fmsub.s	ft6,ft0,ft0,ft0,rne
     322:	9309                	srli	a4,a4,0x22
     324:	55000003          	lb	zero,1360(zero) # 550 <_start-0x7ffffab0>
     328:	0d000003          	lb	zero,208(zero) # d0 <_start-0x7fffff30>
     32c:	001f 0000 9d02      	.insn	6, 0x9d020000001f
     332:	b3000003          	lb	zero,-1232(zero) # fffffffffffffb30 <__global_pointer$+0xffffffff7fffd2e8>
     336:	00000003          	lb	zero,0(zero) # 0 <_start-0x80000000>
     33a:	0000                	unimp
     33c:	00005207          	.insn	4, 0x5207
     340:	1700                	addi	s0,sp,928
     342:	000a                	c.slli	zero,0x2
     344:	0000                	unimp
     346:	5211                	li	tp,-28
     348:	0000                	unimp
     34a:	7b00                	ld	s0,48(a4)
     34c:	06000003          	lb	zero,96(zero) # 60 <_start-0x7fffffa0>
     350:	0061                	c.nop	24
     352:	1101                	addi	sp,sp,-32
     354:	5212                	lw	tp,36(sp)
     356:	0000                	unimp
     358:	0600                	addi	s0,sp,768
     35a:	0062                	c.slli	zero,0x18
     35c:	1101                	addi	sp,sp,-32
     35e:	5219                	li	tp,-26
     360:	0000                	unimp
     362:	0400                	addi	s0,sp,512
     364:	6572                	ld	a0,280(sp)
     366:	12010073          	sfence.vma	sp
     36a:	6f09                	lui	t5,0x2
     36c:	0000                	unimp
     36e:	0b00                	addi	s0,sp,400
     370:	0076                	c.slli	zero,0x1d
     372:	0000                	unimp
     374:	00520a13          	addi	s4,tp,5 # 5 <_start-0x7ffffffb>
     378:	0000                	unimp
     37a:	1700                	addi	s0,sp,928
     37c:	0000003f 0000520b 	.insn	8, 0x520b0000003f
     384:	a900                	fsd	fs0,16(a0)
     386:	06000003          	lb	zero,96(zero) # 60 <_start-0x7fffffa0>
     38a:	0061                	c.nop	24
     38c:	0b01                	addi	s6,s6,0
     38e:	5212                	lw	tp,36(sp)
     390:	0000                	unimp
     392:	0600                	addi	s0,sp,768
     394:	0062                	c.slli	zero,0x18
     396:	0b01                	addi	s6,s6,0
     398:	5219                	li	tp,-26
     39a:	0000                	unimp
     39c:	0b00                	addi	s0,sp,400
     39e:	0076                	c.slli	zero,0x1d
     3a0:	0000                	unimp
     3a2:	0b0c                	addi	a1,sp,400
     3a4:	0000006f          	j	3a4 <_start-0x7ffffc5c>
     3a8:	2700                	fld	fs0,8(a4)
     3aa:	0038                	addi	a4,sp,8
     3ac:	0000                	unimp
     3ae:	0c02                	c.slli64	s8
     3b0:	520c                	lw	a1,32(a2)
     3b2:	0000                	unimp
     3b4:	0100                	addi	s0,sp,128
     3b6:	0411                	addi	s0,s0,4
     3b8:	0000                	unimp
     3ba:	6e06                	ld	t3,64(sp)
     3bc:	0200                	addi	s0,sp,256
     3be:	170c                	addi	a1,sp,928
     3c0:	0052                	c.slli	zero,0x14
     3c2:	0000                	unimp
     3c4:	5a18                	lw	a4,48(a2)
     3c6:	0000                	unimp
     3c8:	2e00                	fld	fs0,24(a2)
     3ca:	0411                	addi	s0,s0,4
     3cc:	0000                	unimp
     3ce:	3818                	fld	fa4,48(s0)
     3d0:	0000                	unimp
     3d2:	3f00                	fld	fs0,56(a4)
     3d4:	0416                	slli	s0,s0,0x5
     3d6:	0000                	unimp
     3d8:	6904                	ld	s1,16(a0)
     3da:	0200                	addi	s0,sp,256
     3dc:	070e                	slli	a4,a4,0x3
     3de:	0052                	c.slli	zero,0x14
     3e0:	0000                	unimp
     3e2:	0428                	addi	a0,sp,520
     3e4:	3074                	fld	fa3,224(s0)
     3e6:	0200                	addi	s0,sp,256
     3e8:	0912                	slli	s2,s2,0x4
     3ea:	0052                	c.slli	zero,0x14
     3ec:	0000                	unimp
     3ee:	7404                	ld	s1,40(s0)
     3f0:	0031                	c.nop	12
     3f2:	1202                	slli	tp,tp,0x20
     3f4:	00005217          	auipc	tp,0x5
     3f8:	0400                	addi	s0,sp,512
     3fa:	3076                	fld	ft0,376(sp)
     3fc:	0200                	addi	s0,sp,256
     3fe:	00520913          	addi	s2,tp,5 # 53f9 <_start-0x7fffac07>
     402:	0000                	unimp
     404:	7604                	ld	s1,40(a2)
     406:	0031                	c.nop	12
     408:	1302                	slli	t1,t1,0x20
     40a:	5219                	li	tp,-26
     40c:	0000                	unimp
     40e:	0000                	unimp
     410:	0700                	addi	s0,sp,896
     412:	005e                	c.slli	zero,0x17
     414:	0000                	unimp
     416:	00006307          	.insn	4, 0x6307
     41a:	2900                	fld	fs0,16(a0)
     41c:	0000037b          	.insn	4, 0x037b
     420:	01c2                	slli	gp,gp,0x10
     422:	8000                	.insn	2, 0x8000
     424:	0000                	unimp
     426:	0000                	unimp
     428:	0004                	.insn	2, 0x0004
     42a:	0000                	unimp
     42c:	0000                	unimp
     42e:	0000                	unimp
     430:	9c01                	subw	s0,s0,s0
     432:	0450                	addi	a2,sp,516
     434:	0000                	unimp
     436:	8909                	andi	a0,a0,2
     438:	44000003          	lb	zero,1088(zero) # 440 <_start-0x7ffffbc0>
     43c:	0004                	.insn	2, 0x0004
     43e:	1900                	addi	s0,sp,176
     440:	00000393          	li	t2,0
     444:	5b01                	li	s6,-32
     446:	9d02                	jalr	s10
     448:	5b000003          	lb	zero,1456(zero) # 5b0 <_start-0x7ffffa50>
     44c:	0004                	.insn	2, 0x0004
     44e:	0000                	unimp
     450:	412a                	lw	sp,136(sp)
     452:	c6000003          	lb	zero,-928(zero) # fffffffffffffc60 <__global_pointer$+0xffffffff7fffd418>
     456:	0001                	nop
     458:	0080                	addi	s0,sp,64
     45a:	0000                	unimp
     45c:	0a00                	addi	s0,sp,272
     45e:	0000                	unimp
     460:	0000                	unimp
     462:	0000                	unimp
     464:	0100                	addi	s0,sp,128
     466:	099c                	addi	a5,sp,208
     468:	0000034f          	fnmadd.s	ft6,ft0,ft0,ft0,rne
     46c:	0492                	slli	s1,s1,0x4
     46e:	0000                	unimp
     470:	5919                	li	s2,-26
     472:	01000003          	lb	zero,16(zero) # 10 <_start-0x7ffffff0>
     476:	0363025b          	.insn	4, 0x0363025b
     47a:	0000                	unimp
     47c:	04a9                	addi	s1,s1,10
     47e:	0000                	unimp
     480:	6f02                	ld	t5,0(sp)
     482:	e0000003          	lb	zero,-512(zero) # fffffffffffffe00 <__global_pointer$+0xffffffff7fffd5b8>
     486:	0004                	.insn	2, 0x0004
     488:	0000                	unimp
     48a:	2500                	fld	fs0,8(a0)
     48c:	0000                	unimp
     48e:	0500                	addi	s0,sp,640
     490:	0100                	addi	s0,sp,128
     492:	4508                	lw	a0,8(a0)
     494:	0002                	c.slli64	zero
     496:	0100                	addi	s0,sp,128
     498:	0779                	addi	a4,a4,30
     49a:	0000                	unimp
     49c:	0000                	unimp
     49e:	8000                	.insn	2, 0x8000
     4a0:	0000                	unimp
     4a2:	0000                	unimp
     4a4:	03c6                	slli	t2,t2,0x11
     4a6:	014a                	slli	sp,sp,0x12
     4a8:	0000                	unimp
     4aa:	015a                	slli	sp,sp,0x16
     4ac:	0000                	unimp
     4ae:	0000018b          	.insn	4, 0x018b
     4b2:	8001                	c.srli64	s0
     4b4:	1b2e                	slli	s6,s6,0x2b
     4b6:	0000                	unimp
     4b8:	0005                	c.nop	1
     4ba:	0801                	addi	a6,a6,0
     4bc:	0259                	addi	tp,tp,22 # 16 <_start-0x7fffffea>
     4be:	0000                	unimp
     4c0:	9345                	srli	a4,a4,0x31
     4c2:	0000                	unimp
     4c4:	1d00                	addi	s0,sp,688
     4c6:	000000f3          	.insn	4, 0x00f3
     4ca:	0000                	unimp
     4cc:	0000                	unimp
     4ce:	0474                	addi	a3,sp,524
	...
     4d8:	0000                	unimp
     4da:	0b81                	addi	s7,s7,0
     4dc:	0000                	unimp
     4de:	4906010b          	.insn	4, 0x4906010b
     4e2:	0000                	unimp
     4e4:	1000                	addi	s0,sp,32
     4e6:	0295                	addi	t0,t0,5
     4e8:	0000                	unimp
     4ea:	2b02                	fld	fs6,0(sp)
     4ec:	3d18                	fld	fa4,56(a0)
     4ee:	0000                	unimp
     4f0:	0b00                	addi	s0,sp,400
     4f2:	0801                	addi	a6,a6,0
     4f4:	00000047          	fmsub.s	ft0,ft0,ft0,ft0,rne
     4f8:	2b05020b          	.insn	4, 0x2b05020b
     4fc:	0001                	nop
     4fe:	0b00                	addi	s0,sp,400
     500:	0702                	c.slli64	a4
     502:	0025                	c.nop	9
     504:	0000                	unimp
     506:	0446                	slli	s0,s0,0x11
     508:	6905                	lui	s2,0x1
     50a:	746e                	ld	s0,248(sp)
     50c:	0b00                	addi	s0,sp,400
     50e:	0704                	addi	s1,sp,896
     510:	0069                	c.nop	26
     512:	0000                	unimp
     514:	8205080b          	.insn	4, 0x8205080b
     518:	0000                	unimp
     51a:	1000                	addi	s0,sp,32
     51c:	034d                	addi	t1,t1,19
     51e:	0000                	unimp
     520:	6902                	ld	s2,0(sp)
     522:	7319                	lui	t1,0xfffe6
     524:	0000                	unimp
     526:	0b00                	addi	s0,sp,400
     528:	0708                	addi	a0,sp,896
     52a:	0064                	addi	s1,sp,12
     52c:	0000                	unimp
     52e:	9110                	.insn	2, 0x9110
     530:	02000003          	lb	zero,32(zero) # 20 <_start-0x7fffffe0>
     534:	1ae8                	addi	a0,sp,380
     536:	00000073          	ecall
     53a:	9710                	.insn	2, 0x9710
     53c:	0002                	c.slli64	zero
     53e:	0300                	addi	s0,sp,384
     540:	1318                	addi	a4,sp,416
     542:	0031                	c.nop	12
     544:	0000                	unimp
     546:	8630                	.insn	2, 0x8630
     548:	0000                	unimp
     54a:	1000                	addi	s0,sp,32
     54c:	0000034f          	fnmadd.s	ft6,ft0,ft0,ft0,rne
     550:	67143c03          	ld	s8,1649(s0)
     554:	0000                	unimp
     556:	3000                	fld	fs0,32(s0)
     558:	00000097          	auipc	ra,0x0
     55c:	9310                	.insn	2, 0x9310
     55e:	03000003          	lb	zero,48(zero) # 30 <_start-0x7fffffd0>
     562:	1552                	slli	a0,a0,0x34
     564:	007a                	c.slli	zero,0x1e
     566:	0000                	unimp
     568:	a831                	j	584 <_start-0x7ffffa7c>
     56a:	0000                	unimp
     56c:	1000                	addi	s0,sp,32
     56e:	01da                	slli	gp,gp,0x16
     570:	0000                	unimp
     572:	d604                	sw	s1,40(a2)
     574:	00007317          	auipc	t1,0x7
     578:	0b00                	addi	s0,sp,400
     57a:	0508                	addi	a0,sp,640
     57c:	007d                	c.nop	31
     57e:	0000                	unimp
     580:	3504100b          	.insn	4, 0x3504100b
     584:	0001                	nop
     586:	4700                	lw	s0,8(a4)
     588:	4808                	lw	a0,16(s0)
     58a:	7f08                	ld	a0,56(a4)
     58c:	0d000003          	lb	zero,208(zero) # d0 <_start-0x7fffff30>
     590:	00e0                	addi	s0,sp,76
     592:	0000                	unimp
     594:	5008010b          	.insn	4, 0x5008010b
     598:	0000                	unimp
     59a:	3100                	fld	fs0,32(a0)
     59c:	00e0                	addi	s0,sp,76
     59e:	0000                	unimp
     5a0:	e70d                	bnez	a4,5ca <_start-0x7ffffa36>
     5a2:	0000                	unimp
     5a4:	0b00                	addi	s0,sp,400
     5a6:	0708                	addi	a0,sp,896
     5a8:	005f 0000 6e10      	.insn	6, 0x6e100000005f
     5ae:	0002                	c.slli64	zero
     5b0:	0500                	addi	s0,sp,640
     5b2:	1b28                	addi	a0,sp,440
     5b4:	00d5                	addi	ra,ra,21 # 56d <_start-0x7ffffa93>
     5b6:	0000                	unimp
     5b8:	7510                	ld	a2,40(a0)
     5ba:	0002                	c.slli64	zero
     5bc:	0500                	addi	s0,sp,640
     5be:	00f81867          	.insn	4, 0x00f81867
     5c2:	0000                	unimp
     5c4:	1d1f 0003 0f00      	.insn	6, 0x0f0000031d1f
     5ca:	a31a                	fsd	ft6,384(sp)
     5cc:	0000                	unimp
     5ce:	1a00                	addi	s0,sp,304
     5d0:	00a8                	addi	a0,sp,72
     5d2:	0000                	unimp
     5d4:	0000012b          	.insn	4, 0x012b
     5d8:	0000731b          	.insn	4, 0x731b
     5dc:	0100                	addi	s0,sp,128
     5de:	3200                	fld	fs0,32(a2)
     5e0:	03ee                	slli	t2,t2,0x1b
     5e2:	0000                	unimp
     5e4:	011b124b          	fnmsub.s	ft4,fs6,fa7,ft0,rtz
     5e8:	0000                	unimp
     5ea:	0309                	addi	t1,t1,2 # 7576 <_start-0x7fff8a8a>
     5ec:	23b8                	fld	fa4,64(a5)
     5ee:	8000                	.insn	2, 0x8000
     5f0:	0000                	unimp
     5f2:	0000                	unimp
     5f4:	db1a                	sw	t1,180(sp)
     5f6:	0000                	unimp
     5f8:	5000                	lw	s0,32(s0)
     5fa:	0001                	nop
     5fc:	1b00                	addi	s0,sp,432
     5fe:	00000073          	ecall
     602:	0001                	nop
     604:	2432                	fld	fs0,264(sp)
     606:	4c000003          	lb	zero,1216(zero) # 4c0 <_start-0x7ffffb40>
     60a:	400e                	.insn	2, 0x400e
     60c:	0001                	nop
     60e:	0900                	addi	s0,sp,144
     610:	0023c803          	lbu	a6,2(t2)
     614:	0080                	addi	s0,sp,64
     616:	0000                	unimp
     618:	4900                	lw	s0,16(a0)
     61a:	02c1                	addi	t0,t0,16
     61c:	0000                	unimp
     61e:	fa01                	bnez	a2,52e <_start-0x7ffffad2>
     620:	0601                	addi	a2,a2,0
     622:	0060                	addi	s0,sp,12
     624:	0000                	unimp
     626:	110c                	addi	a1,sp,160
     628:	8000                	.insn	2, 0x8000
     62a:	0000                	unimp
     62c:	0000                	unimp
     62e:	006a                	c.slli	zero,0x1a
     630:	0000                	unimp
     632:	0000                	unimp
     634:	0000                	unimp
     636:	9c01                	subw	s0,s0,s0
     638:	01b9                	addi	gp,gp,14 # 80002856 <__global_pointer$+0xe>
     63a:	0000                	unimp
     63c:	7314                	ld	a3,32(a4)
     63e:	7274                	ld	a3,224(a2)
     640:	fa00                	sd	s0,48(a2)
     642:	1701                	addi	a4,a4,-32
     644:	00ec                	addi	a1,sp,76
     646:	0000                	unimp
     648:	00000527          	.insn	4, 0x0527
     64c:	7225                	lui	tp,0xfffe9
     64e:	7365                	lui	t1,0xffff9
     650:	fc00                	sd	s0,56(s0)
     652:	0801                	addi	a6,a6,0
     654:	0060                	addi	s0,sp,12
     656:	0000                	unimp
     658:	00000553          	fadd.s	fa0,ft0,ft0,rne
     65c:	00036633          	or	a2,t1,zero
     660:	fd00                	sd	s0,56(a0)
     662:	0701                	addi	a4,a4,0
     664:	0052                	c.slli	zero,0x14
     666:	0000                	unimp
     668:	0580                	addi	s0,sp,704
     66a:	0000                	unimp
     66c:	1100                	addi	s0,sp,160
     66e:	01e1                	addi	gp,gp,24 # 80002860 <__global_pointer$+0x18>
     670:	0000                	unimp
     672:	2606                	fld	fa2,64(sp)
     674:	db08                	sw	a0,48(a4)
     676:	0000                	unimp
     678:	fa00                	sd	s0,48(a2)
     67a:	0010                	.insn	2, 0x0010
     67c:	0080                	addi	s0,sp,64
     67e:	0000                	unimp
     680:	1200                	addi	s0,sp,288
     682:	0000                	unimp
     684:	0000                	unimp
     686:	0000                	unimp
     688:	0100                	addi	s0,sp,128
     68a:	099c                	addi	a5,sp,208
     68c:	0002                	c.slli64	zero
     68e:	4a00                	lw	s0,16(a2)
     690:	02a6                	slli	t0,t0,0x9
     692:	0000                	unimp
     694:	f201                	bnez	a2,594 <_start-0x7ffffa6c>
     696:	1401                	addi	s0,s0,-32
     698:	000000db          	.insn	4, 0x00db
     69c:	5a01                	li	s4,-32
     69e:	7314                	ld	a3,32(a4)
     6a0:	6372                	ld	t1,280(sp)
     6a2:	f200                	sd	s0,32(a2)
     6a4:	2601                	sext.w	a2,a2
     6a6:	00ec                	addi	a1,sp,76
     6a8:	0000                	unimp
     6aa:	05a1                	addi	a1,a1,8
     6ac:	0000                	unimp
     6ae:	6425                	lui	s0,0x9
     6b0:	f400                	sd	s0,40(s0)
     6b2:	0901                	addi	s2,s2,0 # 1000 <_start-0x7ffff000>
     6b4:	000000db          	.insn	4, 0x00db
     6b8:	05b5                	addi	a1,a1,13
     6ba:	0000                	unimp
     6bc:	1100                	addi	s0,sp,160
     6be:	03b4                	addi	a3,sp,456
     6c0:	0000                	unimp
     6c2:	2406                	fld	fs0,64(sp)
     6c4:	5206                	lw	tp,96(sp)
     6c6:	0000                	unimp
     6c8:	dc00                	sw	s0,56(s0)
     6ca:	0010                	.insn	2, 0x0010
     6cc:	0080                	addi	s0,sp,64
     6ce:	0000                	unimp
     6d0:	1e00                	addi	s0,sp,816
     6d2:	0000                	unimp
     6d4:	0000                	unimp
     6d6:	0000                	unimp
     6d8:	0100                	addi	s0,sp,128
     6da:	649c                	ld	a5,8(s1)
     6dc:	0002                	c.slli64	zero
     6de:	1400                	addi	s0,sp,544
     6e0:	e6003173          	csrrc	sp,0xe60,zero
     6e4:	1801                	addi	a6,a6,-32
     6e6:	00ec                	addi	a1,sp,76
     6e8:	0000                	unimp
     6ea:	05c9                	addi	a1,a1,18
     6ec:	0000                	unimp
     6ee:	7314                	ld	a3,32(a4)
     6f0:	0032                	c.slli	zero,0xc
     6f2:	01e6                	slli	gp,gp,0x19
     6f4:	ec28                	sd	a0,88(s0)
     6f6:	0000                	unimp
     6f8:	fe00                	sd	s0,56(a2)
     6fa:	0005                	c.nop	1
     6fc:	2000                	fld	fs0,0(s0)
     6fe:	e8003163          	.insn	4, 0xe8003163
     702:	1101                	addi	sp,sp,-32
     704:	003d                	c.nop	15
     706:	0000                	unimp
     708:	5f01                	li	t5,-32
     70a:	6320                	ld	s0,64(a4)
     70c:	0032                	c.slli	zero,0xc
     70e:	01e8                	addi	a0,sp,204
     710:	3d15                	addiw	s10,s10,-27
     712:	0000                	unimp
     714:	0100                	addi	s0,sp,128
     716:	005e                	c.slli	zero,0x17
     718:	991c                	.insn	2, 0x991c
     71a:	0001                	nop
     71c:	0600                	addi	s0,sp,768
     71e:	00b90977          	.insn	4, 0x00b90977
     722:	0000                	unimp
     724:	00000293          	li	t0,0
     728:	7318                	ld	a4,32(a4)
     72a:	de00                	sw	s0,56(a2)
     72c:	1c01                	addi	s8,s8,-32
     72e:	00ec                	addi	a1,sp,76
     730:	0000                	unimp
     732:	6e18                	ld	a4,24(a2)
     734:	de00                	sw	s0,56(a2)
     736:	2601                	sext.w	a2,a2
     738:	00b9                	addi	ra,ra,14
     73a:	0000                	unimp
     73c:	700e                	.insn	2, 0x700e
     73e:	e000                	sd	s0,0(s0)
     740:	0f01                	addi	t5,t5,0 # 2000 <_start-0x7fffe000>
     742:	00ec                	addi	a1,sp,76
     744:	0000                	unimp
     746:	1100                	addi	s0,sp,160
     748:	0332                	slli	t1,t1,0xc
     74a:	0000                	unimp
     74c:	2906                	fld	fs2,64(sp)
     74e:	b909                	j	360 <_start-0x7ffffca0>
     750:	0000                	unimp
     752:	9e00                	.insn	2, 0x9e00
     754:	0010                	.insn	2, 0x0010
     756:	0080                	addi	s0,sp,64
     758:	0000                	unimp
     75a:	1a00                	addi	s0,sp,304
     75c:	0000                	unimp
     75e:	0000                	unimp
     760:	0000                	unimp
     762:	0100                	addi	s0,sp,128
     764:	d29c                	sw	a5,32(a3)
     766:	0002                	c.slli64	zero
     768:	1400                	addi	s0,sp,544
     76a:	01d60073          	.insn	4, 0x01d60073
     76e:	0000ec1b          	.insn	4, 0xec1b
     772:	1a00                	addi	s0,sp,304
     774:	0006                	c.slli	zero,0x1
     776:	2500                	fld	fs0,8(a0)
     778:	0070                	addi	a2,sp,12
     77a:	01d8                	addi	a4,sp,196
     77c:	0000ec0f          	.insn	4, 0xec0f
     780:	3e00                	fld	fs0,56(a2)
     782:	0006                	c.slli	zero,0x1
     784:	0000                	unimp
     786:	0b1c                	addi	a5,sp,400
     788:	0002                	c.slli64	zero
     78a:	0600                	addi	s0,sp,768
     78c:	0921                	addi	s2,s2,8
     78e:	000000d3          	fadd.s	ft1,ft0,ft0,rne
     792:	0000032f          	.insn	4, 0x032f
     796:	a621                	j	a9e <_start-0x7ffff562>
     798:	0002                	c.slli64	zero
     79a:	c300                	sw	s0,0(a4)
     79c:	1401                	addi	s0,s0,-32 # 8fe0 <_start-0x7fff7020>
     79e:	000000d3          	fadd.s	ft1,ft0,ft0,rne
     7a2:	dd21                	beqz	a0,6fa <_start-0x7ffff906>
     7a4:	0002                	c.slli64	zero
     7a6:	c300                	sw	s0,0(a4)
     7a8:	1e01                	addi	t3,t3,-32 # 19fe0 <_start-0x7ffe6020>
     7aa:	0052                	c.slli	zero,0x14
     7ac:	0000                	unimp
     7ae:	6c18                	ld	a4,24(s0)
     7b0:	6e65                	lui	t3,0x19
     7b2:	c300                	sw	s0,0(a4)
     7b4:	2b01                	sext.w	s6,s6
     7b6:	00b9                	addi	ra,ra,14
     7b8:	0000                	unimp
     7ba:	2234                	fld	fa3,64(a2)
     7bc:	12000003          	lb	zero,288(zero) # 120 <_start-0x7ffffee0>
     7c0:	03d4                	addi	a3,sp,452
     7c2:	0000                	unimp
     7c4:	01c6                	slli	gp,gp,0x11
     7c6:	0000a80f          	.insn	4, 0xa80f
     7ca:	0e00                	addi	s0,sp,784
     7cc:	0064                	addi	s1,sp,12
     7ce:	2f1001cb          	.insn	4, 0x2f1001cb
     7d2:	00000003          	lb	zero,0(zero) # 0 <_start-0x80000000>
     7d6:	0e35                	addi	t3,t3,13 # 1900d <_start-0x7ffe6ff3>
     7d8:	0064                	addi	s1,sp,12
     7da:	db0b01cf          	fnmadd.d	ft3,fs6,fa6,fs11,rne
     7de:	0000                	unimp
     7e0:	0000                	unimp
     7e2:	0d00                	addi	s0,sp,656
     7e4:	00a8                	addi	a0,sp,72
     7e6:	0000                	unimp
     7e8:	bd1c                	fsd	fa5,56(a0)
     7ea:	0001                	nop
     7ec:	0600                	addi	s0,sp,768
     7ee:	091f 00d3 0000      	.insn	6, 0x00d3091f
     7f4:	0399                	addi	t2,t2,6
     7f6:	0000                	unimp
     7f8:	a621                	j	b00 <_start-0x7ffff500>
     7fa:	0002                	c.slli64	zero
     7fc:	b300                	fsd	fs0,32(a4)
     7fe:	1401                	addi	s0,s0,-32
     800:	000000d3          	fadd.s	ft1,ft0,ft0,rne
     804:	7318                	ld	a4,32(a4)
     806:	6372                	ld	t1,280(sp)
     808:	b300                	fsd	fs0,32(a4)
     80a:	2601                	sext.w	a2,a2
     80c:	0399                	addi	t2,t2,6
     80e:	0000                	unimp
     810:	6c18                	ld	a4,24(s0)
     812:	6e65                	lui	t3,0x19
     814:	b300                	fsd	fs0,32(a4)
     816:	3201                	addiw	tp,tp,-32 # fffffffffffe8fe0 <__global_pointer$+0xffffffff7ffe6798>
     818:	00b9                	addi	ra,ra,14
     81a:	0000                	unimp
     81c:	8234                	.insn	2, 0x8234
     81e:	0e000003          	lb	zero,224(zero) # e0 <_start-0x7fffff20>
     822:	01b60073          	.insn	4, 0x01b60073
     826:	9f16                	add	t5,t5,t0
     828:	0e000003          	lb	zero,224(zero) # e0 <_start-0x7fffff20>
     82c:	0064                	addi	s1,sp,12
     82e:	2f1001b7          	lui	gp,0x2f100
     832:	00000003          	lb	zero,0(zero) # 0 <_start-0x80000000>
     836:	0e35                	addi	t3,t3,13 # 1900d <_start-0x7ffe6ff3>
     838:	01bb0073          	.insn	4, 0x01bb0073
     83c:	ec11                	bnez	s0,858 <_start-0x7ffff7a8>
     83e:	0000                	unimp
     840:	0e00                	addi	s0,sp,784
     842:	0064                	addi	s1,sp,12
     844:	01bc                	addi	a5,sp,200
     846:	0000db0b          	.insn	4, 0xdb0b
     84a:	0000                	unimp
     84c:	0d00                	addi	s0,sp,656
     84e:	039e                	slli	t2,t2,0x7
     850:	0000                	unimp
     852:	00b40d4b          	fnmsub.s	fs10,fs0,fa1,ft0,rne
     856:	0000                	unimp
     858:	d511                	beqz	a0,764 <_start-0x7ffff89c>
     85a:	0002                	c.slli64	zero
     85c:	0700                	addi	s0,sp,896
     85e:	05fa                	slli	a1,a1,0x1e
     860:	0052                	c.slli	zero,0x14
     862:	0000                	unimp
     864:	0cd8                	addi	a4,sp,596
     866:	8000                	.insn	2, 0x8000
     868:	0000                	unimp
     86a:	0000                	unimp
     86c:	0034                	addi	a3,sp,8
     86e:	0000                	unimp
     870:	0000                	unimp
     872:	0000                	unimp
     874:	9c01                	subw	s0,s0,s0
     876:	0000045b          	.insn	4, 0x045b
     87a:	7314                	ld	a3,32(a4)
     87c:	7274                	ld	a3,224(a2)
     87e:	9f00                	.insn	2, 0x9f00
     880:	1301                	addi	t1,t1,-32 # ffffffffffff8fe0 <__global_pointer$+0xffffffff7fff6798>
     882:	000000db          	.insn	4, 0x00db
     886:	065f 0000 6614      	.insn	6, 0x66140000065f
     88c:	746d                	lui	s0,0xffffb
     88e:	9f00                	.insn	2, 0x9f00
     890:	2401                	sext.w	s0,s0
     892:	00ec                	addi	a1,sp,76
     894:	0000                	unimp
     896:	00000673          	.insn	4, 0x0673
     89a:	2036                	fld	ft0,328(sp)
     89c:	7061                	c.lui	zero,0xffff8
     89e:	a100                	fsd	fs0,0(a0)
     8a0:	0b01                	addi	s6,s6,0
     8a2:	0104                	addi	s1,sp,128
     8a4:	0000                	unimp
     8a6:	7fb89103          	lh	sp,2043(a7)
     8aa:	0001fc33          	and	s8,gp,zero
     8ae:	a200                	fsd	fs0,0(a2)
     8b0:	0901                	addi	s2,s2,0
     8b2:	000000db          	.insn	4, 0x00db
     8b6:	068a                	slli	a3,a3,0x2
     8b8:	0000                	unimp
     8ba:	4f4c                	lw	a1,28(a4)
     8bc:	0002                	c.slli64	zero
     8be:	0100                	addi	s0,sp,128
     8c0:	01a5                	addi	gp,gp,9 # 2f100009 <_start-0x50effff7>
     8c2:	0108                	addi	a0,sp,128
     8c4:	0438                	addi	a4,sp,520
     8c6:	0000                	unimp
     8c8:	6318                	ld	a4,0(a4)
     8ca:	0068                	addi	a0,sp,12
     8cc:	01a5                	addi	gp,gp,9 # 80002851 <__global_pointer$+0x9>
     8ce:	521a                	lw	tp,164(sp)
     8d0:	0000                	unimp
     8d2:	2100                	fld	fs0,0(a0)
     8d4:	0358                	addi	a4,sp,388
     8d6:	0000                	unimp
     8d8:	01a5                	addi	gp,gp,9 # 80002851 <__global_pointer$+0x9>
     8da:	5b25                	li	s6,-23
     8dc:	0004                	.insn	2, 0x0004
     8de:	1200                	addi	s0,sp,288
     8e0:	039d                	addi	t2,t2,7
     8e2:	0000                	unimp
     8e4:	600c01a7          	.insn	4, 0x600c01a7
     8e8:	0004                	.insn	2, 0x0004
     8ea:	0000                	unimp
     8ec:	fc16                	sd	t0,56(sp)
     8ee:	000c                	.insn	2, 0x000c
     8f0:	0080                	addi	s0,sp,64
     8f2:	0000                	unimp
     8f4:	7b00                	ld	s0,48(a4)
     8f6:	000e                	c.slli	zero,0x3
     8f8:	0600                	addi	s0,sp,768
     8fa:	5a01                	li	s4,-32
     8fc:	7fa89103          	lh	sp,2042(a7)
     900:	0106                	slli	sp,sp,0x1
     902:	01a3035b          	.insn	4, 0x01a3035b
     906:	5c01065b          	.insn	4, 0x5c01065b
     90a:	9102                	jalr	sp
     90c:	0050                	addi	a2,sp,4
     90e:	0d00                	addi	s0,sp,656
     910:	000000d3          	fadd.s	ft1,ft0,ft0,rne
     914:	db0d                	beqz	a4,846 <_start-0x7ffff7ba>
     916:	0000                	unimp
     918:	1100                	addi	s0,sp,160
     91a:	02d6                	slli	t0,t0,0x15
     91c:	0000                	unimp
     91e:	5205ce07          	.insn	4, 0x5205ce07
     922:	0000                	unimp
     924:	b200                	fsd	fs0,32(a2)
     926:	000c                	.insn	2, 0x000c
     928:	0080                	addi	s0,sp,64
     92a:	0000                	unimp
     92c:	2600                	fld	fs0,8(a2)
     92e:	0000                	unimp
     930:	0000                	unimp
     932:	0000                	unimp
     934:	0100                	addi	s0,sp,128
     936:	ca9c                	sw	a5,16(a3)
     938:	0004                	.insn	2, 0x0004
     93a:	1400                	addi	s0,sp,544
     93c:	6d66                	ld	s10,88(sp)
     93e:	0074                	addi	a3,sp,12
     940:	0194                	addi	a3,sp,192
     942:	ec18                	sd	a4,24(s0)
     944:	0000                	unimp
     946:	a100                	fsd	fs0,0(a0)
     948:	0006                	c.slli	zero,0x1
     94a:	3600                	fld	fs0,40(a2)
     94c:	6120                	ld	s0,64(a0)
     94e:	0070                	addi	a2,sp,12
     950:	0196                	slli	gp,gp,0x5
     952:	0001040b          	.insn	4, 0x0001040b
     956:	0300                	addi	s0,sp,384
     958:	a891                	j	9ac <_start-0x7ffff654>
     95a:	0cd0167f 00008000 	.insn	12, 0x12d30000000080000cd0167f
     962:	12d30000 
     966:	0000                	unimp
     968:	0106                	slli	sp,sp,0x1
     96a:	035a                	slli	t1,t1,0x16
     96c:	065a01a3          	sb	t0,99(s4)
     970:	5b01                	li	s6,-32
     972:	9102                	jalr	sp
     974:	4d48                	lw	a0,28(a0)
     976:	04e1                	addi	s1,s1,24
     978:	0000                	unimp
     97a:	3001                	.insn	2, 0x3001
     97c:	0000                	unimp
     97e:	0003bb37          	lui	s6,0x3b
     982:	fd00                	sd	s0,56(a0)
     984:	010d                	addi	sp,sp,3
     986:	05a2                	slli	a1,a1,0x8
     988:	0000                	unimp
     98a:	570c                	lw	a1,40(a4)
     98c:	0002                	c.slli64	zero
     98e:	fd00                	sd	s0,56(a0)
     990:	b21e                	fsd	ft7,288(sp)
     992:	0005                	c.nop	1
     994:	0c00                	addi	s0,sp,528
     996:	029f 0000 3afd      	.insn	6, 0x3afd0000029f
     99c:	0000045b          	.insn	4, 0x045b
     9a0:	746d6613          	ori	a2,s10,1862
     9a4:	fd00                	sd	s0,56(a0)
     9a6:	ec4e                	sd	s3,24(sp)
     9a8:	0000                	unimp
     9aa:	1300                	addi	s0,sp,416
     9ac:	7061                	c.lui	zero,0xffff8
     9ae:	fd00                	sd	s0,56(a0)
     9b0:	0001045b          	.insn	4, 0x0001045b
     9b4:	3800                	fld	fs0,48(s0)
     9b6:	0070                	addi	a2,sp,12
     9b8:	00ec18ff 44120000 	.insn	12, 0x00034412000000ec18ff
     9c0:	00000003 
     9c4:	0f01                	addi	t5,t5,0
     9c6:	00ec                	addi	a1,sp,76
     9c8:	0000                	unimp
     9ca:	630e                	ld	t1,192(sp)
     9cc:	0068                	addi	a0,sp,12
     9ce:	0101                	addi	sp,sp,0
     9d0:	5210                	lw	a2,32(a2)
     9d2:	0000                	unimp
     9d4:	0e00                	addi	s0,sp,784
     9d6:	7265                	lui	tp,0xffff9
     9d8:	0072                	c.slli	zero,0x1c
     9da:	0101                	addi	sp,sp,0
     9dc:	5214                	lw	a3,32(a2)
     9de:	0000                	unimp
     9e0:	0e00                	addi	s0,sp,784
     9e2:	756e                	ld	a0,248(sp)
     9e4:	006d                	c.nop	27
     9e6:	0102                	c.slli64	sp
     9e8:	f116                	sd	t0,160(sp)
     9ea:	0000                	unimp
     9ec:	1200                	addi	s0,sp,288
     9ee:	03d9                	addi	t2,t2,22
     9f0:	0000                	unimp
     9f2:	52070103          	lb	sp,1312(a4)
     9f6:	0000                	unimp
     9f8:	1200                	addi	s0,sp,288
     9fa:	01f6                	slli	gp,gp,0x1d
     9fc:	0000                	unimp
     9fe:	520d0103          	lb	sp,1312(s10)
     a02:	0000                	unimp
     a04:	1200                	addi	s0,sp,288
     a06:	0238                	addi	a4,sp,264
     a08:	0000                	unimp
     a0a:	52140103          	lb	sp,1313(s0) # ffffffffffffb521 <__global_pointer$+0xffffffff7fff8cd9>
     a0e:	0000                	unimp
     a10:	1200                	addi	s0,sp,288
     a12:	01a9                	addi	gp,gp,10 # 80002852 <__global_pointer$+0xa>
     a14:	0000                	unimp
     a16:	521b0103          	lb	sp,1313(s6) # 3b521 <_start-0x7ffc4adf>
     a1a:	0000                	unimp
     a1c:	1200                	addi	s0,sp,288
     a1e:	03ac                	addi	a1,sp,456
     a20:	0000                	unimp
     a22:	52260103          	lb	sp,1314(a2)
     a26:	0000                	unimp
     a28:	1200                	addi	s0,sp,288
     a2a:	024a                	slli	tp,tp,0x12
     a2c:	0000                	unimp
     a2e:	0104                	addi	s1,sp,128
     a30:	e008                	sd	a0,0(s0)
     a32:	0000                	unimp
     a34:	2200                	fld	fs0,0(a2)
     a36:	035d                	addi	t1,t1,23
     a38:	0000                	unimp
     a3a:	0116                	slli	sp,sp,0x5
     a3c:	01a12203          	lw	tp,26(sp)
     a40:	0000                	unimp
     a42:	0142                	slli	sp,sp,0x10
     a44:	2205                	addiw	tp,tp,1 # ffffffffffff9001 <__global_pointer$+0xffffffff7fff67b9>
     a46:	03e0                	addi	s0,sp,460
     a48:	0000                	unimp
     a4a:	0182                	c.slli64	gp
     a4c:	2205                	addiw	tp,tp,1 # 1 <_start-0x7fffffff>
     a4e:	03de                	slli	t2,t2,0x17
     a50:	0000                	unimp
     a52:	0180                	addi	s0,sp,192
     a54:	0005                	c.nop	1
     a56:	b24e                	fsd	fs3,288(sp)
     a58:	0005                	c.nop	1
     a5a:	3900                	fld	fs0,48(a0)
     a5c:	0052                	c.slli	zero,0x14
     a5e:	0000                	unimp
     a60:	5b39                	li	s6,-18
     a62:	0004                	.insn	2, 0x0004
     a64:	0000                	unimp
     a66:	a20d                	j	b88 <_start-0x7ffff478>
     a68:	0005                	c.nop	1
     a6a:	3a00                	fld	fs0,48(a2)
     a6c:	0000036b          	.insn	4, 0x036b
     a70:	00c512f3          	csrrw	t0,0xc,a0
     a74:	0000                	unimp
     a76:	05dc                	addi	a5,sp,708
     a78:	0000                	unimp
     a7a:	00706113          	ori	sp,zero,7
     a7e:	05dc22f3          	csrrs	t0,0x5d,s8
     a82:	0000                	unimp
     a84:	f60c                	sd	a1,40(a2)
     a86:	0001                	nop
     a88:	f300                	sd	s0,32(a4)
     a8a:	522a                	lw	tp,168(sp)
     a8c:	0000                	unimp
     a8e:	0000                	unimp
     a90:	040d                	addi	s0,s0,3
     a92:	0001                	nop
     a94:	3a00                	fld	fs0,48(a2)
     a96:	0266                	slli	tp,tp,0x19
     a98:	0000                	unimp
     a9a:	1be9                	addi	s7,s7,-6
     a9c:	00f1                	addi	ra,ra,28
     a9e:	0000                	unimp
     aa0:	0606                	slli	a2,a2,0x1
     aa2:	0000                	unimp
     aa4:	00706113          	ori	sp,zero,7
     aa8:	2ce9                	addiw	s9,s9,26
     aaa:	05dc                	addi	a5,sp,708
     aac:	0000                	unimp
     aae:	f60c                	sd	a1,40(a2)
     ab0:	0001                	nop
     ab2:	e900                	sd	s0,16(a0)
     ab4:	5234                	lw	a3,96(a2)
     ab6:	0000                	unimp
     ab8:	0000                	unimp
     aba:	0003c537          	lui	a0,0x3c
     abe:	d400                	sw	s0,40(s0)
     ac0:	0314                	addi	a3,sp,384
     ac2:	0000066b          	.insn	4, 0x066b
     ac6:	570c                	lw	a1,40(a4)
     ac8:	0002                	c.slli64	zero
     aca:	d400                	sw	s0,40(s0)
     acc:	b224                	fsd	fs1,96(a2)
     ace:	0005                	c.nop	1
     ad0:	0c00                	addi	s0,sp,528
     ad2:	029f 0000 40d4      	.insn	6, 0x40d40000029f
     ad8:	0000045b          	.insn	4, 0x045b
     adc:	6d756e13          	ori	t3,a0,1751
     ae0:	d500                	sw	s0,40(a0)
     ae2:	f128                	sd	a0,96(a0)
     ae4:	0000                	unimp
     ae6:	0c00                	addi	s0,sp,528
     ae8:	03d9                	addi	t2,t2,22
     aea:	0000                	unimp
     aec:	36d5                	addiw	a3,a3,-11
     aee:	0059                	c.nop	22
     af0:	0000                	unimp
     af2:	380c                	fld	fa1,48(s0)
     af4:	0002                	c.slli64	zero
     af6:	d500                	sw	s0,40(a0)
     af8:	5240                	lw	s0,36(a2)
     afa:	0000                	unimp
     afc:	0c00                	addi	s0,sp,528
     afe:	024a                	slli	tp,tp,0x12
     b00:	0000                	unimp
     b02:	4bd5                	li	s7,21
     b04:	0052                	c.slli	zero,0x14
     b06:	0000                	unimp
     b08:	00027d17          	auipc	s10,0x27
     b0c:	d700                	sw	s0,40(a4)
     b0e:	6b0c                	ld	a1,16(a4)
     b10:	0006                	c.slli	zero,0x1
     b12:	3800                	fld	fs0,48(s0)
     b14:	6f70                	ld	a2,216(a4)
     b16:	07d80073          	.insn	4, 0x07d80073
     b1a:	0052                	c.slli	zero,0x14
     b1c:	0000                	unimp
     b1e:	1a00                	addi	s0,sp,304
     b20:	0059                	c.nop	22
     b22:	0000                	unimp
     b24:	0000067b          	.insn	4, 0x067b
     b28:	0000731b          	.insn	4, 0x731b
     b2c:	3f00                	fld	fs0,56(a4)
     b2e:	2300                	fld	fs0,0(a4)
     b30:	025d                	addi	tp,tp,23 # 17 <_start-0x7fffffe9>
     b32:	0000                	unimp
     b34:	06c6                	slli	a3,a3,0x11
     b36:	0ab2                	slli	s5,s5,0xc
     b38:	8000                	.insn	2, 0x8000
     b3a:	0000                	unimp
     b3c:	0000                	unimp
     b3e:	0200                	addi	s0,sp,256
     b40:	0000                	unimp
     b42:	0000                	unimp
     b44:	0000                	unimp
     b46:	9c01                	subw	s0,s0,s0
     b48:	0730                	addi	a2,sp,904
     b4a:	0000                	unimp
     b4c:	7824                	ld	s1,112(s0)
     b4e:	c600                	sw	s0,8(a2)
     b50:	9718                	.insn	2, 0x9718
     b52:	0000                	unimp
     b54:	b800                	fsd	fs0,48(s0)
     b56:	0006                	c.slli	zero,0x1
     b58:	3b00                	fld	fs0,48(a4)
     b5a:	00727473          	csrrci	s0,0x7,4
     b5e:	08c8                	addi	a0,sp,84
     b60:	0730                	addi	a2,sp,904
     b62:	0000                	unimp
     b64:	9102                	jalr	sp
     b66:	1d68                	addi	a0,sp,700
     b68:	0069                	c.nop	26
     b6a:	07c9                	addi	a5,a5,18
     b6c:	0052                	c.slli	zero,0x14
     b6e:	0000                	unimp
     b70:	06f2                	slli	a3,a3,0x1c
     b72:	0000                	unimp
     b74:	000bab07          	flw	fs6,0(s7)
     b78:	8400                	.insn	2, 0x8400
     b7a:	000c                	.insn	2, 0x000c
     b7c:	0080                	addi	s0,sp,64
     b7e:	0000                	unimp
     b80:	d600                	sw	s0,40(a2)
     b82:	d1000003          	lb	zero,-752(zero) # fffffffffffffd10 <__global_pointer$+0xffffffff7fffd4c8>
     b86:	0bb50103          	lb	sp,187(a0) # 3c0bb <_start-0x7ffc3f45>
     b8a:	0000                	unimp
     b8c:	0000077b          	.insn	4, 0x077b
     b90:	000d5007          	.insn	4, 0x000d5007
     b94:	8400                	.insn	2, 0x8400
     b96:	000c                	.insn	2, 0x000c
     b98:	0080                	addi	s0,sp,64
     b9a:	0000                	unimp
     b9c:	d600                	sw	s0,40(a2)
     b9e:	78000003          	lb	zero,1920(zero) # 780 <_start-0x7ffff880>
     ba2:	0d600103          	lb	sp,214(zero) # d6 <_start-0x7fffff2a>
     ba6:	0000                	unimp
     ba8:	079f 0000 b007      	.insn	6, 0xb0070000079f
     bae:	000d                	c.nop	3
     bb0:	8400                	.insn	2, 0x8400
     bb2:	000c                	.insn	2, 0x000c
     bb4:	0080                	addi	s0,sp,64
     bb6:	0000                	unimp
     bb8:	e900                	sd	s0,16(a0)
     bba:	30000003          	lb	zero,768(zero) # 300 <_start-0x7ffffd00>
     bbe:	0109                	addi	sp,sp,2
     bc0:	0dba                	slli	s11,s11,0xe
     bc2:	0000                	unimp
     bc4:	07b5                	addi	a5,a5,13
     bc6:	0000                	unimp
     bc8:	0003e903          	lwu	s2,0(t2)
     bcc:	0f00                	addi	s0,sp,912
     bce:	00000dc3          	fmadd.s	fs11,ft0,ft0,ft0,rne
     bd2:	0000                	unimp
     bd4:	1000                	addi	s0,sp,32
     bd6:	000dce0f          	.insn	4, 0x000dce0f
     bda:	0500                	addi	s0,sp,640
     bdc:	0000                	unimp
     bde:	0010                	.insn	2, 0x0010
     be0:	0000                	unimp
     be2:	0000                	unimp
     be4:	e01a                	sd	t1,0(sp)
     be6:	0000                	unimp
     be8:	4000                	lw	s0,0(s0)
     bea:	1b000007          	.insn	4, 0x1b000007
     bee:	00000073          	ecall
     bf2:	0010                	.insn	2, 0x0010
     bf4:	e81c                	sd	a5,16(s0)
     bf6:	0001                	nop
     bf8:	0700                	addi	s0,sp,896
     bfa:	05e2                	slli	a1,a1,0x18
     bfc:	0052                	c.slli	zero,0x14
     bfe:	0000                	unimp
     c00:	0000075b          	.insn	4, 0x075b
     c04:	00686313          	ori	t1,a6,6
     c08:	11b1                	addi	gp,gp,-20 # 80002834 <_tbss_end+0x45c>
     c0a:	0052                	c.slli	zero,0x14
     c0c:	0000                	unimp
     c0e:	2300                	fld	fs0,0(a4)
     c10:	01f0                	addi	a2,sp,204
     c12:	0000                	unimp
     c14:	069c                	addi	a5,sp,832
     c16:	0fc4                	addi	s1,sp,980
     c18:	8000                	.insn	2, 0x8000
     c1a:	0000                	unimp
     c1c:	0000                	unimp
     c1e:	00da                	slli	ra,ra,0x16
     c20:	0000                	unimp
     c22:	0000                	unimp
     c24:	0000                	unimp
     c26:	9c01                	subw	s0,s0,s0
     c28:	09b1                	addi	s3,s3,12
     c2a:	0000                	unimp
     c2c:	6324                	ld	s1,64(a4)
     c2e:	6469                	lui	s0,0x1a
     c30:	9c00                	.insn	2, 0x9c00
     c32:	5210                	lw	a2,32(a2)
     c34:	0000                	unimp
     c36:	c200                	sw	s0,0(a2)
     c38:	24000007          	.insn	4, 0x24000007
     c3c:	636e                	ld	t1,216(sp)
     c3e:	9c00                	.insn	2, 0x9c00
     c40:	5219                	li	tp,-26
     c42:	0000                	unimp
     c44:	e100                	sd	s0,0(a0)
     c46:	3b000007          	.insn	4, 0x3b000007
     c4a:	6572                	ld	a0,280(sp)
     c4c:	0074                	addi	a3,sp,12
     c4e:	005207a3          	sb	t0,15(tp) # f <_start-0x7ffffff1>
     c52:	0000                	unimp
     c54:	5901                	li	s2,-32
     c56:	6675624f          	.insn	4, 0x6675624f
     c5a:	0100                	addi	s0,sp,128
     c5c:	08a5                	addi	a7,a7,9
     c5e:	09b1                	addi	s3,s3,12
     c60:	0000                	unimp
     c62:	0240                	addi	s0,sp,260
     c64:	0078                	addi	a4,sp,12
     c66:	0726                	slli	a4,a4,0x9
     c68:	0004                	.insn	2, 0x0004
     c6a:	a600                	fsd	fs0,8(a2)
     c6c:	db09                	beqz	a4,b7e <_start-0x7ffff482>
     c6e:	0000                	unimp
     c70:	0000                	unimp
     c72:	0008                	.insn	2, 0x0008
     c74:	3c00                	fld	fs0,56(s0)
     c76:	044a                	slli	s0,s0,0x12
     c78:	0000                	unimp
     c7a:	0824                	addi	s1,sp,24
     c7c:	0000                	unimp
     c7e:	691d                	lui	s2,0x7
     c80:	a700                	fsd	fs0,8(a4)
     c82:	520c                	lw	a1,32(a2)
     c84:	0000                	unimp
     c86:	1e00                	addi	s0,sp,816
     c88:	0008                	.insn	2, 0x0008
     c8a:	2700                	fld	fs0,8(a4)
     c8c:	104e                	c.slli	zero,0x33
     c8e:	8000                	.insn	2, 0x8000
     c90:	0000                	unimp
     c92:	0000                	unimp
     c94:	03a4                	addi	s1,sp,456
     c96:	0000                	unimp
     c98:	0802                	c.slli64	a6
     c9a:	0000                	unimp
     c9c:	0106                	slli	sp,sp,0x1
     c9e:	025a                	slli	tp,tp,0x16
     ca0:	01060083          	lb	ra,16(a2)
     ca4:	a803095b          	.insn	4, 0xa803095b
     ca8:	0020                	addi	s0,sp,8
     caa:	0080                	addi	s0,sp,64
     cac:	0000                	unimp
     cae:	0600                	addi	s0,sp,768
     cb0:	5d01                	li	s10,-32
     cb2:	8402                	jr	s0
     cb4:	0000                	unimp
     cb6:	9416                	add	s0,s0,t0
     cb8:	0010                	.insn	2, 0x0010
     cba:	0080                	addi	s0,sp,64
     cbc:	0000                	unimp
     cbe:	a400                	fsd	fs0,8(s0)
     cc0:	06000003          	lb	zero,96(zero) # 60 <_start-0x7fffffa0>
     cc4:	5a01                	li	s4,-32
     cc6:	7802                	ld	a6,32(sp)
     cc8:	0600                	addi	s0,sp,768
     cca:	5b01                	li	s6,-32
     ccc:	0309                	addi	t1,t1,2
     cce:	20a8                	fld	fa0,64(s1)
     cd0:	8000                	.insn	2, 0x8000
     cd2:	0000                	unimp
     cd4:	0000                	unimp
     cd6:	0000                	unimp
     cd8:	c128                	sw	a0,64(a0)
     cda:	0009                	c.nop	2
     cdc:	c400                	sw	s0,8(s0)
     cde:	0080000f          	fence	unknown,i
     ce2:	0000                	unimp
     ce4:	2b00                	fld	fs0,16(a4)
     ce6:	0004                	.insn	2, 0x0004
     ce8:	9e00                	.insn	2, 0x9e00
     cea:	0008a403          	lw	s0,0(a7)
     cee:	0300                	addi	s0,sp,384
     cf0:	0000042b          	.insn	4, 0x042b
     cf4:	ce1e                	sw	t2,28(sp)
     cf6:	0009                	c.nop	2
     cf8:	0100                	addi	s0,sp,128
     cfa:	0254                	addi	a3,sp,260
     cfc:	09fa                	slli	s3,s3,0x1e
     cfe:	0000                	unimp
     d00:	0846                	slli	a6,a6,0x11
     d02:	0000                	unimp
     d04:	0502                	c.slli64	a0
     d06:	000a                	c.slli	zero,0x2
     d08:	5300                	lw	s0,32(a4)
     d0a:	0008                	.insn	2, 0x0008
     d0c:	2900                	fld	fs0,16(a0)
     d0e:	09d9                	addi	s3,s3,22
     d10:	0000                	unimp
     d12:	e429                	bnez	s0,d5c <_start-0x7ffff2a4>
     d14:	0009                	c.nop	2
     d16:	2900                	fld	fs0,16(a0)
     d18:	000009ef          	jal	s3,d18 <_start-0x7ffff2e8>
     d1c:	000ff827          	.insn	4, 0x000ff827
     d20:	0080                	addi	s0,sp,64
     d22:	0000                	unimp
     d24:	1f00                	addi	s0,sp,944
     d26:	8600001b          	addiw	zero,zero,-1952
     d2a:	0008                	.insn	2, 0x0008
     d2c:	0600                	addi	s0,sp,768
     d2e:	5a01                	li	s4,-32
     d30:	8502                	jr	a0
     d32:	0600                	addi	s0,sp,768
     d34:	5c01                	li	s8,-32
     d36:	8402                	jr	s0
     d38:	0000                	unimp
     d3a:	0a16                	slli	s4,s4,0x5
     d3c:	0010                	.insn	2, 0x0010
     d3e:	0080                	addi	s0,sp,64
     d40:	0000                	unimp
     d42:	2800                	fld	fs0,16(s0)
     d44:	0600001b          	addiw	zero,zero,96
     d48:	5a01                	li	s4,-32
     d4a:	8505                	srai	a0,a0,0x1
     d4c:	8400                	.insn	2, 0x8400
     d4e:	2200                	fld	fs0,0(a2)
     d50:	0106                	slli	sp,sp,0x1
     d52:	0030015b          	.insn	4, 0x0030015b
     d56:	0000                	unimp
     d58:	da2a                	sw	a0,52(sp)
     d5a:	000d                	c.nop	3
     d5c:	1200                	addi	s0,sp,288
     d5e:	0010                	.insn	2, 0x0010
     d60:	0080                	addi	s0,sp,64
     d62:	0000                	unimp
     d64:	0a00                	addi	s0,sp,272
     d66:	0000                	unimp
     d68:	0000                	unimp
     d6a:	0000                	unimp
     d6c:	a000                	fsd	fs0,0(s0)
     d6e:	0008c903          	lbu	s2,0(a7)
     d72:	0f00                	addi	s0,sp,912
     d74:	0de4                	addi	s1,sp,732
     d76:	0000                	unimp
     d78:	10000003          	lb	zero,256(zero) # 100 <_start-0x7fffff00>
     d7c:	2a00                	fld	fs0,16(a2)
     d7e:	00000bab          	.insn	4, 0x0bab
     d82:	1054                	addi	a3,sp,36
     d84:	8000                	.insn	2, 0x8000
     d86:	0000                	unimp
     d88:	0000                	unimp
     d8a:	0028                	addi	a0,sp,8
     d8c:	0000                	unimp
     d8e:	0000                	unimp
     d90:	0000                	unimp
     d92:	094105ab          	.insn	4, 0x094105ab
     d96:	0000                	unimp
     d98:	b504                	fsd	fs1,40(a0)
     d9a:	0900000b          	.insn	4, 0x0900000b
     d9e:	0d50                	addi	a2,sp,660
     da0:	0000                	unimp
     da2:	1054                	addi	a3,sp,36
     da4:	8000                	.insn	2, 0x8000
     da6:	0000                	unimp
     da8:	0000                	unimp
     daa:	0028                	addi	a0,sp,8
     dac:	0000                	unimp
     dae:	0000                	unimp
     db0:	0000                	unimp
     db2:	7801                	lui	a6,0xfffe0
     db4:	0d600103          	lb	sp,214(zero) # d6 <_start-0x7fffff2a>
     db8:	0000                	unimp
     dba:	0860                	addi	s0,sp,28
     dbc:	0000                	unimp
     dbe:	000db007          	fld	ft0,0(s11)
     dc2:	5a00                	lw	s0,48(a2)
     dc4:	0010                	.insn	2, 0x0010
     dc6:	0080                	addi	s0,sp,64
     dc8:	0000                	unimp
     dca:	6100                	ld	s0,0(a0)
     dcc:	0004                	.insn	2, 0x0004
     dce:	3000                	fld	fs0,32(s0)
     dd0:	0109                	addi	sp,sp,2
     dd2:	0dba                	slli	s11,s11,0xe
     dd4:	0000                	unimp
     dd6:	0874                	addi	a3,sp,28
     dd8:	0000                	unimp
     dda:	00046103          	lwu	sp,0(s0) # 1a000 <_start-0x7ffe6000>
     dde:	0200                	addi	s0,sp,256
     de0:	00000dc3          	fmadd.s	fs11,ft0,ft0,ft0,rne
     de4:	0881                	addi	a7,a7,0
     de6:	0000                	unimp
     de8:	ce02                	sw	zero,28(sp)
     dea:	000d                	c.nop	3
     dec:	9100                	.insn	2, 0x9100
     dee:	0008                	.insn	2, 0x0008
     df0:	0000                	unimp
     df2:	0000                	unimp
     df4:	2a00                	fld	fs0,16(a2)
     df6:	0c1c                	addi	a5,sp,528
     df8:	0000                	unimp
     dfa:	107c                	addi	a5,sp,44
     dfc:	8000                	.insn	2, 0x8000
     dfe:	0000                	unimp
     e00:	0000                	unimp
     e02:	0006                	c.slli	zero,0x1
     e04:	0000                	unimp
     e06:	0000                	unimp
     e08:	0000                	unimp
     e0a:	03ad                	addi	t2,t2,11
     e0c:	097a                	slli	s2,s2,0x1e
     e0e:	0000                	unimp
     e10:	2701                	sext.w	a4,a4
     e12:	000c                	.insn	2, 0x000c
     e14:	a300                	fsd	fs0,0(a4)
     e16:	0008                	.insn	2, 0x0008
     e18:	1600                	addi	s0,sp,800
     e1a:	1082                	slli	ra,ra,0x20
     e1c:	8000                	.insn	2, 0x8000
     e1e:	0000                	unimp
     e20:	0000                	unimp
     e22:	0c9d                	addi	s9,s9,7
     e24:	0000                	unimp
     e26:	0106                	slli	sp,sp,0x1
     e28:	025a                	slli	tp,tp,0x16
     e2a:	0079                	c.nop	30
     e2c:	0000                	unimp
     e2e:	00101227          	.insn	4, 0x00101227
     e32:	0080                	addi	s0,sp,64
     e34:	0000                	unimp
     e36:	cb00                	sw	s0,16(a4)
     e38:	000a                	c.slli	zero,0x2
     e3a:	9800                	.insn	2, 0x9800
     e3c:	0009                	c.nop	2
     e3e:	0600                	addi	s0,sp,768
     e40:	5a01                	li	s4,-32
     e42:	7902                	ld	s2,32(sp)
     e44:	0600                	addi	s0,sp,768
     e46:	5b01                	li	s6,-32
     e48:	8202                	jr	tp
     e4a:	0000                	unimp
     e4c:	2416                	fld	fs0,320(sp)
     e4e:	0010                	.insn	2, 0x0010
     e50:	0080                	addi	s0,sp,64
     e52:	0000                	unimp
     e54:	1100                	addi	s0,sp,160
     e56:	000a                	c.slli	zero,0x2
     e58:	0600                	addi	s0,sp,768
     e5a:	5a01                	li	s4,-32
     e5c:	3001                	.insn	2, 0x3001
     e5e:	0106                	slli	sp,sp,0x1
     e60:	0030015b          	.insn	4, 0x0030015b
     e64:	1a00                	addi	s0,sp,304
     e66:	00e0                	addi	s0,sp,76
     e68:	0000                	unimp
     e6a:	09c1                	addi	s3,s3,16
     e6c:	0000                	unimp
     e6e:	0000731b          	.insn	4, 0x731b
     e72:	3f00                	fld	fs0,56(a4)
     e74:	5000                	lw	s0,32(s0)
     e76:	0282                	c.slli64	t0
     e78:	0000                	unimp
     e7a:	9201                	srli	a2,a2,0x20
     e7c:	010d                	addi	sp,sp,3
     e7e:	0a11                	addi	s4,s4,4
     e80:	0000                	unimp
     e82:	00030e17          	auipc	t3,0x30
     e86:	9400                	.insn	2, 0x9400
     e88:	d312                	sw	tp,164(sp)
     e8a:	0000                	unimp
     e8c:	1f00                	addi	s0,sp,944
     e8e:	01cd                	addi	gp,gp,19 # 8000285b <__global_pointer$+0x13>
     e90:	0000                	unimp
     e92:	0f95                	addi	t6,t6,5
     e94:	00e0                	addi	s0,sp,76
     e96:	0000                	unimp
     e98:	f71f 0003 9500      	.insn	6, 0x95000003f71f
     e9e:	e01d                	bnez	s0,ec4 <_start-0x7ffff13c>
     ea0:	0000                	unimp
     ea2:	1f00                	addi	s0,sp,944
     ea4:	03a2                	slli	t2,t2,0x8
     ea6:	0000                	unimp
     ea8:	2995                	addiw	s3,s3,5
     eaa:	00e0                	addi	s0,sp,76
     eac:	0000                	unimp
     eae:	0002b017          	auipc	zero,0x2b
     eb2:	9600                	.insn	2, 0x9600
     eb4:	b90a                	fsd	ft2,176(sp)
     eb6:	0000                	unimp
     eb8:	1700                	addi	s0,sp,928
     eba:	0000028b          	.insn	4, 0x028b
     ebe:	0a98                	addi	a4,sp,336
     ec0:	00b9                	addi	ra,ra,14
     ec2:	0000                	unimp
     ec4:	1100                	addi	s0,sp,160
     ec6:	0055                	c.nop	21
     ec8:	0000                	unimp
     eca:	8b01                	andi	a4,a4,0
     ecc:	0000521b          	srliw	tp,zero,0x0
     ed0:	4e00                	lw	s0,24(a2)
     ed2:	00800013          	li	zero,8
     ed6:	0000                	unimp
     ed8:	3000                	fld	fs0,32(s0)
     eda:	0000                	unimp
     edc:	0000                	unimp
     ede:	0000                	unimp
     ee0:	0100                	addi	s0,sp,128
     ee2:	cb9c                	sw	a5,16(a5)
     ee4:	000a                	c.slli	zero,0x2
     ee6:	3d00                	fld	fs0,56(a0)
     ee8:	00000227          	.insn	4, 0x0227
     eec:	0052248b          	.insn	4, 0x0052248b
     ef0:	0000                	unimp
     ef2:	08b0                	addi	a2,sp,88
     ef4:	0000                	unimp
     ef6:	ab3d                	j	1434 <_start-0x7fffebcc>
     ef8:	0002                	c.slli64	zero
     efa:	8b00                	.insn	2, 0x8b00
     efc:	6031                	c.lui	zero,0xc
     efe:	0004                	.insn	2, 0x0004
     f00:	c700                	sw	s0,8(a4)
     f02:	0008                	.insn	2, 0x0008
     f04:	0900                	addi	s0,sp,144
     f06:	00000bab          	.insn	4, 0x0bab
     f0a:	134e                	slli	t1,t1,0x33
     f0c:	8000                	.insn	2, 0x8000
     f0e:	0000                	unimp
     f10:	0000                	unimp
     f12:	002c                	addi	a1,sp,8
     f14:	0000                	unimp
     f16:	0000                	unimp
     f18:	0000                	unimp
     f1a:	8e01                	sub	a2,a2,s0
     f1c:	0bb50103          	lb	sp,187(a0)
     f20:	0000                	unimp
     f22:	08de                	slli	a7,a7,0x17
     f24:	0000                	unimp
     f26:	5009                	c.li	zero,-30
     f28:	000d                	c.nop	3
     f2a:	4e00                	lw	s0,24(a2)
     f2c:	00800013          	li	zero,8
     f30:	0000                	unimp
     f32:	2c00                	fld	fs0,24(s0)
     f34:	0000                	unimp
     f36:	0000                	unimp
     f38:	0000                	unimp
     f3a:	0100                	addi	s0,sp,128
     f3c:	0378                	addi	a4,sp,396
     f3e:	6001                	.insn	2, 0x6001
     f40:	000d                	c.nop	3
     f42:	f400                	sd	s0,40(s0)
     f44:	0008                	.insn	2, 0x0008
     f46:	0700                	addi	s0,sp,896
     f48:	0db0                	addi	a2,sp,728
     f4a:	0000                	unimp
     f4c:	134e                	slli	t1,t1,0x33
     f4e:	8000                	.insn	2, 0x8000
     f50:	0000                	unimp
     f52:	0000                	unimp
     f54:	000003c3          	fmadd.s	ft7,ft0,ft0,ft0,rne
     f58:	0930                	addi	a2,sp,152
     f5a:	ba01                	j	86a <_start-0x7ffff796>
     f5c:	000d                	c.nop	3
     f5e:	1100                	addi	s0,sp,160
     f60:	0009                	c.nop	2
     f62:	0300                	addi	s0,sp,384
     f64:	000003c3          	fmadd.s	ft7,ft0,ft0,ft0,rne
     f68:	000dc30f          	.insn	4, 0x000dc30f
     f6c:	0000                	unimp
     f6e:	0000                	unimp
     f70:	0f10                	addi	a2,sp,912
     f72:	0dce                	slli	s11,s11,0x13
     f74:	0000                	unimp
     f76:	0005                	c.nop	1
     f78:	1000                	addi	s0,sp,32
     f7a:	0000                	unimp
     f7c:	0000                	unimp
     f7e:	2300                	fld	fs0,0(a4)
     f80:	0372                	slli	t1,t1,0x1c
     f82:	0000                	unimp
     f84:	1c84                	addi	s1,sp,624
     f86:	0aac                	addi	a1,sp,344
     f88:	8000                	.insn	2, 0x8000
     f8a:	0000                	unimp
     f8c:	0000                	unimp
     f8e:	0006                	c.slli	zero,0x1
     f90:	0000                	unimp
     f92:	0000                	unimp
     f94:	0000                	unimp
     f96:	9c01                	subw	s0,s0,s0
     f98:	0b02                	c.slli64	s6
     f9a:	0000                	unimp
     f9c:	6469632b          	.insn	4, 0x6469632b
     fa0:	8400                	.insn	2, 0x8400
     fa2:	522d                	li	tp,-21
     fa4:	0000                	unimp
     fa6:	0100                	addi	s0,sp,128
     fa8:	2b5a                	fld	fs6,400(sp)
     faa:	636e                	ld	t1,216(sp)
     fac:	8400                	.insn	2, 0x8400
     fae:	5236                	lw	tp,108(sp)
     fb0:	0000                	unimp
     fb2:	0100                	addi	s0,sp,128
     fb4:	e211005b          	.insn	4, 0xe211005b
     fb8:	0002                	c.slli64	zero
     fba:	0700                	addi	s0,sp,896
     fbc:	005205e3          	beq	tp,t0,17c6 <_start-0x7fffe83a>
     fc0:	0000                	unimp
     fc2:	0a82                	c.slli64	s5
     fc4:	8000                	.insn	2, 0x8000
     fc6:	0000                	unimp
     fc8:	0000                	unimp
     fca:	002a                	c.slli	zero,0xa
     fcc:	0000                	unimp
     fce:	0000                	unimp
     fd0:	0000                	unimp
     fd2:	9c01                	subw	s0,s0,s0
     fd4:	00000bab          	.insn	4, 0x0bab
     fd8:	7324                	ld	s1,96(a4)
     fda:	7e00                	ld	s0,56(a2)
     fdc:	ec16                	sd	t0,24(sp)
     fde:	0000                	unimp
     fe0:	1e00                	addi	s0,sp,816
     fe2:	0009                	c.nop	2
     fe4:	0900                	addi	s0,sp,144
     fe6:	00000bab          	.insn	4, 0x0bab
     fea:	0a82                	c.slli64	s5
     fec:	8000                	.insn	2, 0x8000
     fee:	0000                	unimp
     ff0:	0000                	unimp
     ff2:	0026                	c.slli	zero,0x9
     ff4:	0000                	unimp
     ff6:	0000                	unimp
     ff8:	0000                	unimp
     ffa:	8001                	c.srli64	s0
     ffc:	0bb50103          	lb	sp,187(a0)
    1000:	0000                	unimp
    1002:	0935                	addi	s2,s2,13 # 700d <_start-0x7fff8ff3>
    1004:	0000                	unimp
    1006:	5009                	c.li	zero,-30
    1008:	000d                	c.nop	3
    100a:	8200                	.insn	2, 0x8200
    100c:	000a                	c.slli	zero,0x2
    100e:	0080                	addi	s0,sp,64
    1010:	0000                	unimp
    1012:	2600                	fld	fs0,8(a2)
    1014:	0000                	unimp
    1016:	0000                	unimp
    1018:	0000                	unimp
    101a:	0100                	addi	s0,sp,128
    101c:	0378                	addi	a4,sp,396
    101e:	6001                	.insn	2, 0x6001
    1020:	000d                	c.nop	3
    1022:	4c00                	lw	s0,24(s0)
    1024:	0009                	c.nop	2
    1026:	0700                	addi	s0,sp,896
    1028:	0db0                	addi	a2,sp,728
    102a:	0000                	unimp
    102c:	0a88                	addi	a0,sp,336
    102e:	8000                	.insn	2, 0x8000
    1030:	0000                	unimp
    1032:	0000                	unimp
    1034:	000003b3          	add	t2,zero,zero
    1038:	0930                	addi	a2,sp,152
    103a:	ba01                	j	94a <_start-0x7ffff6b6>
    103c:	000d                	c.nop	3
    103e:	5900                	lw	s0,48(a0)
    1040:	0009                	c.nop	2
    1042:	0300                	addi	s0,sp,384
    1044:	000003b3          	add	t2,zero,zero
    1048:	c302                	sw	zero,132(sp)
    104a:	000d                	c.nop	3
    104c:	6600                	ld	s0,8(a2)
    104e:	0009                	c.nop	2
    1050:	0200                	addi	s0,sp,256
    1052:	0dce                	slli	s11,s11,0x13
    1054:	0000                	unimp
    1056:	0976                	slli	s2,s2,0x1d
    1058:	0000                	unimp
    105a:	0000                	unimp
    105c:	0000                	unimp
    105e:	2c00                	fld	fs0,24(s0)
    1060:	01c4                	addi	s1,sp,196
    1062:	0000                	unimp
    1064:	000bbf73          	csrrc	t5,ustatus,s7
    1068:	1300                	addi	s0,sp,416
    106a:	1b730073          	.insn	4, 0x1b730073
    106e:	00ec                	addi	a1,sp,76
    1070:	0000                	unimp
    1072:	5100                	lw	s0,32(a0)
    1074:	000002cf          	fnmadd.s	ft5,ft0,ft0,ft0,rne
    1078:	6e01                	.insn	2, 0x6e01
    107a:	4c06                	lw	s8,64(sp)
    107c:	000a                	c.slli	zero,0x2
    107e:	0080                	addi	s0,sp,64
    1080:	0000                	unimp
    1082:	0e00                	addi	s0,sp,784
    1084:	0000                	unimp
    1086:	0000                	unimp
    1088:	0000                	unimp
    108a:	0100                	addi	s0,sp,128
    108c:	1c9c                	addi	a5,sp,624
    108e:	000c                	.insn	2, 0x000c
    1090:	0900                	addi	s0,sp,144
    1092:	0c1c                	addi	a5,sp,528
    1094:	0000                	unimp
    1096:	0a4c                	addi	a1,sp,276
    1098:	8000                	.insn	2, 0x8000
    109a:	0000                	unimp
    109c:	0000                	unimp
    109e:	000e                	c.slli	zero,0x3
    10a0:	0000                	unimp
    10a2:	0000                	unimp
    10a4:	0000                	unimp
    10a6:	7001                	c.lui	zero,0xfffe0
    10a8:	0c272d03          	lw	s10,194(a4)
    10ac:	0000                	unimp
    10ae:	0986                	slli	s3,s3,0x1
    10b0:	0c9d                	addi	s9,s9,7
    10b2:	0000                	unimp
    10b4:	0a4c                	addi	a1,sp,276
    10b6:	8000                	.insn	2, 0x8000
    10b8:	0000                	unimp
    10ba:	0000                	unimp
    10bc:	000e                	c.slli	zero,0x3
    10be:	0000                	unimp
    10c0:	0000                	unimp
    10c2:	0000                	unimp
    10c4:	6b01                	.insn	2, 0x6b01
    10c6:	0ca82d03          	lw	s10,202(a6) # fffffffffffe00ca <__global_pointer$+0xffffffff7ffdd882>
    10ca:	0000                	unimp
    10cc:	0086                	slli	ra,ra,0x1
    10ce:	0000                	unimp
    10d0:	003e                	c.slli	zero,0xf
    10d2:	69000003          	lb	zero,1680(zero) # 690 <_start-0x7ffff970>
    10d6:	3306                	fld	ft6,96(sp)
    10d8:	000c                	.insn	2, 0x000c
    10da:	0c00                	addi	s0,sp,528
    10dc:	0219                	addi	tp,tp,6 # 6 <_start-0x7ffffffa>
    10de:	0000                	unimp
    10e0:	0f69                	addi	t5,t5,26
    10e2:	0052                	c.slli	zero,0x14
    10e4:	0000                	unimp
    10e6:	1100                	addi	s0,sp,160
    10e8:	023e                	slli	tp,tp,0xf
    10ea:	0000                	unimp
    10ec:	6401                	.insn	2, 0x6401
    10ee:	a821                	j	1106 <_start-0x7fffeefa>
    10f0:	0000                	unimp
    10f2:	3400                	fld	fs0,40(s0)
    10f4:	000a                	c.slli	zero,0x2
    10f6:	0080                	addi	s0,sp,64
    10f8:	0000                	unimp
    10fa:	1000                	addi	s0,sp,32
    10fc:	0000                	unimp
    10fe:	0000                	unimp
    1100:	0000                	unimp
    1102:	0100                	addi	s0,sp,128
    1104:	9d9c                	.insn	2, 0x9d9c
    1106:	000c                	.insn	2, 0x000c
    1108:	2e00                	fld	fs0,24(a2)
    110a:	000002bb          	addw	t0,zero,zero
    110e:	3764                	fld	fs1,232(a4)
    1110:	00a8                	addi	a0,sp,72
    1112:	0000                	unimp
    1114:	5a01                	li	s4,-32
    1116:	6370652b          	.insn	4, 0x6370652b
    111a:	6400                	ld	s0,8(s0)
    111c:	a848                	fsd	fa0,144(s0)
    111e:	0000                	unimp
    1120:	0100                	addi	s0,sp,128
    1122:	04022e5b          	.insn	4, 0x04022e5b
    1126:	0000                	unimp
    1128:	5764                	lw	s1,108(a4)
    112a:	0000032f          	.insn	4, 0x032f
    112e:	5c01                	li	s8,-32
    1130:	9d09                	subw	a0,a0,a0
    1132:	000c                	.insn	2, 0x000c
    1134:	3400                	fld	fs0,40(s0)
    1136:	000a                	c.slli	zero,0x2
    1138:	0080                	addi	s0,sp,64
    113a:	0000                	unimp
    113c:	1000                	addi	s0,sp,32
    113e:	0000                	unimp
    1140:	0000                	unimp
    1142:	0000                	unimp
    1144:	0100                	addi	s0,sp,128
    1146:	0366                	slli	t1,t1,0x19
    1148:	a852                	fsd	fs4,16(sp)
    114a:	000c                	.insn	2, 0x000c
    114c:	3900                	fld	fs0,48(a0)
    114e:	0005                	c.nop	1
    1150:	3e00                	fld	fs0,56(a2)
    1152:	02f9                	addi	t0,t0,30
    1154:	0000                	unimp
    1156:	205e                	fld	ft0,464(sp)
    1158:	0cb4                	addi	a3,sp,600
    115a:	0000                	unimp
    115c:	190c                	addi	a1,sp,176
    115e:	0002                	c.slli64	zero
    1160:	5e00                	lw	s0,56(a2)
    1162:	a836                	fsd	fa3,16(sp)
    1164:	0000                	unimp
    1166:	0000                	unimp
    1168:	00014123          	.insn	4, 0x00014123
    116c:	4e00                	lw	s0,24(a2)
    116e:	e806                	sd	ra,16(sp)
    1170:	0009                	c.nop	2
    1172:	0080                	addi	s0,sp,64
    1174:	0000                	unimp
    1176:	3a00                	fld	fs0,48(a2)
    1178:	0000                	unimp
    117a:	0000                	unimp
    117c:	0000                	unimp
    117e:	0100                	addi	s0,sp,128
    1180:	509c                	lw	a5,32(s1)
    1182:	000d                	c.nop	3
    1184:	2e00                	fld	fs0,24(a2)
    1186:	0212                	slli	tp,tp,0x4
    1188:	0000                	unimp
    118a:	134e                	slli	t1,t1,0x33
    118c:	0052                	c.slli	zero,0x14
    118e:	0000                	unimp
    1190:	5a01                	li	s4,-32
    1192:	691d                	lui	s2,0x7
    1194:	5000                	lw	s0,32(s0)
    1196:	00005207          	.insn	4, 0x5207
    119a:	8800                	.insn	2, 0x8800
    119c:	0009                	c.nop	2
    119e:	3c00                	fld	fs0,56(s0)
    11a0:	00000373          	.insn	4, 0x0373
    11a4:	0d25                	addi	s10,s10,9 # 27b11 <_start-0x7ffd84ef>
    11a6:	0000                	unimp
    11a8:	631d                	lui	t1,0x7
    11aa:	58007273          	csrrci	tp,0x580,0
    11ae:	0000a803          	lw	a6,0(ra)
    11b2:	b600                	fsd	fs0,40(a2)
    11b4:	0009                	c.nop	2
    11b6:	5300                	lw	s0,32(a4)
    11b8:	09e8                	addi	a0,sp,220
    11ba:	8000                	.insn	2, 0x8000
    11bc:	0000                	unimp
    11be:	0000                	unimp
    11c0:	0004                	.insn	2, 0x0004
    11c2:	0000                	unimp
    11c4:	0000                	unimp
    11c6:	0000                	unimp
    11c8:	ce26                	sw	s1,28(sp)
    11ca:	58000003          	lb	zero,1408(zero) # 580 <_start-0x7ffffa80>
    11ce:	00007303          	.insn	4, 0x7303
    11d2:	e400                	sd	s0,8(s0)
    11d4:	0009                	c.nop	2
    11d6:	0000                	unimp
    11d8:	0300                	addi	s0,sp,384
    11da:	00000383          	lb	t2,0(zero) # 0 <_start-0x80000000>
    11de:	631d                	lui	t1,0x7
    11e0:	59007273          	csrrci	tp,0x590,0
    11e4:	0000a803          	lw	a6,0(ra)
    11e8:	0500                	addi	s0,sp,640
    11ea:	000a                	c.slli	zero,0x2
    11ec:	0300                	addi	s0,sp,384
    11ee:	00000393          	li	t2,0
    11f2:	ce26                	sw	s1,28(sp)
    11f4:	59000003          	lb	zero,1424(zero) # 590 <_start-0x7ffffa70>
    11f8:	00007303          	.insn	4, 0x7303
    11fc:	1900                	addi	s0,sp,176
    11fe:	000a                	c.slli	zero,0x2
    1200:	0000                	unimp
    1202:	0000                	unimp
    1204:	391c                	fld	fa5,48(a0)
    1206:	01000003          	lb	zero,16(zero) # 10 <_start-0x7ffffff0>
    120a:	062e                	slli	a2,a2,0xb
    120c:	00e0                	addi	s0,sp,76
    120e:	0000                	unimp
    1210:	0d6c                	addi	a1,sp,668
    1212:	0000                	unimp
    1214:	72747313          	andi	t1,s0,1831
    1218:	2e00                	fld	fs0,24(a2)
    121a:	ec1d                	bnez	s0,1258 <_start-0x7fffeda8>
    121c:	0000                	unimp
    121e:	0000                	unimp
    1220:	2c11                	addiw	s8,s8,4
    1222:	0002                	c.slli64	zero
    1224:	0100                	addi	s0,sp,128
    1226:	0626                	slli	a2,a2,0x9
    1228:	00e0                	addi	s0,sp,76
    122a:	0000                	unimp
    122c:	09a8                	addi	a0,sp,216
    122e:	8000                	.insn	2, 0x8000
    1230:	0000                	unimp
    1232:	0000                	unimp
    1234:	0018                	.insn	2, 0x0018
    1236:	0000                	unimp
    1238:	0000                	unimp
    123a:	0000                	unimp
    123c:	9c01                	subw	s0,s0,s0
    123e:	00000dab          	.insn	4, 0x0dab
    1242:	0003053f 0dab2700 	.insn	8, 0x0dab27000003053f
    124a:	0000                	unimp
    124c:	0000                	unimp
    124e:	1000                	addi	s0,sp,32
    1250:	00021e3f 0dab2800 	.insn	8, 0x0dab280000021e3f
    1258:	0000                	unimp
    125a:	0005                	c.nop	1
    125c:	1000                	addi	s0,sp,32
    125e:	0d00                	addi	s0,sp,656
    1260:	0092                	slli	ra,ra,0x4
    1262:	0000                	unimp
    1264:	c62c                	sw	a1,72(a2)
    1266:	0002                	c.slli64	zero
    1268:	1e00                	addi	s0,sp,816
    126a:	0dda                	slli	s11,s11,0x16
    126c:	0000                	unimp
    126e:	1e006313          	ori	t1,zero,480
    1272:	e014                	sd	a3,0(s0)
    1274:	0000                	unimp
    1276:	1700                	addi	s0,sp,928
    1278:	040c                	addi	a1,sp,512
    127a:	0000                	unimp
    127c:	151f 0dab 0000      	.insn	6, 0x0dab151f
    1282:	00021e17          	auipc	t3,0x21
    1286:	2000                	fld	fs0,0(s0)
    1288:	ab15                	j	17bc <_start-0x7fffe844>
    128a:	000d                	c.nop	3
    128c:	0000                	unimp
    128e:	f02c                	sd	a1,96(s0)
    1290:	0002                	c.slli64	zero
    1292:	1900                	addi	s0,sp,176
    1294:	0df0                	addi	a2,sp,732
    1296:	0000                	unimp
    1298:	0002e717          	auipc	a4,0x2e
    129c:	1a00                	addi	s0,sp,304
    129e:	ab15                	j	17d2 <_start-0x7fffe82e>
    12a0:	000d                	c.nop	3
    12a2:	0000                	unimp
    12a4:	400a                	.insn	2, 0x400a
    12a6:	30000007          	.insn	4, 0x30000007
    12aa:	0002                	c.slli64	zero
    12ac:	0080                	addi	s0,sp,64
    12ae:	0000                	unimp
    12b0:	2000                	fld	fs0,0(s0)
    12b2:	0000                	unimp
    12b4:	0000                	unimp
    12b6:	0000                	unimp
    12b8:	0100                	addi	s0,sp,128
    12ba:	4a9c                	lw	a5,16(a3)
    12bc:	000e                	c.slli	zero,0x3
    12be:	0100                	addi	s0,sp,128
    12c0:	0750                	addi	a2,sp,900
    12c2:	0000                	unimp
    12c4:	0a2d                	addi	s4,s4,11
    12c6:	0000                	unimp
    12c8:	000db007          	fld	ft0,0(s11)
    12cc:	3000                	fld	fs0,32(s0)
    12ce:	0002                	c.slli64	zero
    12d0:	0080                	addi	s0,sp,64
    12d2:	0000                	unimp
    12d4:	9200                	.insn	2, 0x9200
    12d6:	0000                	unimp
    12d8:	b500                	fsd	fs0,40(a0)
    12da:	0dba0103          	lb	sp,219(s4)
    12de:	0000                	unimp
    12e0:	0a44                	addi	s1,sp,276
    12e2:	0000                	unimp
    12e4:	00009203          	lh	tp,0(ra)
    12e8:	0f00                	addi	s0,sp,912
    12ea:	00000dc3          	fmadd.s	fs11,ft0,ft0,ft0,rne
    12ee:	0000                	unimp
    12f0:	1000                	addi	s0,sp,32
    12f2:	000dce0f          	.insn	4, 0x000dce0f
    12f6:	0500                	addi	s0,sp,640
    12f8:	0000                	unimp
    12fa:	0010                	.insn	2, 0x0010
    12fc:	0000                	unimp
    12fe:	060a                	slli	a2,a2,0x2
    1300:	0004                	.insn	2, 0x0004
    1302:	5000                	lw	s0,32(s0)
    1304:	0002                	c.slli64	zero
    1306:	0080                	addi	s0,sp,64
    1308:	0000                	unimp
    130a:	0e00                	addi	s0,sp,784
    130c:	0000                	unimp
    130e:	0000                	unimp
    1310:	0000                	unimp
    1312:	0100                	addi	s0,sp,128
    1314:	7b9c                	ld	a5,48(a5)
    1316:	000e                	c.slli	zero,0x3
    1318:	1500                	addi	s0,sp,672
    131a:	0414                	addi	a3,sp,512
    131c:	0000                	unimp
    131e:	5a01                	li	s4,-32
    1320:	1f15                	addi	t5,t5,-27
    1322:	0004                	.insn	2, 0x0004
    1324:	0100                	addi	s0,sp,128
    1326:	042b1e5b          	.insn	4, 0x042b1e5b
    132a:	0000                	unimp
    132c:	5b01                	li	s6,-32
    132e:	0a00                	addi	s0,sp,272
    1330:	04ca                	slli	s1,s1,0x12
    1332:	0000                	unimp
    1334:	025e                	slli	tp,tp,0x17
    1336:	8000                	.insn	2, 0x8000
    1338:	0000                	unimp
    133a:	0000                	unimp
    133c:	0312                	slli	t1,t1,0x4
    133e:	0000                	unimp
    1340:	0000                	unimp
    1342:	0000                	unimp
    1344:	9c01                	subw	s0,s0,s0
    1346:	000012d3          	fadd.s	ft5,ft0,ft0,rtz
    134a:	e115                	bnez	a0,136e <_start-0x7fffec92>
    134c:	0004                	.insn	2, 0x0004
    134e:	0100                	addi	s0,sp,128
    1350:	015a                	slli	sp,sp,0x16
    1352:	04ec                	addi	a1,sp,588
    1354:	0000                	unimp
    1356:	0a51                	addi	s4,s4,20
    1358:	0000                	unimp
    135a:	f701                	bnez	a4,1262 <_start-0x7fffed9e>
    135c:	0004                	.insn	2, 0x0004
    135e:	9400                	.insn	2, 0x9400
    1360:	000a                	c.slli	zero,0x2
    1362:	0200                	addi	s0,sp,256
    1364:	0501                	addi	a0,a0,0
    1366:	0000                	unimp
    1368:	00000b27          	.insn	4, 0x0b27
    136c:	0a02                	c.slli64	s4
    136e:	0005                	c.nop	1
    1370:	6800                	ld	s0,16(s0)
    1372:	0200000b          	.insn	4, 0x0200000b
    1376:	0516                	slli	a0,a0,0x5
    1378:	0000                	unimp
    137a:	0b92                	slli	s7,s7,0x4
    137c:	0000                	unimp
    137e:	2108                	fld	fa0,0(a0)
    1380:	0005                	c.nop	1
    1382:	0200                	addi	s0,sp,256
    1384:	052d                	addi	a0,a0,11
    1386:	0000                	unimp
    1388:	0c0e                	slli	s8,s8,0x3
    138a:	0000                	unimp
    138c:	3908                	fld	fa0,48(a0)
    138e:	0005                	c.nop	1
    1390:	0200                	addi	s0,sp,256
    1392:	0545                	addi	a0,a0,17
    1394:	0000                	unimp
    1396:	00000c43          	fmadd.s	fs8,ft0,ft0,ft0,rne
    139a:	5102                	lw	sp,32(sp)
    139c:	0005                	c.nop	1
    139e:	7400                	ld	s0,40(s0)
    13a0:	000c                	.insn	2, 0x000c
    13a2:	0200                	addi	s0,sp,256
    13a4:	055d                	addi	a0,a0,23
    13a6:	0000                	unimp
    13a8:	00000cc7          	fmsub.s	fs9,ft0,ft0,ft0,rne
    13ac:	6902                	ld	s2,0(sp)
    13ae:	0005                	c.nop	1
    13b0:	fa00                	sd	s0,48(a2)
    13b2:	000c                	.insn	2, 0x000c
    13b4:	0200                	addi	s0,sp,256
    13b6:	0575                	addi	a0,a0,29
    13b8:	0000                	unimp
    13ba:	0d12                	slli	s10,s10,0x4
    13bc:	0000                	unimp
    13be:	8140                	.insn	2, 0x8140
    13c0:	0005                	c.nop	1
    13c2:	1900                	addi	s0,sp,176
    13c4:	0589                	addi	a1,a1,2
    13c6:	0000                	unimp
    13c8:	0328                	addi	a0,sp,392
    13ca:	8000                	.insn	2, 0x8000
    13cc:	0000                	unimp
    13ce:	0000                	unimp
    13d0:	9119                	srli	a0,a0,0x26
    13d2:	0005                	c.nop	1
    13d4:	8400                	.insn	2, 0x8400
    13d6:	00800003          	lb	zero,8(zero) # 8 <_start-0x7ffffff8>
    13da:	0000                	unimp
    13dc:	1900                	addi	s0,sp,176
    13de:	0599                	addi	a1,a1,6
    13e0:	0000                	unimp
    13e2:	041c                	addi	a5,sp,512
    13e4:	8000                	.insn	2, 0x8000
    13e6:	0000                	unimp
    13e8:	0000                	unimp
    13ea:	d604                	sw	s1,40(a2)
    13ec:	0004                	.insn	2, 0x0004
    13ee:	0500                	addi	s0,sp,640
    13f0:	0406                	slli	s0,s0,0x1
    13f2:	0000                	unimp
    13f4:	0270                	addi	a2,sp,268
    13f6:	8000                	.insn	2, 0x8000
    13f8:	0000                	unimp
    13fa:	0000                	unimp
    13fc:	00a2                	slli	ra,ra,0x8
    13fe:	0000                	unimp
    1400:	7507010b          	.insn	4, 0x7507010b
    1404:	0100000f          	fence	w,unknown
    1408:	0414                	addi	a3,sp,512
    140a:	0000                	unimp
    140c:	0d35                	addi	s10,s10,13
    140e:	0000                	unimp
    1410:	1f01                	addi	t5,t5,-32
    1412:	0004                	.insn	2, 0x0004
    1414:	4200                	lw	s0,0(a2)
    1416:	000d                	c.nop	3
    1418:	0300                	addi	s0,sp,384
    141a:	00a2                	slli	ra,ra,0x8
    141c:	0000                	unimp
    141e:	2b02                	fld	fs6,0(sp)
    1420:	0004                	.insn	2, 0x0004
    1422:	4200                	lw	s0,0(a2)
    1424:	000d                	c.nop	3
    1426:	0000                	unimp
    1428:	0500                	addi	s0,sp,640
    142a:	0406                	slli	s0,s0,0x1
    142c:	0000                	unimp
    142e:	02d4                	addi	a3,sp,324
    1430:	8000                	.insn	2, 0x8000
    1432:	0000                	unimp
    1434:	0000                	unimp
    1436:	00b2                	slli	ra,ra,0xc
    1438:	0000                	unimp
    143a:	018d                	addi	gp,gp,3 # 8000284b <__global_pointer$+0x3>
    143c:	000faf07          	flw	ft10,0(t6)
    1440:	0100                	addi	s0,sp,128
    1442:	0414                	addi	a3,sp,512
    1444:	0000                	unimp
    1446:	00000d4f          	fnmadd.s	fs10,ft0,ft0,ft0,rne
    144a:	1f01                	addi	t5,t5,-32
    144c:	0004                	.insn	2, 0x0004
    144e:	5e00                	lw	s0,56(a2)
    1450:	000d                	c.nop	3
    1452:	0300                	addi	s0,sp,384
    1454:	00b2                	slli	ra,ra,0xc
    1456:	0000                	unimp
    1458:	2b02                	fld	fs6,0(sp)
    145a:	0004                	.insn	2, 0x0004
    145c:	6b00                	ld	s0,16(a4)
    145e:	000d                	c.nop	3
    1460:	0000                	unimp
    1462:	0500                	addi	s0,sp,640
    1464:	0406                	slli	s0,s0,0x1
    1466:	0000                	unimp
    1468:	033a                	slli	t1,t1,0xe
    146a:	8000                	.insn	2, 0x8000
    146c:	0000                	unimp
    146e:	0000                	unimp
    1470:	00c5                	addi	ra,ra,17
    1472:	0000                	unimp
    1474:	0188                	addi	a0,sp,192
    1476:	000fe907          	.insn	4, 0x000fe907
    147a:	0100                	addi	s0,sp,128
    147c:	0414                	addi	a3,sp,512
    147e:	0000                	unimp
    1480:	0d78                	addi	a4,sp,668
    1482:	0000                	unimp
    1484:	1f01                	addi	t5,t5,-32
    1486:	0004                	.insn	2, 0x0004
    1488:	8700                	.insn	2, 0x8700
    148a:	000d                	c.nop	3
    148c:	0300                	addi	s0,sp,384
    148e:	00c5                	addi	ra,ra,17
    1490:	0000                	unimp
    1492:	2b02                	fld	fs6,0(sp)
    1494:	0004                	.insn	2, 0x0004
    1496:	9400                	.insn	2, 0x9400
    1498:	000d                	c.nop	3
    149a:	0000                	unimp
    149c:	0500                	addi	s0,sp,640
    149e:	0406                	slli	s0,s0,0x1
    14a0:	0000                	unimp
    14a2:	0358                	addi	a4,sp,388
    14a4:	8000                	.insn	2, 0x8000
    14a6:	0000                	unimp
    14a8:	0000                	unimp
    14aa:	00d5                	addi	ra,ra,21
    14ac:	0000                	unimp
    14ae:	0179                	addi	sp,sp,30
    14b0:	00102307          	flw	ft6,1(zero) # 1 <_start-0x7fffffff>
    14b4:	0100                	addi	s0,sp,128
    14b6:	0414                	addi	a3,sp,512
    14b8:	0000                	unimp
    14ba:	0da1                	addi	s11,s11,8
    14bc:	0000                	unimp
    14be:	1f01                	addi	t5,t5,-32
    14c0:	0004                	.insn	2, 0x0004
    14c2:	b000                	fsd	fs0,32(s0)
    14c4:	000d                	c.nop	3
    14c6:	0300                	addi	s0,sp,384
    14c8:	00d5                	addi	ra,ra,21
    14ca:	0000                	unimp
    14cc:	2b02                	fld	fs6,0(sp)
    14ce:	0004                	.insn	2, 0x0004
    14d0:	bd00                	fsd	fs0,56(a0)
    14d2:	000d                	c.nop	3
    14d4:	0000                	unimp
    14d6:	0500                	addi	s0,sp,640
    14d8:	0406                	slli	s0,s0,0x1
    14da:	0000                	unimp
    14dc:	035e                	slli	t1,t1,0x17
    14de:	8000                	.insn	2, 0x8000
    14e0:	0000                	unimp
    14e2:	0000                	unimp
    14e4:	00e8                	addi	a0,sp,76
    14e6:	0000                	unimp
    14e8:	017a                	slli	sp,sp,0x1e
    14ea:	00105d07          	.insn	4, 0x00105d07
    14ee:	0100                	addi	s0,sp,128
    14f0:	0414                	addi	a3,sp,512
    14f2:	0000                	unimp
    14f4:	0dca                	slli	s11,s11,0x12
    14f6:	0000                	unimp
    14f8:	1f01                	addi	t5,t5,-32
    14fa:	0004                	.insn	2, 0x0004
    14fc:	d900                	sw	s0,48(a0)
    14fe:	000d                	c.nop	3
    1500:	0300                	addi	s0,sp,384
    1502:	00e8                	addi	a0,sp,76
    1504:	0000                	unimp
    1506:	2b02                	fld	fs6,0(sp)
    1508:	0004                	.insn	2, 0x0004
    150a:	d900                	sw	s0,48(a0)
    150c:	000d                	c.nop	3
    150e:	0000                	unimp
    1510:	0500                	addi	s0,sp,640
    1512:	05e1                	addi	a1,a1,24
    1514:	0000                	unimp
    1516:	0380                	addi	s0,sp,448
    1518:	8000                	.insn	2, 0x8000
    151a:	0000                	unimp
    151c:	0000                	unimp
    151e:	000000fb          	.insn	4, 0x00fb
    1522:	0181                	addi	gp,gp,0 # 80002848 <__global_pointer$>
    1524:	880d                	andi	s0,s0,3
    1526:	0010                	.insn	2, 0x0010
    1528:	0100                	addi	s0,sp,128
    152a:	05f0                	addi	a2,sp,716
    152c:	0000                	unimp
    152e:	0de6                	slli	s11,s11,0x19
    1530:	0000                	unimp
    1532:	fa01                	bnez	a2,1442 <_start-0x7fffebbe>
    1534:	0005                	c.nop	1
    1536:	0600                	addi	s0,sp,768
    1538:	000e                	c.slli	zero,0x3
    153a:	0000                	unimp
    153c:	0605                	addi	a2,a2,1
    153e:	0006                	c.slli	zero,0x1
    1540:	8400                	.insn	2, 0x8400
    1542:	00800003          	lb	zero,8(zero) # 8 <_start-0x7ffffff8>
    1546:	0000                	unimp
    1548:	1200                	addi	s0,sp,288
    154a:	0001                	nop
    154c:	8300                	.insn	2, 0x8300
    154e:	0701                	addi	a4,a4,0 # 2f298 <_start-0x7ffd0d68>
    1550:	1155                	addi	sp,sp,-11
    1552:	0000                	unimp
    1554:	1204                	addi	s1,sp,288
    1556:	0006                	c.slli	zero,0x1
    1558:	0100                	addi	s0,sp,128
    155a:	061d                	addi	a2,a2,7
    155c:	0000                	unimp
    155e:	00000e13          	li	t3,0
    1562:	2801                	sext.w	a6,a6
    1564:	0006                	c.slli	zero,0x1
    1566:	2900                	fld	fs0,16(a0)
    1568:	000e                	c.slli	zero,0x3
    156a:	0400                	addi	s0,sp,512
    156c:	00000633          	add	a2,zero,zero
    1570:	3e01                	addiw	t3,t3,-32 # 22262 <_start-0x7ffddd9e>
    1572:	0006                	c.slli	zero,0x1
    1574:	3f00                	fld	fs0,56(a4)
    1576:	000e                	c.slli	zero,0x3
    1578:	0100                	addi	s0,sp,128
    157a:	0649                	addi	a2,a2,18
    157c:	0000                	unimp
    157e:	00000e53          	fadd.s	ft8,ft0,ft0,rne
    1582:	00011203          	lh	tp,0(sp)
    1586:	1e00                	addi	s0,sp,816
    1588:	0654                	addi	a3,sp,772
    158a:	0000                	unimp
    158c:	7df09103          	lh	sp,2015(ra)
    1590:	5f02                	lw	t5,32(sp)
    1592:	0006                	c.slli	zero,0x1
    1594:	7300                	ld	s0,32(a4)
    1596:	000e                	c.slli	zero,0x3
    1598:	2800                	fld	fs0,16(s0)
    159a:	0406                	slli	s0,s0,0x1
    159c:	0000                	unimp
    159e:	03b6                	slli	t2,t2,0xd
    15a0:	8000                	.insn	2, 0x8000
    15a2:	0000                	unimp
    15a4:	0000                	unimp
    15a6:	0124                	addi	s1,sp,136
    15a8:	0000                	unimp
    15aa:	111e05e3          	beq	t3,a7,1eb4 <_start-0x7fffe14c>
    15ae:	0000                	unimp
    15b0:	1401                	addi	s0,s0,-32
    15b2:	0004                	.insn	2, 0x0004
    15b4:	9000                	.insn	2, 0x9000
    15b6:	000e                	c.slli	zero,0x3
    15b8:	0100                	addi	s0,sp,128
    15ba:	041f 0000 0ea2      	.insn	6, 0x0ea20000041f
    15c0:	0000                	unimp
    15c2:	00012403          	lw	s0,0(sp)
    15c6:	0200                	addi	s0,sp,256
    15c8:	0000042b          	.insn	4, 0x042b
    15cc:	00000eaf          	.insn	4, 0x0eaf
    15d0:	0000                	unimp
    15d2:	00040607          	.insn	4, 0x00040607
    15d6:	d400                	sw	s0,40(s0)
    15d8:	00800003          	lb	zero,8(zero) # 8 <_start-0x7ffffff8>
    15dc:	0000                	unimp
    15de:	3400                	fld	fs0,40(s0)
    15e0:	0001                	nop
    15e2:	e600                	sd	s0,8(a2)
    15e4:	0105                	addi	sp,sp,1
    15e6:	0414                	addi	a3,sp,512
    15e8:	0000                	unimp
    15ea:	0ebc                	addi	a5,sp,856
    15ec:	0000                	unimp
    15ee:	1f01                	addi	t5,t5,-32
    15f0:	0004                	.insn	2, 0x0004
    15f2:	e000                	sd	s0,0(s0)
    15f4:	000e                	c.slli	zero,0x3
    15f6:	0300                	addi	s0,sp,384
    15f8:	0134                	addi	a3,sp,136
    15fa:	0000                	unimp
    15fc:	2b02                	fld	fs6,0(sp)
    15fe:	0004                	.insn	2, 0x0004
    1600:	f400                	sd	s0,40(s0)
    1602:	000e                	c.slli	zero,0x3
    1604:	0000                	unimp
    1606:	0000                	unimp
    1608:	0500                	addi	s0,sp,640
    160a:	000005b7          	lui	a1,0x0
    160e:	03f4                	addi	a3,sp,460
    1610:	8000                	.insn	2, 0x8000
    1612:	0000                	unimp
    1614:	0000                	unimp
    1616:	014a                	slli	sp,sp,0x12
    1618:	0000                	unimp
    161a:	0162                	slli	sp,sp,0x18
    161c:	800d                	srli	s0,s0,0x3
    161e:	0011                	c.nop	4
    1620:	0100                	addi	s0,sp,128
    1622:	05c6                	slli	a1,a1,0x11
    1624:	0000                	unimp
    1626:	0f08                	addi	a0,sp,912
    1628:	0000                	unimp
    162a:	d001                	beqz	s0,152a <_start-0x7fffead6>
    162c:	0005                	c.nop	1
    162e:	2800                	fld	fs0,16(s0)
    1630:	0000000f          	fence	unknown,unknown
    1634:	0605                	addi	a2,a2,1
    1636:	0004                	.insn	2, 0x0004
    1638:	0400                	addi	s0,sp,512
    163a:	0004                	.insn	2, 0x0004
    163c:	0080                	addi	s0,sp,64
    163e:	0000                	unimp
    1640:	5f00                	lw	s0,56(a4)
    1642:	0001                	nop
    1644:	4e00                	lw	s0,24(a2)
    1646:	0701                	addi	a4,a4,0
    1648:	11b6                	slli	gp,gp,0x2d
    164a:	0000                	unimp
    164c:	1404                	addi	s1,sp,544
    164e:	0004                	.insn	2, 0x0004
    1650:	0100                	addi	s0,sp,128
    1652:	041f 0000 0f3e      	.insn	6, 0x0f3e0000041f
    1658:	0000                	unimp
    165a:	00015f03          	lhu	t5,0(sp)
    165e:	0200                	addi	s0,sp,256
    1660:	0000042b          	.insn	4, 0x042b
    1664:	00000f4b          	fnmsub.s	ft10,ft0,ft0,ft0,rne
    1668:	0000                	unimp
    166a:	6405                	lui	s0,0x1
    166c:	0002                	c.slli64	zero
    166e:	7000                	ld	s0,32(s0)
    1670:	0004                	.insn	2, 0x0004
    1672:	0080                	addi	s0,sp,64
    1674:	0000                	unimp
    1676:	8300                	.insn	2, 0x8300
    1678:	0001                	nop
    167a:	5600                	lw	s0,40(a2)
    167c:	1701                	addi	a4,a4,-32
    167e:	11f0                	addi	a2,sp,236
    1680:	0000                	unimp
    1682:	7401                	lui	s0,0xfffe0
    1684:	0002                	c.slli64	zero
    1686:	5800                	lw	s0,48(s0)
    1688:	0100000f          	fence	w,unknown
    168c:	027e                	slli	tp,tp,0x1f
    168e:	0000                	unimp
    1690:	0f6e                	slli	t5,t5,0x1b
    1692:	0000                	unimp
    1694:	00018303          	lb	t1,0(gp) # 80002848 <__global_pointer$>
    1698:	0200                	addi	s0,sp,256
    169a:	0288                	addi	a0,sp,320
    169c:	0000                	unimp
    169e:	0f7d                	addi	t5,t5,31
    16a0:	0000                	unimp
    16a2:	0000                	unimp
    16a4:	0605                	addi	a2,a2,1
    16a6:	0004                	.insn	2, 0x0004
    16a8:	9400                	.insn	2, 0x9400
    16aa:	0004                	.insn	2, 0x0004
    16ac:	0080                	addi	s0,sp,64
    16ae:	0000                	unimp
    16b0:	9300                	.insn	2, 0x9300
    16b2:	0001                	nop
    16b4:	5700                	lw	s0,40(a4)
    16b6:	0b01                	addi	s6,s6,0
    16b8:	122a                	slli	tp,tp,0x2a
    16ba:	0000                	unimp
    16bc:	1401                	addi	s0,s0,-32 # fffffffffffdffe0 <__global_pointer$+0xffffffff7ffdd798>
    16be:	0004                	.insn	2, 0x0004
    16c0:	9a00                	.insn	2, 0x9a00
    16c2:	0100000f          	fence	w,unknown
    16c6:	041f 0000 0fac      	.insn	6, 0x0fac0000041f
    16cc:	0000                	unimp
    16ce:	00019303          	lh	t1,0(gp) # 80002848 <__global_pointer$>
    16d2:	0200                	addi	s0,sp,256
    16d4:	0000042b          	.insn	4, 0x042b
    16d8:	0fb9                	addi	t6,t6,14
    16da:	0000                	unimp
    16dc:	0000                	unimp
    16de:	0605                	addi	a2,a2,1
    16e0:	0004                	.insn	2, 0x0004
    16e2:	b000                	fsd	fs0,32(s0)
    16e4:	0004                	.insn	2, 0x0004
    16e6:	0080                	addi	s0,sp,64
    16e8:	0000                	unimp
    16ea:	a300                	fsd	fs0,0(a4)
    16ec:	0001                	nop
    16ee:	5900                	lw	s0,48(a0)
    16f0:	0901                	addi	s2,s2,0 # 7000 <_start-0x7fff9000>
    16f2:	1264                	addi	s1,sp,300
    16f4:	0000                	unimp
    16f6:	1401                	addi	s0,s0,-32
    16f8:	0004                	.insn	2, 0x0004
    16fa:	c600                	sw	s0,8(a2)
    16fc:	0100000f          	fence	w,unknown
    1700:	041f 0000 0ff0      	.insn	6, 0x0ff00000041f
    1706:	0000                	unimp
    1708:	0001a303          	lw	t1,0(gp) # 80002848 <__global_pointer$>
    170c:	0200                	addi	s0,sp,256
    170e:	0000042b          	.insn	4, 0x042b
    1712:	1009                	c.nop	-30
    1714:	0000                	unimp
    1716:	0000                	unimp
    1718:	0605                	addi	a2,a2,1
    171a:	0004                	.insn	2, 0x0004
    171c:	e800                	sd	s0,16(s0)
    171e:	0004                	.insn	2, 0x0004
    1720:	0080                	addi	s0,sp,64
    1722:	0000                	unimp
    1724:	c200                	sw	s0,0(a2)
    1726:	0001                	nop
    1728:	5d00                	lw	s0,56(a0)
    172a:	0901                	addi	s2,s2,0
    172c:	129e                	slli	t0,t0,0x27
    172e:	0000                	unimp
    1730:	1401                	addi	s0,s0,-32
    1732:	0004                	.insn	2, 0x0004
    1734:	1d00                	addi	s0,sp,688
    1736:	0010                	.insn	2, 0x0010
    1738:	0100                	addi	s0,sp,128
    173a:	041f 0000 102c      	.insn	6, 0x102c0000041f
    1740:	0000                	unimp
    1742:	0001c203          	lbu	tp,0(gp) # 80002848 <__global_pointer$>
    1746:	0200                	addi	s0,sp,256
    1748:	0000042b          	.insn	4, 0x042b
    174c:	1039                	c.nop	-18
    174e:	0000                	unimp
    1750:	0000                	unimp
    1752:	0641                	addi	a2,a2,16
    1754:	0004                	.insn	2, 0x0004
    1756:	5800                	lw	s0,48(s0)
    1758:	0005                	c.nop	1
    175a:	0080                	addi	s0,sp,64
    175c:	0000                	unimp
    175e:	d500                	sw	s0,40(a0)
    1760:	0001                	nop
    1762:	6400                	ld	s0,8(s0)
    1764:	0901                	addi	s2,s2,0
    1766:	1401                	addi	s0,s0,-32
    1768:	0004                	.insn	2, 0x0004
    176a:	4600                	lw	s0,8(a2)
    176c:	0010                	.insn	2, 0x0010
    176e:	0100                	addi	s0,sp,128
    1770:	041f 0000 1055      	.insn	6, 0x10550000041f
    1776:	0000                	unimp
    1778:	0001d503          	lhu	a0,0(gp) # 80002848 <__global_pointer$>
    177c:	1e00                	addi	s0,sp,816
    177e:	0000042b          	.insn	4, 0x042b
    1782:	5a01                	li	s4,-32
    1784:	0000                	unimp
    1786:	0a00                	addi	s0,sp,272
    1788:	04ca                	slli	s1,s1,0x12
    178a:	0000                	unimp
    178c:	0570                	addi	a2,sp,652
    178e:	8000                	.insn	2, 0x8000
    1790:	0000                	unimp
    1792:	0000                	unimp
    1794:	0412                	slli	s0,s0,0x4
    1796:	0000                	unimp
    1798:	0000                	unimp
    179a:	0000                	unimp
    179c:	9c01                	subw	s0,s0,s0
    179e:	1810                	addi	a2,sp,48
    17a0:	0000                	unimp
    17a2:	ec01                	bnez	s0,17ba <_start-0x7fffe846>
    17a4:	0004                	.insn	2, 0x0004
    17a6:	6200                	ld	s0,0(a2)
    17a8:	0010                	.insn	2, 0x0010
    17aa:	0100                	addi	s0,sp,128
    17ac:	000004f7          	.insn	4, 0x04f7
    17b0:	10c0                	addi	s0,sp,100
    17b2:	0000                	unimp
    17b4:	0102                	c.slli64	sp
    17b6:	0005                	c.nop	1
    17b8:	4a00                	lw	s0,16(a2)
    17ba:	0011                	c.nop	4
    17bc:	0200                	addi	s0,sp,256
    17be:	050a                	slli	a0,a0,0x2
    17c0:	0000                	unimp
    17c2:	1182                	slli	gp,gp,0x20
    17c4:	0000                	unimp
    17c6:	1602                	slli	a2,a2,0x20
    17c8:	0005                	c.nop	1
    17ca:	c900                	sw	s0,16(a0)
    17cc:	0011                	c.nop	4
    17ce:	0800                	addi	s0,sp,16
    17d0:	0521                	addi	a0,a0,8
    17d2:	0000                	unimp
    17d4:	2d02                	fld	fs10,0(sp)
    17d6:	0005                	c.nop	1
    17d8:	7400                	ld	s0,40(s0)
    17da:	0012                	c.slli	zero,0x4
    17dc:	0200                	addi	s0,sp,256
    17de:	0539                	addi	a0,a0,14
    17e0:	0000                	unimp
    17e2:	1291                	addi	t0,t0,-28
    17e4:	0000                	unimp
    17e6:	4502                	lw	a0,0(sp)
    17e8:	0005                	c.nop	1
    17ea:	9f00                	.insn	2, 0x9f00
    17ec:	0012                	c.slli	zero,0x4
    17ee:	0200                	addi	s0,sp,256
    17f0:	0551                	addi	a0,a0,20
    17f2:	0000                	unimp
    17f4:	12ee                	slli	t0,t0,0x3b
    17f6:	0000                	unimp
    17f8:	5d02                	lw	s10,32(sp)
    17fa:	0005                	c.nop	1
    17fc:	3b00                	fld	fs0,48(a4)
    17fe:	02000013          	li	zero,32
    1802:	0569                	addi	a0,a0,26
    1804:	0000                	unimp
    1806:	000013cb          	fnmsub.s	ft7,ft0,ft0,ft0,rtz
    180a:	7502                	ld	a0,32(sp)
    180c:	0005                	c.nop	1
    180e:	eb00                	sd	s0,16(a4)
    1810:	40000013          	li	zero,1024
    1814:	0581                	addi	a1,a1,0 # 0 <_start-0x80000000>
    1816:	0000                	unimp
    1818:	8919                	andi	a0,a0,6
    181a:	0005                	c.nop	1
    181c:	a600                	fsd	fs0,8(a2)
    181e:	0006                	c.slli	zero,0x1
    1820:	0080                	addi	s0,sp,64
    1822:	0000                	unimp
    1824:	1900                	addi	s0,sp,176
    1826:	0591                	addi	a1,a1,4
    1828:	0000                	unimp
    182a:	06ee                	slli	a3,a3,0x1b
    182c:	8000                	.insn	2, 0x8000
    182e:	0000                	unimp
    1830:	0000                	unimp
    1832:	9919                	andi	a0,a0,-26
    1834:	0005                	c.nop	1
    1836:	da00                	sw	s0,48(a2)
    1838:	0006                	c.slli	zero,0x1
    183a:	0080                	addi	s0,sp,64
    183c:	0000                	unimp
    183e:	2d00                	fld	fs0,24(a0)
    1840:	04e1                	addi	s1,s1,24
    1842:	0000                	unimp
    1844:	0400                	addi	s0,sp,512
    1846:	04d6                	slli	s1,s1,0x15
    1848:	0000                	unimp
    184a:	4005                	c.li	zero,1
    184c:	70000007          	.insn	4, 0x70000007
    1850:	0005                	c.nop	1
    1852:	0080                	addi	s0,sp,64
    1854:	0000                	unimp
    1856:	e500                	sd	s0,8(a0)
    1858:	0001                	nop
    185a:	0b00                	addi	s0,sp,400
    185c:	0701                	addi	a4,a4,0
    185e:	13e9                	addi	t2,t2,-6
    1860:	0000                	unimp
    1862:	5004                	lw	s1,32(s0)
    1864:	07000007          	.insn	4, 0x07000007
    1868:	0db0                	addi	a2,sp,728
    186a:	0000                	unimp
    186c:	0570                	addi	a2,sp,652
    186e:	8000                	.insn	2, 0x8000
    1870:	0000                	unimp
    1872:	0000                	unimp
    1874:	0205                	addi	tp,tp,1 # 1 <_start-0x7fffffff>
    1876:	0000                	unimp
    1878:	03b5                	addi	t2,t2,13
    187a:	ba01                	j	118a <_start-0x7fffee76>
    187c:	000d                	c.nop	3
    187e:	4000                	lw	s0,0(s0)
    1880:	0014                	.insn	2, 0x0014
    1882:	0300                	addi	s0,sp,384
    1884:	0205                	addi	tp,tp,1 # 1 <_start-0x7fffffff>
    1886:	0000                	unimp
    1888:	c302                	sw	zero,132(sp)
    188a:	000d                	c.nop	3
    188c:	5600                	lw	s0,40(a2)
    188e:	0014                	.insn	2, 0x0014
    1890:	0200                	addi	s0,sp,256
    1892:	0dce                	slli	s11,s11,0x13
    1894:	0000                	unimp
    1896:	1472                	slli	s0,s0,0x3c
    1898:	0000                	unimp
    189a:	0000                	unimp
    189c:	0500                	addi	s0,sp,640
    189e:	0740                	addi	s0,sp,900
    18a0:	0000                	unimp
    18a2:	05fa                	slli	a1,a1,0x1e
    18a4:	8000                	.insn	2, 0x8000
    18a6:	0000                	unimp
    18a8:	0000                	unimp
    18aa:	021d                	addi	tp,tp,7 # 7 <_start-0x7ffffff9>
    18ac:	0000                	unimp
    18ae:	018d                	addi	gp,gp,3 # 8000284b <__global_pointer$+0x3>
    18b0:	00143007          	fld	ft0,1(s0)
    18b4:	0400                	addi	s0,sp,512
    18b6:	0750                	addi	a2,sp,900
    18b8:	0000                	unimp
    18ba:	000db007          	fld	ft0,0(s11)
    18be:	fa00                	sd	s0,48(a2)
    18c0:	0005                	c.nop	1
    18c2:	0080                	addi	s0,sp,64
    18c4:	0000                	unimp
    18c6:	3300                	fld	fs0,32(a4)
    18c8:	0002                	c.slli64	zero
    18ca:	b500                	fsd	fs0,40(a0)
    18cc:	0dba0403          	lb	s0,219(s4)
    18d0:	0000                	unimp
    18d2:	00024903          	lbu	s2,0(tp) # 0 <_start-0x80000000>
    18d6:	0800                	addi	s0,sp,16
    18d8:	00000dc3          	fmadd.s	fs11,ft0,ft0,ft0,rne
    18dc:	ce08                	sw	a0,24(a2)
    18de:	000d                	c.nop	3
    18e0:	0000                	unimp
    18e2:	0000                	unimp
    18e4:	e105                	bnez	a0,1904 <_start-0x7fffe6fc>
    18e6:	0005                	c.nop	1
    18e8:	da00                	sw	s0,48(a2)
    18ea:	0006                	c.slli	zero,0x1
    18ec:	0080                	addi	s0,sp,64
    18ee:	0000                	unimp
    18f0:	5f00                	lw	s0,56(a4)
    18f2:	0002                	c.slli64	zero
    18f4:	8100                	.insn	2, 0x8100
    18f6:	0d01                	addi	s10,s10,0
    18f8:	0000145b          	.insn	4, 0x145b
    18fc:	f001                	bnez	s0,17fc <_start-0x7fffe804>
    18fe:	0005                	c.nop	1
    1900:	9200                	.insn	2, 0x9200
    1902:	0014                	.insn	2, 0x0014
    1904:	0100                	addi	s0,sp,128
    1906:	05fa                	slli	a1,a1,0x1e
    1908:	0000                	unimp
    190a:	14b2                	slli	s1,s1,0x2c
    190c:	0000                	unimp
    190e:	0500                	addi	s0,sp,640
    1910:	0606                	slli	a2,a2,0x1
    1912:	0000                	unimp
    1914:	06ee                	slli	a3,a3,0x1b
    1916:	8000                	.insn	2, 0x8000
    1918:	0000                	unimp
    191a:	0000                	unimp
    191c:	0279                	addi	tp,tp,30 # 1e <_start-0x7fffffe2>
    191e:	0000                	unimp
    1920:	52070183          	lb	gp,1312(a4)
    1924:	0015                	c.nop	5
    1926:	0400                	addi	s0,sp,512
    1928:	0612                	slli	a2,a2,0x4
    192a:	0000                	unimp
    192c:	1d01                	addi	s10,s10,-32
    192e:	0006                	c.slli	zero,0x1
    1930:	c900                	sw	s0,16(a0)
    1932:	0014                	.insn	2, 0x0014
    1934:	0100                	addi	s0,sp,128
    1936:	0628                	addi	a0,sp,776
    1938:	0000                	unimp
    193a:	14e2                	slli	s1,s1,0x38
    193c:	0000                	unimp
    193e:	3304                	fld	fs1,32(a4)
    1940:	0006                	c.slli	zero,0x1
    1942:	0100                	addi	s0,sp,128
    1944:	063e                	slli	a2,a2,0xf
    1946:	0000                	unimp
    1948:	14f8                	addi	a4,sp,620
    194a:	0000                	unimp
    194c:	4901                	li	s2,0
    194e:	0006                	c.slli	zero,0x1
    1950:	0c00                	addi	s0,sp,528
    1952:	0015                	c.nop	5
    1954:	0300                	addi	s0,sp,384
    1956:	0279                	addi	tp,tp,30 # 1e <_start-0x7fffffe2>
    1958:	0000                	unimp
    195a:	541e                	lw	s0,228(sp)
    195c:	0006                	c.slli	zero,0x1
    195e:	0300                	addi	s0,sp,384
    1960:	f091                	bnez	s1,1864 <_start-0x7fffe79c>
    1962:	027d                	addi	tp,tp,31 # 1f <_start-0x7fffffe1>
    1964:	065f 0000 152c      	.insn	6, 0x152c0000065f
    196a:	0000                	unimp
    196c:	4028                	lw	a0,64(s0)
    196e:	14000007          	.insn	4, 0x14000007
    1972:	00800007          	.insn	4, 0x00800007
    1976:	0000                	unimp
    1978:	8c00                	.insn	2, 0x8c00
    197a:	0002                	c.slli64	zero
    197c:	e300                	sd	s0,0(a4)
    197e:	fe05                	bnez	a2,18b6 <_start-0x7fffe74a>
    1980:	0014                	.insn	2, 0x0014
    1982:	0400                	addi	s0,sp,512
    1984:	0750                	addi	a2,sp,900
    1986:	0000                	unimp
    1988:	000db007          	fld	ft0,0(s11)
    198c:	1400                	addi	s0,sp,544
    198e:	00800007          	.insn	4, 0x00800007
    1992:	0000                	unimp
    1994:	8c00                	.insn	2, 0x8c00
    1996:	0002                	c.slli64	zero
    1998:	b500                	fsd	fs0,40(a0)
    199a:	0dba0403          	lb	s0,219(s4)
    199e:	0000                	unimp
    19a0:	00028c03          	lb	s8,0(t0)
    19a4:	0800                	addi	s0,sp,16
    19a6:	00000dc3          	fmadd.s	fs11,ft0,ft0,ft0,rne
    19aa:	ce08                	sw	a0,24(a2)
    19ac:	000d                	c.nop	3
    19ae:	0000                	unimp
    19b0:	0000                	unimp
    19b2:	00074007          	.insn	4, 0x00074007
    19b6:	4000                	lw	s0,0(s0)
    19b8:	00800007          	.insn	4, 0x00800007
    19bc:	0000                	unimp
    19be:	9f00                	.insn	2, 0x9f00
    19c0:	0002                	c.slli64	zero
    19c2:	e600                	sd	s0,8(a2)
    19c4:	0105                	addi	sp,sp,1
    19c6:	0750                	addi	a2,sp,900
    19c8:	0000                	unimp
    19ca:	1549                	addi	a0,a0,-14
    19cc:	0000                	unimp
    19ce:	000db007          	fld	ft0,0(s11)
    19d2:	4000                	lw	s0,0(s0)
    19d4:	00800007          	.insn	4, 0x00800007
    19d8:	0000                	unimp
    19da:	b500                	fsd	fs0,40(a0)
    19dc:	0002                	c.slli64	zero
    19de:	b500                	fsd	fs0,40(a0)
    19e0:	0dba0103          	lb	sp,219(s4)
    19e4:	0000                	unimp
    19e6:	0000155b          	.insn	4, 0x155b
    19ea:	0002b503          	ld	a0,0(t0)
    19ee:	0200                	addi	s0,sp,256
    19f0:	00000dc3          	fmadd.s	fs11,ft0,ft0,ft0,rne
    19f4:	1568                	addi	a0,sp,684
    19f6:	0000                	unimp
    19f8:	ce02                	sw	zero,28(sp)
    19fa:	000d                	c.nop	3
    19fc:	7800                	ld	s0,48(s0)
    19fe:	0015                	c.nop	5
    1a00:	0000                	unimp
    1a02:	0000                	unimp
    1a04:	0000                	unimp
    1a06:	6405                	lui	s0,0x1
    1a08:	0002                	c.slli64	zero
    1a0a:	c200                	sw	s0,0(a2)
    1a0c:	00800007          	.insn	4, 0x00800007
    1a10:	0000                	unimp
    1a12:	c800                	sw	s0,16(s0)
    1a14:	0002                	c.slli64	zero
    1a16:	5600                	lw	s0,40(a2)
    1a18:	1701                	addi	a4,a4,-32
    1a1a:	158c                	addi	a1,sp,736
    1a1c:	0000                	unimp
    1a1e:	7401                	lui	s0,0xfffe0
    1a20:	0002                	c.slli64	zero
    1a22:	8a00                	.insn	2, 0x8a00
    1a24:	0015                	c.nop	5
    1a26:	0100                	addi	s0,sp,128
    1a28:	027e                	slli	tp,tp,0x1f
    1a2a:	0000                	unimp
    1a2c:	15a0                	addi	s0,sp,744
    1a2e:	0000                	unimp
    1a30:	0002c803          	lbu	a6,0(t0)
    1a34:	0200                	addi	s0,sp,256
    1a36:	0288                	addi	a0,sp,320
    1a38:	0000                	unimp
    1a3a:	15c5                	addi	a1,a1,-15
    1a3c:	0000                	unimp
    1a3e:	0000                	unimp
    1a40:	0007402f          	.insn	4, 0x0007402f
    1a44:	e600                	sd	s0,8(a2)
    1a46:	00800007          	.insn	4, 0x00800007
    1a4a:	0000                	unimp
    1a4c:	1800                	addi	s0,sp,48
    1a4e:	0000                	unimp
    1a50:	0000                	unimp
    1a52:	0000                	unimp
    1a54:	5700                	lw	s0,40(a4)
    1a56:	0b01                	addi	s6,s6,0
    1a58:	15d6                	slli	a1,a1,0x35
    1a5a:	0000                	unimp
    1a5c:	5004                	lw	s1,32(s0)
    1a5e:	09000007          	.insn	4, 0x09000007
    1a62:	0db0                	addi	a2,sp,728
    1a64:	0000                	unimp
    1a66:	07e6                	slli	a5,a5,0x19
    1a68:	8000                	.insn	2, 0x8000
    1a6a:	0000                	unimp
    1a6c:	0000                	unimp
    1a6e:	0018                	.insn	2, 0x0018
    1a70:	0000                	unimp
    1a72:	0000                	unimp
    1a74:	0000                	unimp
    1a76:	b501                	j	1876 <_start-0x7fffe78a>
    1a78:	0dba0403          	lb	s0,219(s4)
    1a7c:	0000                	unimp
    1a7e:	c308                	sw	a0,0(a4)
    1a80:	000d                	c.nop	3
    1a82:	0800                	addi	s0,sp,16
    1a84:	0dce                	slli	s11,s11,0x13
    1a86:	0000                	unimp
    1a88:	0000                	unimp
    1a8a:	4005                	c.li	zero,1
    1a8c:	0c000007          	.insn	4, 0x0c000007
    1a90:	0008                	.insn	2, 0x0008
    1a92:	0080                	addi	s0,sp,64
    1a94:	0000                	unimp
    1a96:	d800                	sw	s0,48(s0)
    1a98:	0002                	c.slli64	zero
    1a9a:	5900                	lw	s0,48(a0)
    1a9c:	0901                	addi	s2,s2,0
    1a9e:	161d                	addi	a2,a2,-25
    1aa0:	0000                	unimp
    1aa2:	5004                	lw	s1,32(s0)
    1aa4:	07000007          	.insn	4, 0x07000007
    1aa8:	0db0                	addi	a2,sp,728
    1aaa:	0000                	unimp
    1aac:	080c                	addi	a1,sp,16
    1aae:	8000                	.insn	2, 0x8000
    1ab0:	0000                	unimp
    1ab2:	0000                	unimp
    1ab4:	02d8                	addi	a4,sp,324
    1ab6:	0000                	unimp
    1ab8:	03b5                	addi	t2,t2,13
    1aba:	ba04                	fsd	fs1,48(a2)
    1abc:	000d                	c.nop	3
    1abe:	0300                	addi	s0,sp,384
    1ac0:	02d8                	addi	a4,sp,324
    1ac2:	0000                	unimp
    1ac4:	c308                	sw	a0,0(a4)
    1ac6:	000d                	c.nop	3
    1ac8:	0800                	addi	s0,sp,16
    1aca:	0dce                	slli	s11,s11,0x13
    1acc:	0000                	unimp
    1ace:	0000                	unimp
    1ad0:	0500                	addi	s0,sp,640
    1ad2:	000005b7          	lui	a1,0x0
    1ad6:	0856                	slli	a6,a6,0x15
    1ad8:	8000                	.insn	2, 0x8000
    1ada:	0000                	unimp
    1adc:	0000                	unimp
    1ade:	02f5                	addi	t0,t0,29
    1ae0:	0000                	unimp
    1ae2:	0162                	slli	sp,sp,0x18
    1ae4:	480d                	li	a6,3
    1ae6:	0016                	c.slli	zero,0x5
    1ae8:	0100                	addi	s0,sp,128
    1aea:	05c6                	slli	a1,a1,0x11
    1aec:	0000                	unimp
    1aee:	15e2                	slli	a1,a1,0x38
    1af0:	0000                	unimp
    1af2:	d001                	beqz	s0,19f2 <_start-0x7fffe60e>
    1af4:	0005                	c.nop	1
    1af6:	0200                	addi	s0,sp,256
    1af8:	0016                	c.slli	zero,0x5
    1afa:	0000                	unimp
    1afc:	0007402f          	.insn	4, 0x0007402f
    1b00:	6e00                	ld	s0,24(a2)
    1b02:	0008                	.insn	2, 0x0008
    1b04:	0080                	addi	s0,sp,64
    1b06:	0000                	unimp
    1b08:	1c00                	addi	s0,sp,560
    1b0a:	0000                	unimp
    1b0c:	0000                	unimp
    1b0e:	0000                	unimp
    1b10:	6400                	ld	s0,8(s0)
    1b12:	0901                	addi	s2,s2,0
    1b14:	1692                	slli	a3,a3,0x24
    1b16:	0000                	unimp
    1b18:	5004                	lw	s1,32(s0)
    1b1a:	09000007          	.insn	4, 0x09000007
    1b1e:	0db0                	addi	a2,sp,728
    1b20:	0000                	unimp
    1b22:	086e                	slli	a6,a6,0x1b
    1b24:	8000                	.insn	2, 0x8000
    1b26:	0000                	unimp
    1b28:	0000                	unimp
    1b2a:	001c                	.insn	2, 0x001c
    1b2c:	0000                	unimp
    1b2e:	0000                	unimp
    1b30:	0000                	unimp
    1b32:	b501                	j	1932 <_start-0x7fffe6ce>
    1b34:	0dba0403          	lb	s0,219(s4)
    1b38:	0000                	unimp
    1b3a:	c308                	sw	a0,0(a4)
    1b3c:	000d                	c.nop	3
    1b3e:	0800                	addi	s0,sp,16
    1b40:	0dce                	slli	s11,s11,0x13
    1b42:	0000                	unimp
    1b44:	0000                	unimp
    1b46:	4005                	c.li	zero,1
    1b48:	94000007          	.insn	4, 0x94000007
    1b4c:	0008                	.insn	2, 0x0008
    1b4e:	0080                	addi	s0,sp,64
    1b50:	0000                	unimp
    1b52:	0a00                	addi	s0,sp,272
    1b54:	4e000003          	lb	zero,1248(zero) # 4e0 <_start-0x7ffffb20>
    1b58:	0701                	addi	a4,a4,0
    1b5a:	16e5                	addi	a3,a3,-7
    1b5c:	0000                	unimp
    1b5e:	5004                	lw	s1,32(s0)
    1b60:	07000007          	.insn	4, 0x07000007
    1b64:	0db0                	addi	a2,sp,728
    1b66:	0000                	unimp
    1b68:	0894                	addi	a3,sp,80
    1b6a:	8000                	.insn	2, 0x8000
    1b6c:	0000                	unimp
    1b6e:	0000                	unimp
    1b70:	031d                	addi	t1,t1,7 # 7007 <_start-0x7fff8ff9>
    1b72:	0000                	unimp
    1b74:	03b5                	addi	t2,t2,13
    1b76:	ba01                	j	1486 <_start-0x7fffeb7a>
    1b78:	000d                	c.nop	3
    1b7a:	1800                	addi	s0,sp,48
    1b7c:	0016                	c.slli	zero,0x5
    1b7e:	0300                	addi	s0,sp,384
    1b80:	031d                	addi	t1,t1,7
    1b82:	0000                	unimp
    1b84:	c302                	sw	zero,132(sp)
    1b86:	000d                	c.nop	3
    1b88:	2500                	fld	fs0,8(a0)
    1b8a:	0016                	c.slli	zero,0x5
    1b8c:	0200                	addi	s0,sp,256
    1b8e:	0dce                	slli	s11,s11,0x13
    1b90:	0000                	unimp
    1b92:	1635                	addi	a2,a2,-19
    1b94:	0000                	unimp
    1b96:	0000                	unimp
    1b98:	0500                	addi	s0,sp,640
    1b9a:	0740                	addi	s0,sp,900
    1b9c:	0000                	unimp
    1b9e:	08ba                	slli	a7,a7,0xe
    1ba0:	8000                	.insn	2, 0x8000
    1ba2:	0000                	unimp
    1ba4:	0000                	unimp
    1ba6:	0330                	addi	a2,sp,392
    1ba8:	0000                	unimp
    1baa:	0179                	addi	sp,sp,30
    1bac:	00172c07          	flw	fs8,1(a4)
    1bb0:	0400                	addi	s0,sp,512
    1bb2:	0750                	addi	a2,sp,900
    1bb4:	0000                	unimp
    1bb6:	000db007          	fld	ft0,0(s11)
    1bba:	ba00                	fsd	fs0,48(a2)
    1bbc:	0008                	.insn	2, 0x0008
    1bbe:	0080                	addi	s0,sp,64
    1bc0:	0000                	unimp
    1bc2:	3000                	fld	fs0,32(s0)
    1bc4:	b5000003          	lb	zero,-1200(zero) # fffffffffffffb50 <__global_pointer$+0xffffffff7fffd308>
    1bc8:	0dba0403          	lb	s0,219(s4)
    1bcc:	0000                	unimp
    1bce:	00033003          	ld	zero,0(t1)
    1bd2:	0800                	addi	s0,sp,16
    1bd4:	00000dc3          	fmadd.s	fs11,ft0,ft0,ft0,rne
    1bd8:	ce08                	sw	a0,24(a2)
    1bda:	000d                	c.nop	3
    1bdc:	0000                	unimp
    1bde:	0000                	unimp
    1be0:	4005                	c.li	zero,1
    1be2:	d2000007          	.insn	4, 0xd2000007
    1be6:	0008                	.insn	2, 0x0008
    1be8:	0080                	addi	s0,sp,64
    1bea:	0000                	unimp
    1bec:	4000                	lw	s0,0(s0)
    1bee:	7a000003          	lb	zero,1952(zero) # 7a0 <_start-0x7ffff860>
    1bf2:	0701                	addi	a4,a4,0
    1bf4:	00001783          	lh	a5,0(zero) # 0 <_start-0x80000000>
    1bf8:	5001                	c.li	zero,-32
    1bfa:	47000007          	.insn	4, 0x47000007
    1bfe:	0016                	c.slli	zero,0x5
    1c00:	0700                	addi	s0,sp,896
    1c02:	0db0                	addi	a2,sp,728
    1c04:	0000                	unimp
    1c06:	08d2                	slli	a7,a7,0x14
    1c08:	8000                	.insn	2, 0x8000
    1c0a:	0000                	unimp
    1c0c:	0000                	unimp
    1c0e:	0340                	addi	s0,sp,388
    1c10:	0000                	unimp
    1c12:	03b5                	addi	t2,t2,13
    1c14:	ba01                	j	1524 <_start-0x7fffeadc>
    1c16:	000d                	c.nop	3
    1c18:	4700                	lw	s0,8(a4)
    1c1a:	0016                	c.slli	zero,0x5
    1c1c:	0300                	addi	s0,sp,384
    1c1e:	0340                	addi	s0,sp,388
    1c20:	0000                	unimp
    1c22:	c302                	sw	zero,132(sp)
    1c24:	000d                	c.nop	3
    1c26:	5600                	lw	s0,40(a2)
    1c28:	0016                	c.slli	zero,0x5
    1c2a:	0200                	addi	s0,sp,256
    1c2c:	0dce                	slli	s11,s11,0x13
    1c2e:	0000                	unimp
    1c30:	1666                	slli	a2,a2,0x39
    1c32:	0000                	unimp
    1c34:	0000                	unimp
    1c36:	2f00                	fld	fs0,24(a4)
    1c38:	0740                	addi	s0,sp,900
    1c3a:	0000                	unimp
    1c3c:	092e                	slli	s2,s2,0xb
    1c3e:	8000                	.insn	2, 0x8000
    1c40:	0000                	unimp
    1c42:	0000                	unimp
    1c44:	001c                	.insn	2, 0x001c
    1c46:	0000                	unimp
    1c48:	0000                	unimp
    1c4a:	0000                	unimp
    1c4c:	015d                	addi	sp,sp,23
    1c4e:	cd09                	beqz	a0,1c68 <_start-0x7fffe398>
    1c50:	04000017          	auipc	zero,0x4000
    1c54:	0750                	addi	a2,sp,900
    1c56:	0000                	unimp
    1c58:	b009                	j	145a <_start-0x7fffeba6>
    1c5a:	000d                	c.nop	3
    1c5c:	2e00                	fld	fs0,24(a2)
    1c5e:	0009                	c.nop	2
    1c60:	0080                	addi	s0,sp,64
    1c62:	0000                	unimp
    1c64:	1c00                	addi	s0,sp,560
    1c66:	0000                	unimp
    1c68:	0000                	unimp
    1c6a:	0000                	unimp
    1c6c:	0100                	addi	s0,sp,128
    1c6e:	03b5                	addi	t2,t2,13
    1c70:	ba04                	fsd	fs1,48(a2)
    1c72:	000d                	c.nop	3
    1c74:	0800                	addi	s0,sp,16
    1c76:	00000dc3          	fmadd.s	fs11,ft0,ft0,ft0,rne
    1c7a:	ce08                	sw	a0,24(a2)
    1c7c:	000d                	c.nop	3
    1c7e:	0000                	unimp
    1c80:	4100                	lw	s0,0(a0)
    1c82:	0740                	addi	s0,sp,900
    1c84:	0000                	unimp
    1c86:	0964                	addi	s1,sp,156
    1c88:	8000                	.insn	2, 0x8000
    1c8a:	0000                	unimp
    1c8c:	0000                	unimp
    1c8e:	00000353          	fadd.s	ft6,ft0,ft0,rne
    1c92:	0188                	addi	a0,sp,192
    1c94:	07500407          	.insn	4, 0x07500407
    1c98:	0000                	unimp
    1c9a:	b009                	j	149c <_start-0x7fffeb64>
    1c9c:	000d                	c.nop	3
    1c9e:	6400                	ld	s0,8(s0)
    1ca0:	0009                	c.nop	2
    1ca2:	0080                	addi	s0,sp,64
    1ca4:	0000                	unimp
    1ca6:	1c00                	addi	s0,sp,560
    1ca8:	0000                	unimp
    1caa:	0000                	unimp
    1cac:	0000                	unimp
    1cae:	0100                	addi	s0,sp,128
    1cb0:	03b5                	addi	t2,t2,13
    1cb2:	ba04                	fsd	fs1,48(a2)
    1cb4:	000d                	c.nop	3
    1cb6:	0800                	addi	s0,sp,16
    1cb8:	00000dc3          	fmadd.s	fs11,ft0,ft0,ft0,rne
    1cbc:	ce08                	sw	a0,24(a2)
    1cbe:	000d                	c.nop	3
    1cc0:	0000                	unimp
    1cc2:	0000                	unimp
    1cc4:	da0a                	sw	sp,52(sp)
    1cc6:	000d                	c.nop	3
    1cc8:	8200                	.insn	2, 0x8200
    1cca:	0009                	c.nop	2
    1ccc:	0080                	addi	s0,sp,64
    1cce:	0000                	unimp
    1cd0:	0c00                	addi	s0,sp,528
    1cd2:	0000                	unimp
    1cd4:	0000                	unimp
    1cd6:	0000                	unimp
    1cd8:	0100                	addi	s0,sp,128
    1cda:	359c                	fld	fa5,40(a1)
    1cdc:	0018                	.insn	2, 0x0018
    1cde:	0f00                	addi	s0,sp,912
    1ce0:	0de4                	addi	s1,sp,732
    1ce2:	0000                	unimp
    1ce4:	10000003          	lb	zero,256(zero) # 100 <_start-0x7fffff00>
    1ce8:	0a00                	addi	s0,sp,272
    1cea:	0db0                	addi	a2,sp,728
    1cec:	0000                	unimp
    1cee:	098e                	slli	s3,s3,0x3
    1cf0:	8000                	.insn	2, 0x8000
    1cf2:	0000                	unimp
    1cf4:	0000                	unimp
    1cf6:	001a                	c.slli	zero,0x6
    1cf8:	0000                	unimp
    1cfa:	0000                	unimp
    1cfc:	0000                	unimp
    1cfe:	9c01                	subw	s0,s0,s0
    1d00:	186a                	slli	a6,a6,0x3a
    1d02:	0000                	unimp
    1d04:	ba15                	j	1638 <_start-0x7fffe9c8>
    1d06:	000d                	c.nop	3
    1d08:	0100                	addi	s0,sp,128
    1d0a:	0f5a                	slli	t5,t5,0x16
    1d0c:	00000dc3          	fmadd.s	fs11,ft0,ft0,ft0,rne
    1d10:	0000                	unimp
    1d12:	1000                	addi	s0,sp,32
    1d14:	000dce0f          	.insn	4, 0x000dce0f
    1d18:	0500                	addi	s0,sp,640
    1d1a:	0000                	unimp
    1d1c:	0010                	.insn	2, 0x0010
    1d1e:	500a                	.insn	2, 0x500a
    1d20:	000d                	c.nop	3
    1d22:	c000                	sw	s0,0(s0)
    1d24:	0009                	c.nop	2
    1d26:	0080                	addi	s0,sp,64
    1d28:	0000                	unimp
    1d2a:	2800                	fld	fs0,16(s0)
    1d2c:	0000                	unimp
    1d2e:	0000                	unimp
    1d30:	0000                	unimp
    1d32:	0100                	addi	s0,sp,128
    1d34:	c49c                	sw	a5,8(s1)
    1d36:	0018                	.insn	2, 0x0018
    1d38:	0100                	addi	s0,sp,128
    1d3a:	0d60                	addi	s0,sp,668
    1d3c:	0000                	unimp
    1d3e:	1678                	addi	a4,sp,812
    1d40:	0000                	unimp
    1d42:	000db007          	fld	ft0,0(s11)
    1d46:	c600                	sw	s0,8(a2)
    1d48:	0009                	c.nop	2
    1d4a:	0080                	addi	s0,sp,64
    1d4c:	0000                	unimp
    1d4e:	6300                	ld	s0,0(a4)
    1d50:	30000003          	lb	zero,768(zero) # 300 <_start-0x7ffffd00>
    1d54:	0109                	addi	sp,sp,2
    1d56:	0dba                	slli	s11,s11,0xe
    1d58:	0000                	unimp
    1d5a:	168c                	addi	a1,sp,864
    1d5c:	0000                	unimp
    1d5e:	00036303          	lwu	t1,0(t1)
    1d62:	0200                	addi	s0,sp,256
    1d64:	00000dc3          	fmadd.s	fs11,ft0,ft0,ft0,rne
    1d68:	1699                	addi	a3,a3,-26
    1d6a:	0000                	unimp
    1d6c:	ce02                	sw	zero,28(sp)
    1d6e:	000d                	c.nop	3
    1d70:	a900                	fsd	fs0,16(a0)
    1d72:	0016                	c.slli	zero,0x5
    1d74:	0000                	unimp
    1d76:	0000                	unimp
    1d78:	9d0a                	add	s10,s10,sp
    1d7a:	000c                	.insn	2, 0x000c
    1d7c:	2200                	fld	fs0,0(a2)
    1d7e:	000a                	c.slli	zero,0x2
    1d80:	0080                	addi	s0,sp,64
    1d82:	0000                	unimp
    1d84:	1200                	addi	s0,sp,288
    1d86:	0000                	unimp
    1d88:	0000                	unimp
    1d8a:	0000                	unimp
    1d8c:	0100                	addi	s0,sp,128
    1d8e:	e79c                	sd	a5,8(a5)
    1d90:	0018                	.insn	2, 0x0018
    1d92:	1500                	addi	s0,sp,672
    1d94:	0ca8                	addi	a0,sp,600
    1d96:	0000                	unimp
    1d98:	5a01                	li	s4,-32
    1d9a:	0a00                	addi	s0,sp,272
    1d9c:	0c1c                	addi	a5,sp,528
    1d9e:	0000                	unimp
    1da0:	0a44                	addi	s1,sp,276
    1da2:	8000                	.insn	2, 0x8000
    1da4:	0000                	unimp
    1da6:	0000                	unimp
    1da8:	0008                	.insn	2, 0x0008
    1daa:	0000                	unimp
    1dac:	0000                	unimp
    1dae:	0000                	unimp
    1db0:	9c01                	subw	s0,s0,s0
    1db2:	1921                	addi	s2,s2,-24
    1db4:	0000                	unimp
    1db6:	2701                	sext.w	a4,a4
    1db8:	000c                	.insn	2, 0x000c
    1dba:	bb00                	fsd	fs0,48(a4)
    1dbc:	0016                	c.slli	zero,0x5
    1dbe:	1600                	addi	s0,sp,800
    1dc0:	0a4c                	addi	a1,sp,276
    1dc2:	8000                	.insn	2, 0x8000
    1dc4:	0000                	unimp
    1dc6:	0000                	unimp
    1dc8:	0c9d                	addi	s9,s9,7
    1dca:	0000                	unimp
    1dcc:	0106                	slli	sp,sp,0x1
    1dce:	035a                	slli	t1,t1,0x16
    1dd0:	005a01a3          	sb	t0,3(s4)
    1dd4:	0a00                	addi	s0,sp,272
    1dd6:	00000bab          	.insn	4, 0x0bab
    1dda:	0a5a                	slli	s4,s4,0x16
    1ddc:	8000                	.insn	2, 0x8000
    1dde:	0000                	unimp
    1de0:	0000                	unimp
    1de2:	0028                	addi	a0,sp,8
    1de4:	0000                	unimp
    1de6:	0000                	unimp
    1de8:	0000                	unimp
    1dea:	9c01                	subw	s0,s0,s0
    1dec:	0000199b          	slliw	s3,zero,0x0
    1df0:	b501                	j	1bf0 <_start-0x7fffe410>
    1df2:	d200000b          	.insn	4, 0xd200000b
    1df6:	0016                	c.slli	zero,0x5
    1df8:	0900                	addi	s0,sp,144
    1dfa:	0d50                	addi	a2,sp,660
    1dfc:	0000                	unimp
    1dfe:	0a5a                	slli	s4,s4,0x16
    1e00:	8000                	.insn	2, 0x8000
    1e02:	0000                	unimp
    1e04:	0000                	unimp
    1e06:	0026                	c.slli	zero,0x9
    1e08:	0000                	unimp
    1e0a:	0000                	unimp
    1e0c:	0000                	unimp
    1e0e:	7801                	lui	a6,0xfffe0
    1e10:	0d601503          	lh	a0,214(zero) # d6 <_start-0x7fffff2a>
    1e14:	0000                	unimp
    1e16:	5a01                	li	s4,-32
    1e18:	000db007          	fld	ft0,0(s11)
    1e1c:	6000                	ld	s0,0(s0)
    1e1e:	000a                	c.slli	zero,0x2
    1e20:	0080                	addi	s0,sp,64
    1e22:	0000                	unimp
    1e24:	a300                	fsd	fs0,0(a4)
    1e26:	30000003          	lb	zero,768(zero) # 300 <_start-0x7ffffd00>
    1e2a:	0109                	addi	sp,sp,2
    1e2c:	0dba                	slli	s11,s11,0xe
    1e2e:	0000                	unimp
    1e30:	16e9                	addi	a3,a3,-6
    1e32:	0000                	unimp
    1e34:	0003a303          	lw	t1,0(t2)
    1e38:	0200                	addi	s0,sp,256
    1e3a:	00000dc3          	fmadd.s	fs11,ft0,ft0,ft0,rne
    1e3e:	16f6                	slli	a3,a3,0x3d
    1e40:	0000                	unimp
    1e42:	ce02                	sw	zero,28(sp)
    1e44:	000d                	c.nop	3
    1e46:	0600                	addi	s0,sp,768
    1e48:	00000017          	auipc	zero,0x0
    1e4c:	0000                	unimp
    1e4e:	0a00                	addi	s0,sp,272
    1e50:	0334                	addi	a3,sp,392
    1e52:	0000                	unimp
    1e54:	0d0c                	addi	a1,sp,656
    1e56:	8000                	.insn	2, 0x8000
    1e58:	0000                	unimp
    1e5a:	0000                	unimp
    1e5c:	00fe                	slli	ra,ra,0x1f
    1e5e:	0000                	unimp
    1e60:	0000                	unimp
    1e62:	0000                	unimp
    1e64:	9c01                	subw	s0,s0,s0
    1e66:	1a40                	addi	s0,sp,308
    1e68:	0000                	unimp
    1e6a:	4415                	li	s0,5
    1e6c:	01000003          	lb	zero,16(zero) # 10 <_start-0x7ffffff0>
    1e70:	015a                	slli	sp,sp,0x16
    1e72:	0350                	addi	a2,sp,388
    1e74:	0000                	unimp
    1e76:	1718                	addi	a4,sp,928
    1e78:	0000                	unimp
    1e7a:	5c01                	li	s8,-32
    1e7c:	60000003          	lb	zero,1536(zero) # 600 <_start-0x7ffffa00>
    1e80:	42000017          	auipc	zero,0x42000
    1e84:	0382                	c.slli64	t2
    1e86:	0000                	unimp
    1e88:	03ff 0000 19ef 0000 	.insn	10, 0x8302000019ef000003ff
    1e90:	8302 
    1e92:	90000003          	lb	zero,-1792(zero) # fffffffffffff900 <__global_pointer$+0xffffffff7fffd0b8>
    1e96:	02000017          	auipc	zero,0x2000
    1e9a:	038d                	addi	t2,t2,3
    1e9c:	0000                	unimp
    1e9e:	17fd                	addi	a5,a5,-1
    1ea0:	0000                	unimp
    1ea2:	0900                	addi	s0,sp,144
    1ea4:	0334                	addi	a3,sp,392
    1ea6:	0000                	unimp
    1ea8:	0dd6                	slli	s11,s11,0x15
    1eaa:	8000                	.insn	2, 0x8000
    1eac:	0000                	unimp
    1eae:	0000                	unimp
    1eb0:	001c                	.insn	2, 0x001c
    1eb2:	0000                	unimp
    1eb4:	0000                	unimp
    1eb6:	0000                	unimp
    1eb8:	1f06                	slli	t5,t5,0x21
    1eba:	0409                	addi	s0,s0,2 # fffffffffffe0002 <__global_pointer$+0xffffffff7ffdd7ba>
    1ebc:	0344                	addi	s1,sp,388
    1ebe:	0000                	unimp
    1ec0:	5004                	lw	s1,32(s0)
    1ec2:	04000003          	lb	zero,64(zero) # 40 <_start-0x7fffffc0>
    1ec6:	035c                	addi	a5,sp,388
    1ec8:	0000                	unimp
    1eca:	00036843          	fmadd.s	fa6,ft6,ft0,ft0,unknown
    1ece:	d600                	sw	s0,40(a2)
    1ed0:	000d                	c.nop	3
    1ed2:	0080                	addi	s0,sp,64
    1ed4:	0000                	unimp
    1ed6:	1c00                	addi	s0,sp,560
    1ed8:	0000                	unimp
    1eda:	0000                	unimp
    1edc:	0000                	unimp
    1ede:	0200                	addi	s0,sp,256
    1ee0:	036d                	addi	t1,t1,27
    1ee2:	0000                	unimp
    1ee4:	187d                	addi	a6,a6,-1 # fffffffffffdffff <__global_pointer$+0xffffffff7ffdd7b7>
    1ee6:	0000                	unimp
    1ee8:	7702                	ld	a4,32(sp)
    1eea:	98000003          	lb	zero,-1664(zero) # fffffffffffff980 <__global_pointer$+0xffffffff7fffd138>
    1eee:	0018                	.insn	2, 0x0018
    1ef0:	0000                	unimp
    1ef2:	0000                	unimp
    1ef4:	d20a                	sw	sp,36(sp)
    1ef6:	0002                	c.slli64	zero
    1ef8:	0a00                	addi	s0,sp,272
    1efa:	000e                	c.slli	zero,0x3
    1efc:	0080                	addi	s0,sp,64
    1efe:	0000                	unimp
    1f00:	ba00                	fsd	fs0,48(a2)
    1f02:	0001                	nop
    1f04:	0000                	unimp
    1f06:	0000                	unimp
    1f08:	0100                	addi	s0,sp,128
    1f0a:	e89c                	sd	a5,16(s1)
    1f0c:	001a                	c.slli	zero,0x6
    1f0e:	1500                	addi	s0,sp,672
    1f10:	02e2                	slli	t0,t0,0x18
    1f12:	0000                	unimp
    1f14:	5a01                	li	s4,-32
    1f16:	ee01                	bnez	a2,1f2e <_start-0x7fffe0d2>
    1f18:	0002                	c.slli64	zero
    1f1a:	b800                	fsd	fs0,48(s0)
    1f1c:	0018                	.insn	2, 0x0018
    1f1e:	0100                	addi	s0,sp,128
    1f20:	02fa                	slli	t0,t0,0x1e
    1f22:	0000                	unimp
    1f24:	18e1                	addi	a7,a7,-8
    1f26:	0000                	unimp
    1f28:	2242                	fld	ft4,16(sp)
    1f2a:	15000003          	lb	zero,336(zero) # 150 <_start-0x7ffffeb0>
    1f2e:	0004                	.insn	2, 0x0004
    1f30:	8b00                	.insn	2, 0x8b00
    1f32:	001a                	c.slli	zero,0x6
    1f34:	0200                	addi	s0,sp,256
    1f36:	00000323          	sb	zero,6(zero) # 6 <_start-0x7ffffffa>
    1f3a:	00001913          	slli	s2,zero,0x0
    1f3e:	0900                	addi	s0,sp,144
    1f40:	02d2                	slli	t0,t0,0x14
    1f42:	0000                	unimp
    1f44:	0f80                	addi	s0,sp,976
    1f46:	8000                	.insn	2, 0x8000
    1f48:	0000                	unimp
    1f4a:	0000                	unimp
    1f4c:	002a                	c.slli	zero,0xa
    1f4e:	0000                	unimp
    1f50:	0000                	unimp
    1f52:	0000                	unimp
    1f54:	2106                	fld	ft2,64(sp)
    1f56:	0109                	addi	sp,sp,2
    1f58:	02e2                	slli	t0,t0,0x18
    1f5a:	0000                	unimp
    1f5c:	00001a4f          	fnmadd.s	fs4,ft0,ft0,ft0,rtz
    1f60:	ee01                	bnez	a2,1f78 <_start-0x7fffe088>
    1f62:	0002                	c.slli64	zero
    1f64:	5c00                	lw	s0,56(s0)
    1f66:	001a                	c.slli	zero,0x6
    1f68:	0100                	addi	s0,sp,128
    1f6a:	02fa                	slli	t0,t0,0x1e
    1f6c:	0000                	unimp
    1f6e:	1a69                	addi	s4,s4,-6
    1f70:	0000                	unimp
    1f72:	00030643          	fmadd.s	fa2,ft6,ft0,ft0,rne
    1f76:	8000                	.insn	2, 0x8000
    1f78:	0080000f          	fence	unknown,i
    1f7c:	0000                	unimp
    1f7e:	2a00                	fld	fs0,16(a2)
    1f80:	0000                	unimp
    1f82:	0000                	unimp
    1f84:	0000                	unimp
    1f86:	0200                	addi	s0,sp,256
    1f88:	0000030b          	.insn	4, 0x030b
    1f8c:	1a76                	slli	s4,s4,0x3d
    1f8e:	0000                	unimp
    1f90:	1702                	slli	a4,a4,0x20
    1f92:	9b000003          	lb	zero,-1616(zero) # fffffffffffff9b0 <__global_pointer$+0xffffffff7fffd168>
    1f96:	001a                	c.slli	zero,0x6
    1f98:	0000                	unimp
    1f9a:	0000                	unimp
    1f9c:	640a                	ld	s0,128(sp)
    1f9e:	0002                	c.slli64	zero
    1fa0:	b800                	fsd	fs0,48(s0)
    1fa2:	0010                	.insn	2, 0x0010
    1fa4:	0080                	addi	s0,sp,64
    1fa6:	0000                	unimp
    1fa8:	2400                	fld	fs0,8(s0)
    1faa:	0000                	unimp
    1fac:	0000                	unimp
    1fae:	0000                	unimp
    1fb0:	0100                	addi	s0,sp,128
    1fb2:	1f9c                	addi	a5,sp,1008
    1fb4:	0100001b          	addiw	zero,zero,16
    1fb8:	0274                	addi	a3,sp,268
    1fba:	0000                	unimp
    1fbc:	00001aaf          	.insn	4, 0x1aaf
    1fc0:	7e01                	lui	t3,0xfffe0
    1fc2:	0002                	c.slli64	zero
    1fc4:	dd00                	sw	s0,56(a0)
    1fc6:	001a                	c.slli	zero,0x6
    1fc8:	0200                	addi	s0,sp,256
    1fca:	0288                	addi	a0,sp,320
    1fcc:	0000                	unimp
    1fce:	1b34                	addi	a3,sp,440
    1fd0:	0000                	unimp
    1fd2:	4400                	lw	s0,8(s0)
    1fd4:	01bd                	addi	gp,gp,15 # 80002857 <__global_pointer$+0xf>
    1fd6:	0000                	unimp
    1fd8:	000001b3          	add	gp,zero,zero
    1fdc:	0b44                	addi	s1,sp,404
    1fde:	0002                	c.slli64	zero
    1fe0:	0100                	addi	s0,sp,128
    1fe2:	0002                	c.slli64	zero
	...

Disassembly of section .debug_abbrev:

0000000000000000 <.debug_abbrev>:
   0:	2401                	sext.w	s0,s0
   2:	0b00                	addi	s0,sp,400
   4:	030b3e0b          	.insn	4, 0x030b3e0b
   8:	000e                	c.slli	zero,0x3
   a:	0200                	addi	s0,sp,256
   c:	0034                	addi	a3,sp,8
   e:	1331                	addi	t1,t1,-20
  10:	1702                	slli	a4,a4,0x20
  12:	0000                	unimp
  14:	02004903          	lbu	s2,32(zero) # 20 <_start-0x7fffffe0>
  18:	7e18                	ld	a4,56(a2)
  1a:	0018                	.insn	2, 0x0018
  1c:	0400                	addi	s0,sp,512
  1e:	0034                	addi	a3,sp,8
  20:	0b3a0803          	lb	a6,179(s4)
  24:	0b390b3b          	.insn	4, 0x0b390b3b
  28:	1349                	addi	t1,t1,-14
  2a:	0000                	unimp
  2c:	0505                	addi	a0,a0,1
  2e:	3100                	fld	fs0,32(a0)
  30:	06000013          	li	zero,96
  34:	0005                	c.nop	1
  36:	0b3a0803          	lb	a6,179(s4)
  3a:	0b390b3b          	.insn	4, 0x0b390b3b
  3e:	1349                	addi	t1,t1,-14
  40:	0000                	unimp
  42:	0b000f07          	.insn	4, 0x0b000f07
  46:	0821                	addi	a6,a6,8
  48:	1349                	addi	t1,t1,-14
  4a:	0000                	unimp
  4c:	0508                	addi	a0,sp,640
  4e:	0300                	addi	s0,sp,384
  50:	3a08                	fld	fa0,48(a2)
  52:	0121                	addi	sp,sp,8
  54:	391d213b          	.insn	4, 0x391d213b
  58:	0213490b          	.insn	4, 0x0213490b
  5c:	09000017          	auipc	zero,0x9000
  60:	0005                	c.nop	1
  62:	1331                	addi	t1,t1,-20
  64:	1702                	slli	a4,a4,0x20
  66:	0000                	unimp
  68:	260a                	fld	fa2,128(sp)
  6a:	4900                	lw	s0,16(a0)
  6c:	0b000013          	li	zero,176
  70:	0034                	addi	a3,sp,8
  72:	213a0e03          	lb	t3,531(s4)
  76:	3b01                	addiw	s6,s6,-32
  78:	490b390b          	.insn	4, 0x490b390b
  7c:	0c000013          	li	zero,192
  80:	0034                	addi	a3,sp,8
  82:	213a0803          	lb	a6,531(s4)
  86:	3b01                	addiw	s6,s6,-32
  88:	490b390b          	.insn	4, 0x490b390b
  8c:	00170213          	addi	tp,a4,1
  90:	0d00                	addi	s0,sp,656
  92:	1755010b          	.insn	4, 0x1755010b
  96:	0000                	unimp
  98:	010e                	slli	sp,sp,0x3
  9a:	4901                	li	s2,0
  9c:	00130113          	addi	sp,t1,1
  a0:	0f00                	addi	s0,sp,912
  a2:	0021                	c.nop	8
  a4:	1349                	addi	t1,t1,-14
  a6:	00000b2f          	.insn	4, 0x0b2f
  aa:	1610                	addi	a2,sp,800
  ac:	0300                	addi	s0,sp,384
  ae:	3a0e                	fld	fs4,224(sp)
  b0:	390b3b0b          	.insn	4, 0x390b3b0b
  b4:	0013490b          	.insn	4, 0x0013490b
  b8:	1100                	addi	s0,sp,160
  ba:	0005                	c.nop	1
  bc:	1349                	addi	t1,t1,-14
  be:	0000                	unimp
  c0:	3412                	fld	fs0,288(sp)
  c2:	0300                	addi	s0,sp,384
  c4:	3a0e                	fld	fs4,224(sp)
  c6:	0121                	addi	sp,sp,8
  c8:	0b390b3b          	.insn	4, 0x0b390b3b
  cc:	1349                	addi	t1,t1,-14
  ce:	1802                	slli	a6,a6,0x20
  d0:	0000                	unimp
  d2:	7d014813          	xori	a6,sp,2000
  d6:	7f01                	lui	t5,0xfffe0
  d8:	14000013          	li	zero,320
  dc:	011d                	addi	sp,sp,7
  de:	1331                	addi	t1,t1,-20
  e0:	0152                	slli	sp,sp,0x14
  e2:	1755                	addi	a4,a4,-11
  e4:	2158                	fld	fa4,128(a0)
  e6:	5901                	li	s2,-32
  e8:	010b570b          	.insn	4, 0x010b570b
  ec:	15000013          	li	zero,336
  f0:	0148                	addi	a0,sp,132
  f2:	017d                	addi	sp,sp,31
  f4:	1301137f 34160000 	.insn	12, 0x00133100341600001301137f
  fc:	00133100 
 100:	1700                	addi	s0,sp,928
 102:	012e                	slli	sp,sp,0xb
 104:	0e03193f 3b01213a 	.insn	8, 0x3b01213a0e03193f
 10c:	0621390b          	.insn	4, 0x0621390b
 110:	13491927          	.insn	4, 0x13491927
 114:	2120                	fld	fs0,64(a0)
 116:	0101                	addi	sp,sp,0
 118:	18000013          	li	zero,384
 11c:	0005                	c.nop	1
 11e:	213a0e03          	lb	t3,531(s4)
 122:	3b02                	fld	fs6,32(sp)
 124:	0c21                	addi	s8,s8,8
 126:	0b39                	addi	s6,s6,14
 128:	1349                	addi	t1,t1,-14
 12a:	0000                	unimp
 12c:	0519                	addi	a0,a0,6
 12e:	3100                	fld	fs0,32(a0)
 130:	00180213          	addi	tp,a6,1
 134:	1a00                	addi	s0,sp,304
 136:	0111                	addi	sp,sp,4
 138:	0e25                	addi	t3,t3,9 # fffffffffffe0009 <__global_pointer$+0xffffffff7ffdd7c1>
 13a:	1f030b13          	addi	s6,t1,496
 13e:	17551f1b          	.insn	4, 0x17551f1b
 142:	0111                	addi	sp,sp,4
 144:	1710                	addi	a2,sp,928
 146:	0000                	unimp
 148:	0b00241b          	.insn	4, 0x0b00241b
 14c:	030b3e0b          	.insn	4, 0x030b3e0b
 150:	0008                	.insn	2, 0x0008
 152:	1c00                	addi	s0,sp,560
 154:	0035                	c.nop	13
 156:	1349                	addi	t1,t1,-14
 158:	0000                	unimp
 15a:	2e1d                	addiw	t3,t3,7
 15c:	3f01                	addiw	t5,t5,-32 # fffffffffffdffe0 <__global_pointer$+0xffffffff7ffdd798>
 15e:	0319                	addi	t1,t1,6
 160:	3a0e                	fld	fs4,224(sp)
 162:	390b3b0b          	.insn	4, 0x390b3b0b
 166:	4919270b          	.insn	4, 0x4919270b
 16a:	01193c13          	sltiu	s8,s2,17
 16e:	1e000013          	li	zero,480
 172:	0018                	.insn	2, 0x0018
 174:	0000                	unimp
 176:	2e1f 3f01 0319      	.insn	6, 0x03193f012e1f
 17c:	3a0e                	fld	fs4,224(sp)
 17e:	390b3b0b          	.insn	4, 0x390b3b0b
 182:	3c19270b          	.insn	4, 0x3c19270b
 186:	0119                	addi	sp,sp,6
 188:	20000013          	li	zero,512
 18c:	012e                	slli	sp,sp,0xb
 18e:	0e03193f 0b3b0b3a 	.insn	8, 0x0b3b0b3a0e03193f
 196:	0b39                	addi	s6,s6,14
 198:	13491927          	.insn	4, 0x13491927
 19c:	0111                	addi	sp,sp,4
 19e:	0712                	slli	a4,a4,0x4
 1a0:	1840                	addi	s0,sp,52
 1a2:	197a                	slli	s2,s2,0x3e
 1a4:	1301                	addi	t1,t1,-32
 1a6:	0000                	unimp
 1a8:	3421                	addiw	s0,s0,-24
 1aa:	0300                	addi	s0,sp,384
 1ac:	3a08                	fld	fa0,48(a2)
 1ae:	390b3b0b          	.insn	4, 0x390b3b0b
 1b2:	0213490b          	.insn	4, 0x0213490b
 1b6:	0018                	.insn	2, 0x0018
 1b8:	2200                	fld	fs0,0(a2)
 1ba:	0111010b          	.insn	4, 0x0111010b
 1be:	0712                	slli	a4,a4,0x4
 1c0:	1301                	addi	t1,t1,-32
 1c2:	0000                	unimp
 1c4:	31010b23          	sb	a6,790(sp)
 1c8:	00175513          	srli	a0,a4,0x1
 1cc:	2400                	fld	fs0,8(s0)
 1ce:	012e                	slli	sp,sp,0xb
 1d0:	0803193f 0b3b0b3a 	.insn	8, 0x0b3b0b3a0803193f
 1d8:	0b39                	addi	s6,s6,14
 1da:	01111927          	.insn	4, 0x01111927
 1de:	0712                	slli	a4,a4,0x4
 1e0:	1840                	addi	s0,sp,52
 1e2:	197a                	slli	s2,s2,0x3e
 1e4:	1301                	addi	t1,t1,-32
 1e6:	0000                	unimp
 1e8:	0525                	addi	a0,a0,9
 1ea:	0300                	addi	s0,sp,384
 1ec:	3a08                	fld	fa0,48(a2)
 1ee:	390b3b0b          	.insn	4, 0x390b3b0b
 1f2:	0213490b          	.insn	4, 0x0213490b
 1f6:	0018                	.insn	2, 0x0018
 1f8:	2600                	fld	fs0,8(a2)
 1fa:	011d                	addi	sp,sp,7
 1fc:	1331                	addi	t1,t1,-20
 1fe:	0152                	slli	sp,sp,0x14
 200:	1755                	addi	a4,a4,-11
 202:	0b58                	addi	a4,sp,404
 204:	0b59                	addi	s6,s6,22
 206:	00000b57          	.insn	4, 0x0b57
 20a:	03012e27          	fsw	fa6,60(sp)
 20e:	3a0e                	fld	fs4,224(sp)
 210:	390b3b0b          	.insn	4, 0x390b3b0b
 214:	4919270b          	.insn	4, 0x4919270b
 218:	010b2013          	slti	zero,s6,16
 21c:	28000013          	li	zero,640
 220:	0000010b          	.insn	4, 0x010b
 224:	2e29                	addiw	t3,t3,10
 226:	3101                	addiw	sp,sp,-32
 228:	12011113          	.insn	4, 0x12011113
 22c:	7a184007          	.insn	4, 0x7a184007
 230:	0119                	addi	sp,sp,6
 232:	2a000013          	li	zero,672
 236:	012e                	slli	sp,sp,0xb
 238:	1331                	addi	t1,t1,-20
 23a:	0111                	addi	sp,sp,4
 23c:	0712                	slli	a4,a4,0x4
 23e:	1840                	addi	s0,sp,52
 240:	197a                	slli	s2,s2,0x3e
 242:	0000                	unimp
 244:	0100                	addi	s0,sp,128
 246:	0011                	c.nop	4
 248:	1710                	addi	a2,sp,928
 24a:	0111                	addi	sp,sp,4
 24c:	0f12                	slli	t5,t5,0x4
 24e:	0e1b0e03          	lb	t3,225(s6)
 252:	0e25                	addi	t3,t3,9
 254:	00000513          	li	a0,0
 258:	0100                	addi	s0,sp,128
 25a:	0005                	c.nop	1
 25c:	1331                	addi	t1,t1,-20
 25e:	1702                	slli	a4,a4,0x20
 260:	0000                	unimp
 262:	3402                	fld	fs0,32(sp)
 264:	3100                	fld	fs0,32(a0)
 266:	00170213          	addi	tp,a4,1
 26a:	0300                	addi	s0,sp,384
 26c:	1755010b          	.insn	4, 0x1755010b
 270:	0000                	unimp
 272:	0504                	addi	s1,sp,640
 274:	3100                	fld	fs0,32(a0)
 276:	05000013          	li	zero,80
 27a:	011d                	addi	sp,sp,7
 27c:	1331                	addi	t1,t1,-20
 27e:	0152                	slli	sp,sp,0x14
 280:	1755                	addi	a4,a4,-11
 282:	2158                	fld	fa4,128(a0)
 284:	5901                	li	s2,-32
 286:	5705                	li	a4,-31
 288:	0013010b          	.insn	4, 0x0013010b
 28c:	0600                	addi	s0,sp,768
 28e:	0049                	c.nop	18
 290:	1802                	slli	a6,a6,0x20
 292:	187e                	slli	a6,a6,0x3f
 294:	0000                	unimp
 296:	31011d07          	.insn	4, 0x31011d07
 29a:	55015213          	.insn	4, 0x55015213
 29e:	01215817          	auipc	a6,0x1215
 2a2:	0b59                	addi	s6,s6,22
 2a4:	00000b57          	.insn	4, 0x0b57
 2a8:	3408                	fld	fa0,40(s0)
 2aa:	3100                	fld	fs0,32(a0)
 2ac:	09000013          	li	zero,144
 2b0:	011d                	addi	sp,sp,7
 2b2:	1331                	addi	t1,t1,-20
 2b4:	0111                	addi	sp,sp,4
 2b6:	0712                	slli	a4,a4,0x4
 2b8:	0b58                	addi	a4,sp,404
 2ba:	0b59                	addi	s6,s6,22
 2bc:	00000b57          	.insn	4, 0x0b57
 2c0:	2e0a                	fld	ft8,128(sp)
 2c2:	3101                	addiw	sp,sp,-32
 2c4:	12011113          	.insn	4, 0x12011113
 2c8:	7a184007          	.insn	4, 0x7a184007
 2cc:	0119                	addi	sp,sp,6
 2ce:	0b000013          	li	zero,176
 2d2:	0024                	addi	s1,sp,8
 2d4:	0b3e0b0b          	.insn	4, 0x0b3e0b0b
 2d8:	00000e03          	lb	t3,0(zero) # 0 <_start-0x80000000>
 2dc:	050c                	addi	a1,sp,640
 2de:	0300                	addi	s0,sp,384
 2e0:	3a0e                	fld	fs4,224(sp)
 2e2:	0121                	addi	sp,sp,8
 2e4:	0b390b3b          	.insn	4, 0x0b390b3b
 2e8:	1349                	addi	t1,t1,-14
 2ea:	0000                	unimp
 2ec:	0f0d                	addi	t5,t5,3
 2ee:	0b00                	addi	s0,sp,400
 2f0:	0821                	addi	a6,a6,8 # 12152a6 <_start-0x7edead5a>
 2f2:	1349                	addi	t1,t1,-14
 2f4:	0000                	unimp
 2f6:	340e                	fld	fs0,224(sp)
 2f8:	0300                	addi	s0,sp,384
 2fa:	3a08                	fld	fa0,48(a2)
 2fc:	0121                	addi	sp,sp,8
 2fe:	0b39053b          	.insn	4, 0x0b39053b
 302:	1349                	addi	t1,t1,-14
 304:	0000                	unimp
 306:	3100340f          	.insn	4, 0x3100340f
 30a:	00061c13          	slli	s8,a2,0x0
 30e:	1000                	addi	s0,sp,32
 310:	0016                	c.slli	zero,0x5
 312:	0b3a0e03          	lb	t3,179(s4)
 316:	0b390b3b          	.insn	4, 0x0b390b3b
 31a:	1349                	addi	t1,t1,-14
 31c:	0000                	unimp
 31e:	2e11                	addiw	t3,t3,4
 320:	3f01                	addiw	t5,t5,-32
 322:	0319                	addi	t1,t1,6
 324:	3a0e                	fld	fs4,224(sp)
 326:	390b3b0b          	.insn	4, 0x390b3b0b
 32a:	4919270b          	.insn	4, 0x4919270b
 32e:	12011113          	.insn	4, 0x12011113
 332:	7a184007          	.insn	4, 0x7a184007
 336:	0119                	addi	sp,sp,6
 338:	12000013          	li	zero,288
 33c:	0034                	addi	a3,sp,8
 33e:	213a0e03          	lb	t3,531(s4)
 342:	3b01                	addiw	s6,s6,-32
 344:	3905                	addiw	s2,s2,-31
 346:	0013490b          	.insn	4, 0x0013490b
 34a:	1300                	addi	s0,sp,416
 34c:	0005                	c.nop	1
 34e:	213a0803          	lb	a6,531(s4)
 352:	3b01                	addiw	s6,s6,-32
 354:	490b390b          	.insn	4, 0x490b390b
 358:	14000013          	li	zero,320
 35c:	0005                	c.nop	1
 35e:	213a0803          	lb	a6,531(s4)
 362:	3b01                	addiw	s6,s6,-32
 364:	3905                	addiw	s2,s2,-31
 366:	0213490b          	.insn	4, 0x0213490b
 36a:	15000017          	auipc	zero,0x15000
 36e:	0005                	c.nop	1
 370:	1331                	addi	t1,t1,-20
 372:	1802                	slli	a6,a6,0x20
 374:	0000                	unimp
 376:	4816                	lw	a6,68(sp)
 378:	7d01                	lui	s10,0xfffe0
 37a:	7f01                	lui	t5,0xfffe0
 37c:	17000013          	li	zero,368
 380:	0034                	addi	a3,sp,8
 382:	213a0e03          	lb	t3,531(s4)
 386:	3b01                	addiw	s6,s6,-32
 388:	490b390b          	.insn	4, 0x490b390b
 38c:	18000013          	li	zero,384
 390:	0005                	c.nop	1
 392:	213a0803          	lb	a6,531(s4)
 396:	3b01                	addiw	s6,s6,-32
 398:	3905                	addiw	s2,s2,-31
 39a:	0013490b          	.insn	4, 0x0013490b
 39e:	1900                	addi	s0,sp,176
 3a0:	000a                	c.slli	zero,0x2
 3a2:	1331                	addi	t1,t1,-20
 3a4:	0111                	addi	sp,sp,4
 3a6:	0000                	unimp
 3a8:	011a                	slli	sp,sp,0x6
 3aa:	4901                	li	s2,0
 3ac:	00130113          	addi	sp,t1,1
 3b0:	1b00                	addi	s0,sp,432
 3b2:	0021                	c.nop	8
 3b4:	1349                	addi	t1,t1,-14
 3b6:	00000b2f          	.insn	4, 0x0b2f
 3ba:	2e1c                	fld	fa5,24(a2)
 3bc:	3f01                	addiw	t5,t5,-32 # fffffffffffdffe0 <__global_pointer$+0xffffffff7ffdd798>
 3be:	0319                	addi	t1,t1,6
 3c0:	3a0e                	fld	fs4,224(sp)
 3c2:	390b3b0b          	.insn	4, 0x390b3b0b
 3c6:	4919270b          	.insn	4, 0x4919270b
 3ca:	01212013          	slti	zero,sp,18
 3ce:	1301                	addi	t1,t1,-32
 3d0:	0000                	unimp
 3d2:	341d                	addiw	s0,s0,-25
 3d4:	0300                	addi	s0,sp,384
 3d6:	3a08                	fld	fa0,48(a2)
 3d8:	0121                	addi	sp,sp,8
 3da:	0b390b3b          	.insn	4, 0x0b390b3b
 3de:	1349                	addi	t1,t1,-14
 3e0:	1702                	slli	a4,a4,0x20
 3e2:	0000                	unimp
 3e4:	341e                	fld	fs0,480(sp)
 3e6:	3100                	fld	fs0,32(a0)
 3e8:	00180213          	addi	tp,a6,1
 3ec:	1f00                	addi	s0,sp,944
 3ee:	0034                	addi	a3,sp,8
 3f0:	213a0e03          	lb	t3,531(s4)
 3f4:	3b01                	addiw	s6,s6,-32
 3f6:	490b390b          	.insn	4, 0x490b390b
 3fa:	3c193f13          	sltiu	t5,s2,961
 3fe:	0019                	c.nop	6
 400:	2000                	fld	fs0,0(s0)
 402:	0034                	addi	a3,sp,8
 404:	213a0803          	lb	a6,531(s4)
 408:	3b01                	addiw	s6,s6,-32
 40a:	3905                	addiw	s2,s2,-31
 40c:	0213490b          	.insn	4, 0x0213490b
 410:	0018                	.insn	2, 0x0018
 412:	2100                	fld	fs0,0(a0)
 414:	0005                	c.nop	1
 416:	213a0e03          	lb	t3,531(s4)
 41a:	3b01                	addiw	s6,s6,-32
 41c:	3905                	addiw	s2,s2,-31
 41e:	0013490b          	.insn	4, 0x0013490b
 422:	2200                	fld	fs0,0(a2)
 424:	000a                	c.slli	zero,0x2
 426:	213a0e03          	lb	t3,531(s4)
 42a:	3b01                	addiw	s6,s6,-32
 42c:	3905                	addiw	s2,s2,-31
 42e:	2300000b          	.insn	4, 0x2300000b
 432:	012e                	slli	sp,sp,0xb
 434:	0e03193f 3b01213a 	.insn	8, 0x3b01213a0e03193f
 43c:	270b390b          	.insn	4, 0x270b390b
 440:	1119                	addi	sp,sp,-26
 442:	1201                	addi	tp,tp,-32 # ffffffffffffffe0 <__global_pointer$+0xffffffff7fffd798>
 444:	7a184007          	.insn	4, 0x7a184007
 448:	0119                	addi	sp,sp,6
 44a:	24000013          	li	zero,576
 44e:	0005                	c.nop	1
 450:	213a0803          	lb	a6,531(s4)
 454:	3b01                	addiw	s6,s6,-32
 456:	490b390b          	.insn	4, 0x490b390b
 45a:	00170213          	addi	tp,a4,1
 45e:	2500                	fld	fs0,8(a0)
 460:	0034                	addi	a3,sp,8
 462:	213a0803          	lb	a6,531(s4)
 466:	3b01                	addiw	s6,s6,-32
 468:	3905                	addiw	s2,s2,-31
 46a:	0213490b          	.insn	4, 0x0213490b
 46e:	26000017          	auipc	zero,0x26000
 472:	0034                	addi	a3,sp,8
 474:	213a0e03          	lb	t3,531(s4)
 478:	3b01                	addiw	s6,s6,-32
 47a:	490b390b          	.insn	4, 0x490b390b
 47e:	00170213          	addi	tp,a4,1
 482:	2700                	fld	fs0,8(a4)
 484:	0148                	addi	a0,sp,132
 486:	017d                	addi	sp,sp,31
 488:	1301137f 1d280000 	.insn	12, 0x521331011d2800001301137f
 490:	52133101 
 494:	5501                	li	a0,-32
 496:	01215817          	auipc	a6,0x1215
 49a:	0b59                	addi	s6,s6,22
 49c:	13010b57          	.insn	4, 0x13010b57
 4a0:	0000                	unimp
 4a2:	3429                	addiw	s0,s0,-22
 4a4:	3100                	fld	fs0,32(a0)
 4a6:	00193c13          	seqz	s8,s2
 4aa:	2a00                	fld	fs0,16(a2)
 4ac:	011d                	addi	sp,sp,7
 4ae:	1331                	addi	t1,t1,-20
 4b0:	0111                	addi	sp,sp,4
 4b2:	0712                	slli	a4,a4,0x4
 4b4:	2158                	fld	fa4,128(a0)
 4b6:	5901                	li	s2,-32
 4b8:	010b570b          	.insn	4, 0x010b570b
 4bc:	2b000013          	li	zero,688
 4c0:	0005                	c.nop	1
 4c2:	213a0803          	lb	a6,531(s4)
 4c6:	3b01                	addiw	s6,s6,-32
 4c8:	490b390b          	.insn	4, 0x490b390b
 4cc:	00180213          	addi	tp,a6,1 # 1215497 <_start-0x7edeab69>
 4d0:	2c00                	fld	fs0,24(s0)
 4d2:	012e                	slli	sp,sp,0xb
 4d4:	0e03193f 3b01213a 	.insn	8, 0x3b01213a0e03193f
 4dc:	0621390b          	.insn	4, 0x0621390b
 4e0:	21201927          	.insn	4, 0x21201927
 4e4:	0101                	addi	sp,sp,0
 4e6:	2d000013          	li	zero,720
 4ea:	0005                	c.nop	1
 4ec:	1331                	addi	t1,t1,-20
 4ee:	0b1c                	addi	a5,sp,400
 4f0:	0000                	unimp
 4f2:	052e                	slli	a0,a0,0xb
 4f4:	0300                	addi	s0,sp,384
 4f6:	3a0e                	fld	fs4,224(sp)
 4f8:	0121                	addi	sp,sp,8
 4fa:	0b390b3b          	.insn	4, 0x0b390b3b
 4fe:	1349                	addi	t1,t1,-14
 500:	1802                	slli	a6,a6,0x20
 502:	0000                	unimp
 504:	31011d2f          	.insn	4, 0x31011d2f
 508:	12011113          	.insn	4, 0x12011113
 50c:	01215807          	.insn	4, 0x01215807
 510:	0559                	addi	a0,a0,22
 512:	13010b57          	.insn	4, 0x13010b57
 516:	0000                	unimp
 518:	3530                	fld	fa2,104(a0)
 51a:	4900                	lw	s0,16(a0)
 51c:	31000013          	li	zero,784
 520:	0026                	c.slli	zero,0x9
 522:	1349                	addi	t1,t1,-14
 524:	0000                	unimp
 526:	3432                	fld	fs0,296(sp)
 528:	0300                	addi	s0,sp,384
 52a:	3a0e                	fld	fs4,224(sp)
 52c:	0121                	addi	sp,sp,8
 52e:	0b390b3b          	.insn	4, 0x0b390b3b
 532:	1349                	addi	t1,t1,-14
 534:	1802                	slli	a6,a6,0x20
 536:	0000                	unimp
 538:	03003433          	mulhu	s0,zero,a6
 53c:	3a0e                	fld	fs4,224(sp)
 53e:	0121                	addi	sp,sp,8
 540:	0b39053b          	.insn	4, 0x0b39053b
 544:	1349                	addi	t1,t1,-14
 546:	1702                	slli	a4,a4,0x20
 548:	0000                	unimp
 54a:	0b34                	addi	a3,sp,408
 54c:	0101                	addi	sp,sp,0
 54e:	35000013          	li	zero,848
 552:	0000010b          	.insn	4, 0x010b
 556:	1836                	slli	a6,a6,0x2d
 558:	0000                	unimp
 55a:	3700                	fld	fs0,40(a4)
 55c:	012e                	slli	sp,sp,0xb
 55e:	213a0e03          	lb	t3,531(s4)
 562:	3b01                	addiw	s6,s6,-32
 564:	270b390b          	.insn	4, 0x270b390b
 568:	2019                	.insn	2, 0x2019
 56a:	0013010b          	.insn	4, 0x0013010b
 56e:	3800                	fld	fs0,48(s0)
 570:	0034                	addi	a3,sp,8
 572:	213a0803          	lb	a6,531(s4)
 576:	3b01                	addiw	s6,s6,-32
 578:	490b390b          	.insn	4, 0x490b390b
 57c:	39000013          	li	zero,912
 580:	0005                	c.nop	1
 582:	1349                	addi	t1,t1,-14
 584:	0000                	unimp
 586:	2e3a                	fld	ft8,392(sp)
 588:	0301                	addi	t1,t1,0
 58a:	3a0e                	fld	fs4,224(sp)
 58c:	0121                	addi	sp,sp,8
 58e:	0b390b3b          	.insn	4, 0x0b390b3b
 592:	13491927          	.insn	4, 0x13491927
 596:	2120                	fld	fs0,64(a0)
 598:	0101                	addi	sp,sp,0
 59a:	3b000013          	li	zero,944
 59e:	0034                	addi	a3,sp,8
 5a0:	213a0803          	lb	a6,531(s4)
 5a4:	3b01                	addiw	s6,s6,-32
 5a6:	490b390b          	.insn	4, 0x490b390b
 5aa:	00180213          	addi	tp,a6,1
 5ae:	3c00                	fld	fs0,56(s0)
 5b0:	1755010b          	.insn	4, 0x1755010b
 5b4:	1301                	addi	t1,t1,-32
 5b6:	0000                	unimp
 5b8:	053d                	addi	a0,a0,15
 5ba:	0300                	addi	s0,sp,384
 5bc:	3a0e                	fld	fs4,224(sp)
 5be:	0121                	addi	sp,sp,8
 5c0:	0b390b3b          	.insn	4, 0x0b390b3b
 5c4:	1349                	addi	t1,t1,-14
 5c6:	1702                	slli	a4,a4,0x20
 5c8:	0000                	unimp
 5ca:	2e3e                	fld	ft8,456(sp)
 5cc:	3f01                	addiw	t5,t5,-32
 5ce:	0319                	addi	t1,t1,6
 5d0:	3a0e                	fld	fs4,224(sp)
 5d2:	0121                	addi	sp,sp,8
 5d4:	0b390b3b          	.insn	4, 0x0b390b3b
 5d8:	01871927          	.insn	4, 0x01871927
 5dc:	2019                	.insn	2, 0x2019
 5de:	0121                	addi	sp,sp,8
 5e0:	1301                	addi	t1,t1,-32
 5e2:	0000                	unimp
 5e4:	0300343f 01213a0e 	.insn	8, 0x01213a0e0300343f
 5ec:	21390b3b          	.insn	4, 0x21390b3b
 5f0:	4915                	li	s2,5
 5f2:	00061c13          	slli	s8,a2,0x0
 5f6:	4000                	lw	s0,0(s0)
 5f8:	000a                	c.slli	zero,0x2
 5fa:	1331                	addi	t1,t1,-20
 5fc:	0000                	unimp
 5fe:	1d41                	addi	s10,s10,-16 # fffffffffffdfff0 <__global_pointer$+0xffffffff7ffdd7a8>
 600:	3101                	addiw	sp,sp,-32
 602:	55015213          	.insn	4, 0x55015213
 606:	01215817          	auipc	a6,0x1215
 60a:	0559                	addi	a0,a0,22
 60c:	00000b57          	.insn	4, 0x0b57
 610:	0b42                	slli	s6,s6,0x10
 612:	3101                	addiw	sp,sp,-32
 614:	01175513          	srli	a0,a4,0x11
 618:	43000013          	li	zero,1072
 61c:	1331010b          	.insn	4, 0x1331010b
 620:	0111                	addi	sp,sp,4
 622:	0712                	slli	a4,a4,0x4
 624:	0000                	unimp
 626:	2e44                	fld	fs1,152(a2)
 628:	3f00                	fld	fs0,56(a4)
 62a:	3c19                	addiw	s8,s8,-26
 62c:	6e19                	lui	t3,0x6
 62e:	030e                	slli	t1,t1,0x3
 630:	3a0e                	fld	fs4,224(sp)
 632:	0821                	addi	a6,a6,8 # 121560e <_start-0x7edea9f2>
 634:	0000213b          	.insn	4, 0x213b
 638:	4500                	lw	s0,8(a0)
 63a:	0111                	addi	sp,sp,4
 63c:	0e25                	addi	t3,t3,9 # 6009 <_start-0x7fff9ff7>
 63e:	1f030b13          	addi	s6,t1,496
 642:	17551f1b          	.insn	4, 0x17551f1b
 646:	0111                	addi	sp,sp,4
 648:	1710                	addi	a2,sp,928
 64a:	0000                	unimp
 64c:	2446                	fld	fs0,80(sp)
 64e:	0b00                	addi	s0,sp,400
 650:	030b3e0b          	.insn	4, 0x030b3e0b
 654:	0008                	.insn	2, 0x0008
 656:	4700                	lw	s0,8(a4)
 658:	0b0b000f          	.insn	4, 0x0b0b000f
 65c:	0000                	unimp
 65e:	0f48                	addi	a0,sp,916
 660:	0b00                	addi	s0,sp,400
 662:	000e030b          	.insn	4, 0x000e030b
 666:	4900                	lw	s0,16(a0)
 668:	012e                	slli	sp,sp,0xb
 66a:	0e03193f 053b0b3a 	.insn	8, 0x053b0b3a0e03193f
 672:	0b39                	addi	s6,s6,14
 674:	13491927          	.insn	4, 0x13491927
 678:	0111                	addi	sp,sp,4
 67a:	0712                	slli	a4,a4,0x4
 67c:	1840                	addi	s0,sp,52
 67e:	197a                	slli	s2,s2,0x3e
 680:	1301                	addi	t1,t1,-32
 682:	0000                	unimp
 684:	054a                	slli	a0,a0,0x12
 686:	0300                	addi	s0,sp,384
 688:	3a0e                	fld	fs4,224(sp)
 68a:	39053b0b          	.insn	4, 0x39053b0b
 68e:	0213490b          	.insn	4, 0x0213490b
 692:	0018                	.insn	2, 0x0018
 694:	4b00                	lw	s0,16(a4)
 696:	0026                	c.slli	zero,0x9
 698:	0000                	unimp
 69a:	2e4c                	fld	fa1,152(a2)
 69c:	0301                	addi	t1,t1,0
 69e:	3a0e                	fld	fs4,224(sp)
 6a0:	39053b0b          	.insn	4, 0x39053b0b
 6a4:	2019270b          	.insn	4, 0x2019270b
 6a8:	0013010b          	.insn	4, 0x0013010b
 6ac:	4d00                	lw	s0,24(a0)
 6ae:	0049                	c.nop	18
 6b0:	0180                	addi	s0,sp,192
 6b2:	00187e13          	andi	t3,a6,1
 6b6:	4e00                	lw	s0,24(a2)
 6b8:	0115                	addi	sp,sp,5
 6ba:	13011927          	.insn	4, 0x13011927
 6be:	0000                	unimp
 6c0:	0300344f          	fnmadd.d	fs0,ft0,fa6,ft0,rup
 6c4:	3a08                	fld	fa0,48(a2)
 6c6:	390b3b0b          	.insn	4, 0x390b3b0b
 6ca:	8813490b          	.insn	4, 0x8813490b
 6ce:	0b01                	addi	s6,s6,0
 6d0:	1802                	slli	a6,a6,0x20
 6d2:	0000                	unimp
 6d4:	2e50                	fld	fa2,152(a2)
 6d6:	0301                	addi	t1,t1,0
 6d8:	3a0e                	fld	fs4,224(sp)
 6da:	390b3b0b          	.insn	4, 0x390b3b0b
 6de:	010b200b          	.insn	4, 0x010b200b
 6e2:	51000013          	li	zero,1296
 6e6:	012e                	slli	sp,sp,0xb
 6e8:	0e03193f 0b3b0b3a 	.insn	8, 0x0b3b0b3a0e03193f
 6f0:	0b39                	addi	s6,s6,14
 6f2:	0111                	addi	sp,sp,4
 6f4:	0712                	slli	a4,a4,0x4
 6f6:	1840                	addi	s0,sp,52
 6f8:	197a                	slli	s2,s2,0x3e
 6fa:	1301                	addi	t1,t1,-32
 6fc:	0000                	unimp
 6fe:	0552                	slli	a0,a0,0x14
 700:	3100                	fld	fs0,32(a0)
 702:	00051c13          	slli	s8,a0,0x0
 706:	5300                	lw	s0,32(a4)
 708:	0111010b          	.insn	4, 0x0111010b
 70c:	0712                	slli	a4,a4,0x4
 70e:	0000                	unimp
	...

Disassembly of section .debug_loclists:

0000000000000000 <.debug_loclists>:
       0:	00000517          	auipc	a0,0x0
       4:	0005                	c.nop	1
       6:	0008                	.insn	2, 0x0008
       8:	0000                	unimp
       a:	0000                	unimp
       c:	e806                	sd	ra,16(sp)
       e:	0011                	c.nop	4
      10:	0080                	addi	s0,sp,64
      12:	0000                	unimp
      14:	0400                	addi	s0,sp,512
      16:	0600                	addi	s0,sp,768
      18:	3002                	fld	ft0,32(sp)
      1a:	049f 1406 5801      	.insn	6, 0x58011406049f
      20:	1404                	addi	s1,sp,544
      22:	045b0117          	auipc	sp,0x45b0
      26:	9818                	.insn	2, 0x9818
      28:	0102                	c.slli64	sp
      2a:	0458                	addi	a4,sp,516
      2c:	02a0                	addi	s0,sp,328
      2e:	02e6                	slli	t0,t0,0x19
      30:	5801                	li	a6,-32
      32:	0600                	addi	s0,sp,768
      34:	1206                	slli	tp,tp,0x21
      36:	8000                	.insn	2, 0x8000
      38:	0000                	unimp
      3a:	0000                	unimp
      3c:	0004                	.insn	2, 0x0004
      3e:	021e                	slli	tp,tp,0x7
      40:	9f30                	.insn	2, 0x9f30
      42:	1e04                	addi	s1,sp,816
      44:	023c                	addi	a5,sp,264
      46:	9f32                	add	t5,t5,a2
      48:	3c04                	fld	fs1,56(s0)
      4a:	025a                	slli	tp,tp,0x16
      4c:	9f34                	.insn	2, 0x9f34
      4e:	5a04                	lw	s1,48(a2)
      50:	0278                	addi	a4,sp,268
      52:	9f36                	add	t5,t5,a3
      54:	7804                	ld	s1,48(s0)
      56:	0196                	slli	gp,gp,0x5
      58:	3802                	fld	fa6,32(sp)
      5a:	049f 0196 01b4      	.insn	6, 0x01b40196049f
      60:	3a02                	fld	fs4,32(sp)
      62:	049f 01b4 01d2      	.insn	6, 0x01d201b4049f
      68:	3c02                	fld	fs8,32(sp)
      6a:	049f 01d2 01f6      	.insn	6, 0x01f601d2049f
      70:	3e02                	fld	ft8,32(sp)
      72:	049f 0282 0284      	.insn	6, 0x02840282049f
      78:	3002                	fld	ft0,32(sp)
      7a:	049f 0288 028c      	.insn	6, 0x028c0288049f
      80:	3002                	fld	ft0,32(sp)
      82:	049f 028c 0296      	.insn	6, 0x0296028c049f
      88:	3202                	fld	ft4,32(sp)
      8a:	049f 0296 02a0      	.insn	6, 0x02a00296049f
      90:	3402                	fld	fs0,32(sp)
      92:	049f 02a0 02aa      	.insn	6, 0x02aa02a0049f
      98:	3602                	fld	fa2,32(sp)
      9a:	049f 02aa 02b4      	.insn	6, 0x02b402aa049f
      a0:	3802                	fld	fa6,32(sp)
      a2:	049f 02b4 02be      	.insn	6, 0x02be02b4049f
      a8:	3a02                	fld	fs4,32(sp)
      aa:	049f 02be 02c8      	.insn	6, 0x02c802be049f
      b0:	3c02                	fld	fs8,32(sp)
      b2:	009f 0806 0012      	.insn	6, 0x00120806009f
      b8:	0080                	addi	s0,sp,64
      ba:	0000                	unimp
      bc:	0400                	addi	s0,sp,512
      be:	f400                	sd	s0,40(s0)
      c0:	0101                	addi	sp,sp,0 # 45b0022 <_start-0x7ba4ffde>
      c2:	045d                	addi	s0,s0,23
      c4:	0280                	addi	s0,sp,320
      c6:	02c6                	slli	t0,t0,0x11
      c8:	5d01                	li	s10,-32
      ca:	0600                	addi	s0,sp,768
      cc:	1214                	addi	a3,sp,288
      ce:	8000                	.insn	2, 0x8000
      d0:	0000                	unimp
      d2:	0000                	unimp
      d4:	0004                	.insn	2, 0x0004
      d6:	0114                	addi	a3,sp,128
      d8:	045e                	slli	s0,s0,0x17
      da:	321e                	fld	ft4,480(sp)
      dc:	5e01                	li	t3,-32
      de:	3c04                	fld	fs1,56(s0)
      e0:	0150                	addi	a2,sp,132
      e2:	045e                	slli	s0,s0,0x17
      e4:	6e5a                	ld	t3,400(sp)
      e6:	5e01                	li	t3,-32
      e8:	7804                	ld	s1,48(s0)
      ea:	018c                	addi	a1,sp,192
      ec:	5e01                	li	t3,-32
      ee:	9604                	.insn	2, 0x9604
      f0:	aa01                	j	200 <_start-0x7ffffe00>
      f2:	0101                	addi	sp,sp,0
      f4:	045e                	slli	s0,s0,0x17
      f6:	01b4                	addi	a3,sp,200
      f8:	01cc                	addi	a1,sp,196
      fa:	5e01                	li	t3,-32
      fc:	d204                	sw	s1,32(a2)
      fe:	e201                	bnez	a2,fe <_start-0x7fffff02>
     100:	0101                	addi	sp,sp,0
     102:	045f 01e2 01e8      	.insn	6, 0x01e801e2045f
     108:	81ce7f07          	.insn	4, 0x81ce7f07
     10c:	9f7b82cb          	.insn	4, 0x9f7b82cb
     110:	f404                	sd	s1,40(s0)
     112:	f601                	bnez	a2,1a <_start-0x7fffffe6>
     114:	0101                	addi	sp,sp,0
     116:	045e                	slli	s0,s0,0x17
     118:	01fa                	slli	gp,gp,0x1e
     11a:	02ba                	slli	t0,t0,0xe
     11c:	5e01                	li	t3,-32
     11e:	0600                	addi	s0,sp,768
     120:	1214                	addi	a3,sp,288
     122:	8000                	.insn	2, 0x8000
     124:	0000                	unimp
     126:	0000                	unimp
     128:	0004                	.insn	2, 0x0004
     12a:	061e                	slli	a2,a2,0x7
     12c:	2f0c                	fld	fa1,24(a4)
     12e:	9f4fad3f 063c1e04 	.insn	8, 0x063c1e049f4fad3f
     136:	320c                	fld	fa1,32(a2)
     138:	9f4fad3f 065a3c04 	.insn	8, 0x065a3c049f4fad3f
     140:	049e                	slli	s1,s1,0x7
     142:	e190f1eb          	.insn	4, 0xe190f1eb
     146:	5a04                	lw	s1,48(a2)
     148:	0678                	addi	a4,sp,780
     14a:	049e                	slli	s1,s1,0x7
     14c:	9dc6                	add	s11,s11,a7
     14e:	78049d83          	lh	s11,1920(s1)
     152:	0196                	slli	gp,gp,0x5
     154:	9e06                	add	t3,t3,ra
     156:	e604                	sd	s1,8(a2)
     158:	90f1                	srli	s1,s1,0x3c
     15a:	04e1                	addi	s1,s1,24
     15c:	0196                	slli	gp,gp,0x5
     15e:	01b4                	addi	a3,sp,200
     160:	0c06                	slli	s8,s8,0x1
     162:	4fad3f2f          	.insn	4, 0x4fad3f2f
     166:	049f 01b4 01d2      	.insn	6, 0x01d201b4049f
     16c:	0c06                	slli	s8,s8,0x1
     16e:	3f32                	fld	ft10,296(sp)
     170:	4fad                	li	t6,11
     172:	049f 01d2 01e8      	.insn	6, 0x01e801d2049f
     178:	9e06                	add	t3,t3,ra
     17a:	eb04                	sd	s1,16(a4)
     17c:	90f1                	srli	s1,s1,0x3c
     17e:	04e1                	addi	s1,s1,24
     180:	01f4                	addi	a3,sp,204
     182:	01f6                	slli	gp,gp,0x1d
     184:	0c06                	slli	s8,s8,0x1
     186:	4fad3f2f          	.insn	4, 0x4fad3f2f
     18a:	049f 01fa 01fe      	.insn	6, 0x01fe01fa049f
     190:	0c06                	slli	s8,s8,0x1
     192:	4fad3f2f          	.insn	4, 0x4fad3f2f
     196:	049f 01fe 0288      	.insn	6, 0x028801fe049f
     19c:	0c06                	slli	s8,s8,0x1
     19e:	3f32                	fld	ft10,296(sp)
     1a0:	4fad                	li	t6,11
     1a2:	049f 0288 0292      	.insn	6, 0x02920288049f
     1a8:	9e06                	add	t3,t3,ra
     1aa:	eb04                	sd	s1,16(a4)
     1ac:	90f1                	srli	s1,s1,0x3c
     1ae:	04e1                	addi	s1,s1,24
     1b0:	0292                	slli	t0,t0,0x4
     1b2:	029c                	addi	a5,sp,320
     1b4:	9e06                	add	t3,t3,ra
     1b6:	c604                	sw	s1,8(a2)
     1b8:	839d                	srli	a5,a5,0x7
     1ba:	049d                	addi	s1,s1,7
     1bc:	029c                	addi	a5,sp,320
     1be:	02a6                	slli	t0,t0,0x9
     1c0:	9e06                	add	t3,t3,ra
     1c2:	e604                	sd	s1,8(a2)
     1c4:	90f1                	srli	s1,s1,0x3c
     1c6:	04e1                	addi	s1,s1,24
     1c8:	02a6                	slli	t0,t0,0x9
     1ca:	02b0                	addi	a2,sp,328
     1cc:	0c06                	slli	s8,s8,0x1
     1ce:	4fad3f2f          	.insn	4, 0x4fad3f2f
     1d2:	049f 02b0 02ba      	.insn	6, 0x02ba02b0049f
     1d8:	0c06                	slli	s8,s8,0x1
     1da:	3f32                	fld	ft10,296(sp)
     1dc:	4fad                	li	t6,11
     1de:	009f 1406 0012      	.insn	6, 0x00121406009f
     1e4:	0080                	addi	s0,sp,64
     1e6:	0000                	unimp
     1e8:	0400                	addi	s0,sp,512
     1ea:	1e00                	addi	s0,sp,816
     1ec:	0c06                	slli	s8,s8,0x1
     1ee:	6236                	ld	tp,328(sp)
     1f0:	627c                	ld	a5,192(a2)
     1f2:	049f 3c1e 0c06      	.insn	6, 0x0c063c1e049f
     1f8:	1e6f0e17          	auipc	t3,0x1e6f0
     1fc:	049f 5a3c 9e06      	.insn	6, 0x9e065a3c049f
     202:	ce04                	sw	s1,24(a2)
     204:	52c0                	lw	s0,36(a3)
     206:	04b0                	addi	a2,sp,584
     208:	785a                	ld	a6,432(sp)
     20a:	9e06                	add	t3,t3,ra
     20c:	cb04                	sw	s1,16(a4)
     20e:	52c0                	lw	s0,36(a3)
     210:	04b0                	addi	a2,sp,584
     212:	9678                	.insn	2, 0x9678
     214:	0601                	addi	a2,a2,0
     216:	120c                	addi	a1,sp,288
     218:	6f0e                	ld	t5,192(sp)
     21a:	9f1e                	add	t5,t5,t2
     21c:	9604                	.insn	2, 0x9604
     21e:	b401                	j	fffffffffffffc1e <__global_pointer$+0xffffffff7fffd3d6>
     220:	0601                	addi	a2,a2,0
     222:	360c                	fld	fa1,40(a2)
     224:	7c62                	ld	s8,56(sp)
     226:	9f62                	add	t5,t5,s8
     228:	b404                	fsd	fs1,40(s0)
     22a:	d201                	beqz	a2,12a <_start-0x7ffffed6>
     22c:	0601                	addi	a2,a2,0
     22e:	170c                	addi	a1,sp,928
     230:	6f0e                	ld	t5,192(sp)
     232:	9f1e                	add	t5,t5,t2
     234:	d204                	sw	s1,32(a2)
     236:	e801                	bnez	s0,246 <_start-0x7ffffdba>
     238:	0601                	addi	a2,a2,0
     23a:	049e                	slli	s1,s1,0x7
     23c:	c0ce                	sw	s3,64(sp)
     23e:	b052                	fsd	fs4,32(sp)
     240:	f404                	sd	s1,40(s0)
     242:	f601                	bnez	a2,14a <_start-0x7ffffeb6>
     244:	0601                	addi	a2,a2,0
     246:	360c                	fld	fa1,40(a2)
     248:	7c62                	ld	s8,56(sp)
     24a:	9f62                	add	t5,t5,s8
     24c:	fa04                	sd	s1,48(a2)
     24e:	fe01                	bnez	a2,166 <_start-0x7ffffe9a>
     250:	0601                	addi	a2,a2,0
     252:	360c                	fld	fa1,40(a2)
     254:	7c62                	ld	s8,56(sp)
     256:	9f62                	add	t5,t5,s8
     258:	fe04                	sd	s1,56(a2)
     25a:	8801                	andi	s0,s0,0
     25c:	0602                	c.slli64	a2
     25e:	170c                	addi	a1,sp,928
     260:	6f0e                	ld	t5,192(sp)
     262:	9f1e                	add	t5,t5,t2
     264:	8804                	.insn	2, 0x8804
     266:	9202                	jalr	tp
     268:	0602                	c.slli64	a2
     26a:	049e                	slli	s1,s1,0x7
     26c:	c0ce                	sw	s3,64(sp)
     26e:	b052                	fsd	fs4,32(sp)
     270:	9204                	.insn	2, 0x9204
     272:	9c02                	jalr	s8
     274:	0602                	c.slli64	a2
     276:	049e                	slli	s1,s1,0x7
     278:	b052c0cb          	fnmsub.s	ft1,ft5,ft5,fs6,rmm
     27c:	9c04                	.insn	2, 0x9c04
     27e:	a602                	fsd	ft0,264(sp)
     280:	0602                	c.slli64	a2
     282:	120c                	addi	a1,sp,288
     284:	6f0e                	ld	t5,192(sp)
     286:	9f1e                	add	t5,t5,t2
     288:	a604                	fsd	fs1,8(a2)
     28a:	b002                	fsd	ft0,32(sp)
     28c:	0602                	c.slli64	a2
     28e:	360c                	fld	fa1,40(a2)
     290:	7c62                	ld	s8,56(sp)
     292:	9f62                	add	t5,t5,s8
     294:	b004                	fsd	fs1,32(s0)
     296:	ba02                	fsd	ft0,304(sp)
     298:	0602                	c.slli64	a2
     29a:	170c                	addi	a1,sp,928
     29c:	6f0e                	ld	t5,192(sp)
     29e:	9f1e                	add	t5,t5,t2
     2a0:	0600                	addi	s0,sp,768
     2a2:	01d0                	addi	a2,sp,196
     2a4:	8000                	.insn	2, 0x8000
     2a6:	0000                	unimp
     2a8:	0000                	unimp
     2aa:	0004                	.insn	2, 0x0004
     2ac:	0130                	addi	a2,sp,136
     2ae:	045a                	slli	s0,s0,0x16
     2b0:	6030                	ld	a2,64(s0)
     2b2:	a304                	fsd	fs1,0(a4)
     2b4:	5a01                	li	s4,-32
     2b6:	009f d006 0001      	.insn	6, 0x0001d006009f
     2bc:	0080                	addi	s0,sp,64
     2be:	0000                	unimp
     2c0:	0400                	addi	s0,sp,512
     2c2:	1c00                	addi	s0,sp,560
     2c4:	5c01                	li	s8,-32
     2c6:	1c04                	addi	s1,sp,560
     2c8:	0460                	addi	s0,sp,524
     2ca:	9f5c01a3          	sb	s5,-1565(s8)
     2ce:	0600                	addi	s0,sp,768
     2d0:	01d0                	addi	a2,sp,196
     2d2:	8000                	.insn	2, 0x8000
     2d4:	0000                	unimp
     2d6:	0000                	unimp
     2d8:	0004                	.insn	2, 0x0004
     2da:	0130                	addi	a2,sp,136
     2dc:	045d                	addi	s0,s0,23
     2de:	6030                	ld	a2,64(s0)
     2e0:	a304                	fsd	fs1,0(a4)
     2e2:	5d01                	li	s10,-32
     2e4:	009f d006 0001      	.insn	6, 0x0001d006009f
     2ea:	0080                	addi	s0,sp,64
     2ec:	0000                	unimp
     2ee:	0400                	addi	s0,sp,512
     2f0:	3000                	fld	fs0,32(s0)
     2f2:	5e01                	li	t3,-32
     2f4:	3004                	fld	fs1,32(s0)
     2f6:	0460                	addi	s0,sp,524
     2f8:	9f5e01a3          	sb	s5,-1565(t3) # 1e6efbdb <_start-0x61910425>
     2fc:	0600                	addi	s0,sp,768
     2fe:	01f0                	addi	a2,sp,204
     300:	8000                	.insn	2, 0x8000
     302:	0000                	unimp
     304:	0000                	unimp
     306:	0004                	.insn	2, 0x0004
     308:	0210                	addi	a2,sp,256
     30a:	9f30                	.insn	2, 0x9f30
     30c:	1e04                	addi	s1,sp,816
     30e:	0224                	addi	s1,sp,264
     310:	9f30                	.insn	2, 0x9f30
     312:	2404                	fld	fs1,8(s0)
     314:	082c                	addi	a1,sp,24
     316:	007e                	c.slli	zero,0x1f
     318:	321c007b          	.insn	4, 0x321c007b
     31c:	9f25                	addw	a4,a4,s1
     31e:	2c04                	fld	fs1,24(s0)
     320:	0a38                	addi	a4,sp,280
     322:	007e                	c.slli	zero,0x1f
     324:	341c007b          	.insn	4, 0x341c007b
     328:	321c                	fld	fa5,32(a2)
     32a:	9f25                	addw	a4,a4,s1
     32c:	0600                	addi	s0,sp,768
     32e:	01d4                	addi	a3,sp,196
     330:	8000                	.insn	2, 0x8000
     332:	0000                	unimp
     334:	0000                	unimp
     336:	0004                	.insn	2, 0x0004
     338:	0218                	addi	a4,sp,256
     33a:	9f30                	.insn	2, 0x9f30
     33c:	1804                	addi	s1,sp,48
     33e:	012c                	addi	a1,sp,136
     340:	046c                	addi	a1,sp,524
     342:	3a2e                	fld	fs4,232(sp)
     344:	6c01                	.insn	2, 0x6c01
     346:	0800                	addi	s0,sp,16
     348:	0214                	addi	a3,sp,256
     34a:	8000                	.insn	2, 0x8000
     34c:	0000                	unimp
     34e:	0000                	unimp
     350:	0212                	slli	tp,tp,0x4
     352:	007c                	addi	a5,sp,12
     354:	0600                	addi	s0,sp,768
     356:	0214                	addi	a3,sp,256
     358:	8000                	.insn	2, 0x8000
     35a:	0000                	unimp
     35c:	0000                	unimp
     35e:	0004                	.insn	2, 0x0004
     360:	1808                	addi	a0,sp,48
     362:	007e                	c.slli	zero,0x1f
     364:	0494                	addi	a3,sp,576
     366:	2008                	fld	fa0,0(s0)
     368:	0824                	addi	s1,sp,24
     36a:	2620                	fld	fs0,72(a2)
     36c:	007a                	c.slli	zero,0x1e
     36e:	0494                	addi	a3,sp,576
     370:	2008                	fld	fa0,0(s0)
     372:	0824                	addi	s1,sp,24
     374:	2620                	fld	fs0,72(a2)
     376:	4f1e                	lw	t5,196(sp)
     378:	9f26                	add	t5,t5,s1
     37a:	0804                	addi	s1,sp,16
     37c:	180a                	slli	a6,a6,0x22
     37e:	7c7e                	ld	s8,504(sp)
     380:	0494                	addi	a3,sp,576
     382:	2008                	fld	fa0,0(s0)
     384:	0824                	addi	s1,sp,24
     386:	2620                	fld	fs0,72(a2)
     388:	007a                	c.slli	zero,0x1e
     38a:	0494                	addi	a3,sp,576
     38c:	2008                	fld	fa0,0(s0)
     38e:	0824                	addi	s1,sp,24
     390:	2620                	fld	fs0,72(a2)
     392:	4f1e                	lw	t5,196(sp)
     394:	9f26                	add	t5,t5,s1
     396:	0a04                	addi	s1,sp,272
     398:	1812                	slli	a6,a6,0x24
     39a:	7c7e                	ld	s8,504(sp)
     39c:	0494                	addi	a3,sp,576
     39e:	2008                	fld	fa0,0(s0)
     3a0:	0824                	addi	s1,sp,24
     3a2:	2620                	fld	fs0,72(a2)
     3a4:	047a                	slli	s0,s0,0x1e
     3a6:	0494                	addi	a3,sp,576
     3a8:	2008                	fld	fa0,0(s0)
     3aa:	0824                	addi	s1,sp,24
     3ac:	2620                	fld	fs0,72(a2)
     3ae:	4f1e                	lw	t5,196(sp)
     3b0:	9f26                	add	t5,t5,s1
     3b2:	0600                	addi	s0,sp,768
     3b4:	0214                	addi	a3,sp,256
     3b6:	8000                	.insn	2, 0x8000
     3b8:	0000                	unimp
     3ba:	0000                	unimp
     3bc:	0004                	.insn	2, 0x0004
     3be:	2908                	fld	fa0,16(a0)
     3c0:	007c                	addi	a5,sp,12
     3c2:	0494                	addi	a3,sp,576
     3c4:	2008                	fld	fa0,0(s0)
     3c6:	0824                	addi	s1,sp,24
     3c8:	2620                	fld	fs0,72(a2)
     3ca:	007e                	c.slli	zero,0x1f
     3cc:	0494                	addi	a3,sp,576
     3ce:	2008                	fld	fa0,0(s0)
     3d0:	0824                	addi	s1,sp,24
     3d2:	2620                	fld	fs0,72(a2)
     3d4:	007a                	c.slli	zero,0x1e
     3d6:	0494                	addi	a3,sp,576
     3d8:	2008                	fld	fa0,0(s0)
     3da:	0824                	addi	s1,sp,24
     3dc:	2620                	fld	fs0,72(a2)
     3de:	4f1e                	lw	t5,196(sp)
     3e0:	0826                	slli	a6,a6,0x9
     3e2:	2420                	fld	fs0,72(s0)
     3e4:	2008                	fld	fa0,0(s0)
     3e6:	2226                	fld	ft4,72(sp)
     3e8:	049f 0a08 7c29      	.insn	6, 0x7c290a08049f
     3ee:	9400                	.insn	2, 0x9400
     3f0:	0804                	addi	s1,sp,16
     3f2:	2420                	fld	fs0,72(s0)
     3f4:	2008                	fld	fa0,0(s0)
     3f6:	7e26                	ld	t3,104(sp)
     3f8:	947c                	.insn	2, 0x947c
     3fa:	0804                	addi	s1,sp,16
     3fc:	2420                	fld	fs0,72(s0)
     3fe:	2008                	fld	fa0,0(s0)
     400:	7a26                	ld	s4,104(sp)
     402:	9400                	.insn	2, 0x9400
     404:	0804                	addi	s1,sp,16
     406:	2420                	fld	fs0,72(s0)
     408:	2008                	fld	fa0,0(s0)
     40a:	1e26                	slli	t3,t3,0x29
     40c:	2008264f          	fnmadd.s	fa2,fa6,ft0,ft4,rdn
     410:	0824                	addi	s1,sp,24
     412:	2620                	fld	fs0,72(a2)
     414:	9f22                	add	t5,t5,s0
     416:	0a04                	addi	s1,sp,272
     418:	2914                	fld	fa3,16(a0)
     41a:	007c                	addi	a5,sp,12
     41c:	0494                	addi	a3,sp,576
     41e:	2008                	fld	fa0,0(s0)
     420:	0824                	addi	s1,sp,24
     422:	2620                	fld	fs0,72(a2)
     424:	7c7e                	ld	s8,504(sp)
     426:	0494                	addi	a3,sp,576
     428:	2008                	fld	fa0,0(s0)
     42a:	0824                	addi	s1,sp,24
     42c:	2620                	fld	fs0,72(a2)
     42e:	047a                	slli	s0,s0,0x1e
     430:	0494                	addi	a3,sp,576
     432:	2008                	fld	fa0,0(s0)
     434:	0824                	addi	s1,sp,24
     436:	2620                	fld	fs0,72(a2)
     438:	4f1e                	lw	t5,196(sp)
     43a:	0826                	slli	a6,a6,0x9
     43c:	2420                	fld	fs0,72(s0)
     43e:	2008                	fld	fa0,0(s0)
     440:	2226                	fld	ft4,72(sp)
     442:	009f c206 0001      	.insn	6, 0x0001c206009f
     448:	0080                	addi	s0,sp,64
     44a:	0000                	unimp
     44c:	0400                	addi	s0,sp,512
     44e:	0200                	addi	s0,sp,256
     450:	5a01                	li	s4,-32
     452:	0204                	addi	s1,sp,256
     454:	0404                	addi	s1,sp,512
     456:	9f5a01a3          	sb	s5,-1565(s4)
     45a:	0600                	addi	s0,sp,768
     45c:	01c2                	slli	gp,gp,0x10
     45e:	8000                	.insn	2, 0x8000
     460:	0000                	unimp
     462:	0000                	unimp
     464:	0004                	.insn	2, 0x0004
     466:	1202                	slli	tp,tp,0x20
     468:	007a                	c.slli	zero,0x1e
     46a:	2008                	fld	fa0,0(s0)
     46c:	0824                	addi	s1,sp,24
     46e:	2620                	fld	fs0,72(a2)
     470:	2008007b          	.insn	4, 0x2008007b
     474:	0824                	addi	s1,sp,24
     476:	2620                	fld	fs0,72(a2)
     478:	9f22                	add	t5,t5,s0
     47a:	0204                	addi	s1,sp,256
     47c:	1304                	addi	s1,sp,416
     47e:	085a01a3          	sb	t0,131(s4)
     482:	2420                	fld	fs0,72(s0)
     484:	2008                	fld	fa0,0(s0)
     486:	7b26                	ld	s6,104(sp)
     488:	0800                	addi	s0,sp,16
     48a:	2420                	fld	fs0,72(s0)
     48c:	2008                	fld	fa0,0(s0)
     48e:	2226                	fld	ft4,72(sp)
     490:	009f c606 0001      	.insn	6, 0x0001c606009f
     496:	0080                	addi	s0,sp,64
     498:	0000                	unimp
     49a:	0400                	addi	s0,sp,512
     49c:	0400                	addi	s0,sp,512
     49e:	5a01                	li	s4,-32
     4a0:	0404                	addi	s1,sp,512
     4a2:	040a                	slli	s0,s0,0x2
     4a4:	9f5a01a3          	sb	s5,-1565(s4)
     4a8:	0600                	addi	s0,sp,768
     4aa:	01c6                	slli	gp,gp,0x11
     4ac:	8000                	.insn	2, 0x8000
     4ae:	0000                	unimp
     4b0:	0000                	unimp
     4b2:	0004                	.insn	2, 0x0004
     4b4:	1204                	addi	s1,sp,288
     4b6:	007a                	c.slli	zero,0x1e
     4b8:	2008                	fld	fa0,0(s0)
     4ba:	0824                	addi	s1,sp,24
     4bc:	2620                	fld	fs0,72(a2)
     4be:	2008007b          	.insn	4, 0x2008007b
     4c2:	0824                	addi	s1,sp,24
     4c4:	2620                	fld	fs0,72(a2)
     4c6:	9f1e                	add	t5,t5,t2
     4c8:	0404                	addi	s1,sp,512
     4ca:	130a                	slli	t1,t1,0x22
     4cc:	085a01a3          	sb	t0,131(s4)
     4d0:	2420                	fld	fs0,72(s0)
     4d2:	2008                	fld	fa0,0(s0)
     4d4:	7b26                	ld	s6,104(sp)
     4d6:	0800                	addi	s0,sp,16
     4d8:	2420                	fld	fs0,72(s0)
     4da:	2008                	fld	fa0,0(s0)
     4dc:	1e26                	slli	t3,t3,0x29
     4de:	009f c606 0001      	.insn	6, 0x0001c606009f
     4e4:	0080                	addi	s0,sp,64
     4e6:	0000                	unimp
     4e8:	0400                	addi	s0,sp,512
     4ea:	0400                	addi	s0,sp,512
     4ec:	7a14                	ld	a3,48(a2)
     4ee:	0800                	addi	s0,sp,16
     4f0:	2420                	fld	fs0,72(s0)
     4f2:	2008                	fld	fa0,0(s0)
     4f4:	7b26                	ld	s6,104(sp)
     4f6:	0800                	addi	s0,sp,16
     4f8:	2420                	fld	fs0,72(s0)
     4fa:	2008                	fld	fa0,0(s0)
     4fc:	1e26                	slli	t3,t3,0x29
     4fe:	049f264f          	.insn	4, 0x049f264f
     502:	0a04                	addi	s1,sp,272
     504:	a315                	j	a28 <_start-0x7ffff5d8>
     506:	5a01                	li	s4,-32
     508:	2008                	fld	fa0,0(s0)
     50a:	0824                	addi	s1,sp,24
     50c:	2620                	fld	fs0,72(a2)
     50e:	2008007b          	.insn	4, 0x2008007b
     512:	0824                	addi	s1,sp,24
     514:	2620                	fld	fs0,72(a2)
     516:	4f1e                	lw	t5,196(sp)
     518:	9f26                	add	t5,t5,s1
     51a:	3300                	fld	fs0,32(a4)
     51c:	0016                	c.slli	zero,0x5
     51e:	0500                	addi	s0,sp,640
     520:	0800                	addi	s0,sp,16
     522:	0000                	unimp
     524:	0000                	unimp
     526:	0600                	addi	s0,sp,768
     528:	110c                	addi	a1,sp,160
     52a:	8000                	.insn	2, 0x8000
     52c:	0000                	unimp
     52e:	0000                	unimp
     530:	0004                	.insn	2, 0x0004
     532:	0110                	addi	a2,sp,128
     534:	045a                	slli	s0,s0,0x16
     536:	3210                	fld	fa2,32(a2)
     538:	5f01                	li	t5,-32
     53a:	3204                	fld	fs1,32(a2)
     53c:	0342                	slli	t1,t1,0x10
     53e:	7f7f                	.insn	2, 0x7f7f
     540:	049f 5c42 5f01      	.insn	6, 0x5f015c42049f
     546:	5c04                	lw	s1,56(s0)
     548:	0364                	addi	s1,sp,396
     54a:	017f 049f 6a64 5f01 	.insn	10, 0x06005f016a64049f017f
     552:	0600 
     554:	110c                	addi	a1,sp,160
     556:	8000                	.insn	2, 0x8000
     558:	0000                	unimp
     55a:	0000                	unimp
     55c:	0004                	.insn	2, 0x0004
     55e:	0230                	addi	a2,sp,264
     560:	9f30                	.insn	2, 0x9f30
     562:	3004                	fld	fs1,32(s0)
     564:	0142                	slli	sp,sp,0x10
     566:	045a                	slli	s0,s0,0x16
     568:	4642                	lw	a2,16(sp)
     56a:	5e01                	li	t3,-32
     56c:	4604                	lw	s1,8(a2)
     56e:	014e                	slli	sp,sp,0x13
     570:	045a                	slli	s0,s0,0x16
     572:	504e                	.insn	2, 0x504e
     574:	7a04                	ld	s1,48(a2)
     576:	1f00                	addi	s0,sp,944
     578:	049f 6850 3002      	.insn	6, 0x30026850049f
     57e:	009f 0c06 0011      	.insn	6, 0x00110c06009f
     584:	0080                	addi	s0,sp,64
     586:	0000                	unimp
     588:	0400                	addi	s0,sp,512
     58a:	2e00                	fld	fs0,24(a2)
     58c:	3002                	fld	ft0,32(sp)
     58e:	049f 5030 5b01      	.insn	6, 0x5b015030049f
     594:	5004                	lw	s1,32(s0)
     596:	025c                	addi	a5,sp,260
     598:	9f30                	.insn	2, 0x9f30
     59a:	5c04                	lw	s1,56(s0)
     59c:	0266                	slli	tp,tp,0x19
     59e:	9f31                	addw	a4,a4,a2
     5a0:	0600                	addi	s0,sp,768
     5a2:	10fa                	slli	ra,ra,0x3e
     5a4:	8000                	.insn	2, 0x8000
     5a6:	0000                	unimp
     5a8:	0000                	unimp
     5aa:	0004                	.insn	2, 0x0004
     5ac:	0108                	addi	a0,sp,128
     5ae:	1208045b          	.insn	4, 0x1208045b
     5b2:	5b01                	li	s6,-32
     5b4:	0600                	addi	s0,sp,768
     5b6:	10fa                	slli	ra,ra,0x3e
     5b8:	8000                	.insn	2, 0x8000
     5ba:	0000                	unimp
     5bc:	0000                	unimp
     5be:	0004                	.insn	2, 0x0004
     5c0:	0102                	c.slli64	sp
     5c2:	045a                	slli	s0,s0,0x16
     5c4:	1202                	slli	tp,tp,0x20
     5c6:	5f01                	li	t5,-32
     5c8:	0600                	addi	s0,sp,768
     5ca:	10dc                	addi	a5,sp,100
     5cc:	8000                	.insn	2, 0x8000
     5ce:	0000                	unimp
     5d0:	0000                	unimp
     5d2:	0004                	.insn	2, 0x0004
     5d4:	0100                	addi	s0,sp,128
     5d6:	045a                	slli	s0,s0,0x16
     5d8:	0600                	addi	s0,sp,768
     5da:	a304                	fsd	fs1,0(a4)
     5dc:	5a01                	li	s4,-32
     5de:	049f 1606 5a01      	.insn	6, 0x5a011606049f
     5e4:	1604                	addi	s1,sp,800
     5e6:	061a                	slli	a2,a2,0x6
     5e8:	235a01a3          	sb	s5,547(s4)
     5ec:	9f01                	subw	a4,a4,s0
     5ee:	1a04                	addi	s1,sp,304
     5f0:	011c                	addi	a5,sp,128
     5f2:	045a                	slli	s0,s0,0x16
     5f4:	1e1c                	addi	a5,sp,816
     5f6:	a306                	fsd	ft1,384(sp)
     5f8:	5a01                	li	s4,-32
     5fa:	009f0123          	sb	s1,2(t5)
     5fe:	dc06                	sw	ra,56(sp)
     600:	0010                	.insn	2, 0x0010
     602:	0080                	addi	s0,sp,64
     604:	0000                	unimp
     606:	0400                	addi	s0,sp,512
     608:	0000                	unimp
     60a:	5b01                	li	s6,-32
     60c:	0004                	.insn	2, 0x0004
     60e:	0408                	addi	a0,sp,512
     610:	9f5b01a3          	sb	s5,-1565(s6)
     614:	0804                	addi	s1,sp,16
     616:	011e                	slli	sp,sp,0x7
     618:	9e06005b          	.insn	4, 0x9e06005b
     61c:	0010                	.insn	2, 0x0010
     61e:	0080                	addi	s0,sp,64
     620:	0000                	unimp
     622:	0400                	addi	s0,sp,512
     624:	1400                	addi	s0,sp,544
     626:	5a01                	li	s4,-32
     628:	1404                	addi	s1,sp,544
     62a:	0416                	slli	s0,s0,0x5
     62c:	9f5a01a3          	sb	s5,-1565(s4)
     630:	1604                	addi	s1,sp,800
     632:	0118                	addi	a4,sp,128
     634:	045a                	slli	s0,s0,0x16
     636:	1a18                	addi	a4,sp,304
     638:	a304                	fsd	fs1,0(a4)
     63a:	5a01                	li	s4,-32
     63c:	009f 9e06 0010      	.insn	6, 0x00109e06009f
     642:	0080                	addi	s0,sp,64
     644:	0000                	unimp
     646:	0400                	addi	s0,sp,512
     648:	0800                	addi	s0,sp,16
     64a:	5a01                	li	s4,-32
     64c:	0804                	addi	s1,sp,16
     64e:	0116                	slli	sp,sp,0x5
     650:	045f 1816 5a01      	.insn	6, 0x5a011816045f
     656:	1804                	addi	s1,sp,48
     658:	041a                	slli	s0,s0,0x6
     65a:	9f5a01a3          	sb	s5,-1565(s4)
     65e:	0600                	addi	s0,sp,768
     660:	0cd8                	addi	a4,sp,596
     662:	8000                	.insn	2, 0x8000
     664:	0000                	unimp
     666:	0000                	unimp
     668:	0004                	.insn	2, 0x0004
     66a:	0112                	slli	sp,sp,0x4
     66c:	045a                	slli	s0,s0,0x16
     66e:	2312                	fld	ft6,256(sp)
     670:	5801                	li	a6,-32
     672:	0600                	addi	s0,sp,768
     674:	0cd8                	addi	a4,sp,596
     676:	8000                	.insn	2, 0x8000
     678:	0000                	unimp
     67a:	0000                	unimp
     67c:	0004                	.insn	2, 0x0004
     67e:	045b0123          	sb	t0,66(s6)
     682:	a3043423          	sd	a6,-1496(s0)
     686:	5b01                	li	s6,-32
     688:	009f ea06 000c      	.insn	6, 0x000cea06009f
     68e:	0080                	addi	s0,sp,64
     690:	0000                	unimp
     692:	0400                	addi	s0,sp,512
     694:	1e00                	addi	s0,sp,816
     696:	5801                	li	a6,-32
     698:	1e04                	addi	s1,sp,816
     69a:	0422                	slli	s0,s0,0x8
     69c:	9f5a01a3          	sb	s5,-1565(s4)
     6a0:	0600                	addi	s0,sp,768
     6a2:	0cb2                	slli	s9,s9,0xc
     6a4:	8000                	.insn	2, 0x8000
     6a6:	0000                	unimp
     6a8:	0000                	unimp
     6aa:	0004                	.insn	2, 0x0004
     6ac:	011d                	addi	sp,sp,7
     6ae:	045a                	slli	s0,s0,0x16
     6b0:	261d                	addiw	a2,a2,7
     6b2:	a304                	fsd	fs1,0(a4)
     6b4:	5a01                	li	s4,-32
     6b6:	009f b206 000a      	.insn	6, 0x000ab206009f
     6bc:	0080                	addi	s0,sp,64
     6be:	0000                	unimp
     6c0:	0400                	addi	s0,sp,512
     6c2:	2000                	fld	fs0,0(s0)
     6c4:	5a01                	li	s4,-32
     6c6:	d004                	sw	s1,32(s0)
     6c8:	ee01                	bnez	a2,6e0 <_start-0x7ffff920>
     6ca:	0501                	addi	a0,a0,0 # 0 <_start-0x80000000>
     6cc:	007a                	c.slli	zero,0x1e
     6ce:	254c                	fld	fa1,136(a0)
     6d0:	049f 03c0 03da      	.insn	6, 0x03da03c0049f
     6d6:	5c01                	li	s8,-32
     6d8:	da04                	sw	s1,48(a2)
     6da:	0503e203          	lwu	tp,80(t2)
     6de:	007c                	addi	a5,sp,12
     6e0:	2534                	fld	fa3,72(a0)
     6e2:	049f 03e2 0480      	.insn	6, 0x048003e2049f
     6e8:	7a08                	ld	a0,48(a2)
     6ea:	0800                	addi	s0,sp,16
     6ec:	253c                	fld	fa5,72(a0)
     6ee:	2534                	fld	fa3,72(a0)
     6f0:	009f b206 000a      	.insn	6, 0x000ab206009f
     6f6:	0080                	addi	s0,sp,64
     6f8:	0000                	unimp
     6fa:	0400                	addi	s0,sp,512
     6fc:	2000                	fld	fs0,0(s0)
     6fe:	3002                	fld	ft0,32(sp)
     700:	049f 3e20 3102      	.insn	6, 0x31023e20049f
     706:	049f 5c3e 3202      	.insn	6, 0x32025c3e049f
     70c:	049f 7a5c 3302      	.insn	6, 0x33027a5c049f
     712:	049f 987a 0201      	.insn	6, 0x0201987a049f
     718:	9f34                	.insn	2, 0x9f34
     71a:	9804                	.insn	2, 0x9804
     71c:	b601                	j	21c <_start-0x7ffffde4>
     71e:	0201                	addi	tp,tp,0 # 0 <_start-0x80000000>
     720:	9f35                	addw	a4,a4,a3
     722:	b604                	fsd	fs1,40(a2)
     724:	d001                	beqz	s0,624 <_start-0x7ffff9dc>
     726:	0201                	addi	tp,tp,0 # 0 <_start-0x80000000>
     728:	9f36                	add	t5,t5,a3
     72a:	d004                	sw	s1,32(s0)
     72c:	ee01                	bnez	a2,744 <_start-0x7ffff8bc>
     72e:	0201                	addi	tp,tp,0 # 0 <_start-0x80000000>
     730:	ee049f37          	lui	t5,0xee049
     734:	8c01                	sub	s0,s0,s0
     736:	0202                	c.slli64	tp
     738:	9f38                	.insn	2, 0x9f38
     73a:	8c04                	.insn	2, 0x8c04
     73c:	aa02                	fsd	ft0,272(sp)
     73e:	0202                	c.slli64	tp
     740:	9f39                	addw	a4,a4,a4
     742:	aa04                	fsd	fs1,16(a2)
     744:	c802                	sw	zero,16(sp)
     746:	0202                	c.slli64	tp
     748:	9f3a                	add	t5,t5,a4
     74a:	c804                	sw	s1,16(s0)
     74c:	e602                	sd	zero,264(sp)
     74e:	0202                	c.slli64	tp
     750:	e6049f3b          	.insn	4, 0xe6049f3b
     754:	8402                	jr	s0
     756:	9f3c0203          	lb	tp,-1549(s8)
     75a:	8404                	.insn	2, 0x8404
     75c:	0203a203          	lw	tp,32(t2)
     760:	9f3d                	addw	a4,a4,a5
     762:	a204                	fsd	fs1,0(a2)
     764:	0203c003          	lbu	zero,32(t2)
     768:	9f3e                	add	t5,t5,a5
     76a:	c004                	sw	s1,0(s0)
     76c:	0203da03          	lhu	s4,32(t2)
     770:	da049f3f 02048003 	.insn	8, 0x02048003da049f3f
     778:	9f40                	.insn	2, 0x9f40
     77a:	0600                	addi	s0,sp,768
     77c:	0c90                	addi	a2,sp,592
     77e:	8000                	.insn	2, 0x8000
     780:	0000                	unimp
     782:	0000                	unimp
     784:	0004                	.insn	2, 0x0004
     786:	0304                	addi	s1,sp,384
     788:	6891                	lui	a7,0x4
     78a:	049f 0804 5c01      	.insn	6, 0x5c010804049f
     790:	0804                	addi	s1,sp,16
     792:	0320                	addi	s0,sp,392
     794:	6891                	lui	a7,0x4
     796:	049f 2220 7203      	.insn	6, 0x72032220049f
     79c:	9f68                	.insn	2, 0x9f68
     79e:	0600                	addi	s0,sp,768
     7a0:	0c90                	addi	a2,sp,592
     7a2:	8000                	.insn	2, 0x8000
     7a4:	0000                	unimp
     7a6:	0000                	unimp
     7a8:	0004                	.insn	2, 0x0004
     7aa:	0304                	addi	s1,sp,384
     7ac:	6891                	lui	a7,0x4
     7ae:	049f 2204 5c01      	.insn	6, 0x5c012204049f
     7b4:	0800                	addi	s0,sp,16
     7b6:	0c9a                	slli	s9,s9,0x6
     7b8:	8000                	.insn	2, 0x8000
     7ba:	0000                	unimp
     7bc:	0000                	unimp
     7be:	010e                	slli	sp,sp,0x3
     7c0:	005d                	c.nop	23
     7c2:	c406                	sw	ra,8(sp)
     7c4:	0080000f          	fence	unknown,i
     7c8:	0000                	unimp
     7ca:	0400                	addi	s0,sp,512
     7cc:	2200                	fld	fs0,0(a2)
     7ce:	5a01                	li	s4,-32
     7d0:	2204                	fld	fs1,0(a2)
     7d2:	00ee                	slli	ra,ra,0x1b
     7d4:	5901                	li	s2,-32
     7d6:	ee04                	sd	s1,24(a2)
     7d8:	da00                	sw	s0,48(a2)
     7da:	0401                	addi	s0,s0,0
     7dc:	9f5a01a3          	sb	s5,-1565(s4)
     7e0:	0600                	addi	s0,sp,768
     7e2:	0fc4                	addi	s1,sp,980
     7e4:	8000                	.insn	2, 0x8000
     7e6:	0000                	unimp
     7e8:	0000                	unimp
     7ea:	0004                	.insn	2, 0x0004
     7ec:	0124                	addi	s1,sp,136
     7ee:	e424045b          	.insn	4, 0xe424045b
     7f2:	0100                	addi	s0,sp,128
     7f4:	0462                	slli	s0,s0,0x18
     7f6:	00e4                	addi	s1,sp,76
     7f8:	01da                	slli	gp,gp,0x16
     7fa:	a304                	fsd	fs1,0(a4)
     7fc:	5b01                	li	s6,-32
     7fe:	009f 3206 0010      	.insn	6, 0x00103206009f
     804:	0080                	addi	s0,sp,64
     806:	0000                	unimp
     808:	0400                	addi	s0,sp,512
     80a:	0800                	addi	s0,sp,16
     80c:	5801                	li	a6,-32
     80e:	0804                	addi	s1,sp,16
     810:	014a                	slli	sp,sp,0x12
     812:	66500463          	beq	zero,t0,e7a <_start-0x7ffff186>
     816:	5801                	li	a6,-32
     818:	6604                	ld	s1,8(a2)
     81a:	016c                	addi	a1,sp,140
     81c:	32060063          	beqz	a2,b3c <_start-0x7ffff4c4>
     820:	0010                	.insn	2, 0x0010
     822:	0080                	addi	s0,sp,64
     824:	0000                	unimp
     826:	0400                	addi	s0,sp,512
     828:	0200                	addi	s0,sp,256
     82a:	3002                	fld	ft0,32(sp)
     82c:	049f 1e02 3102      	.insn	6, 0x31021e02049f
     832:	049f 4a1e 3202      	.insn	6, 0x32024a1e049f
     838:	049f 6650 3002      	.insn	6, 0x30026650049f
     83e:	049f 6c66 3102      	.insn	6, 0x31026c66049f
     844:	009f d608 000f      	.insn	6, 0x000fd608009f
     84a:	0080                	addi	s0,sp,64
     84c:	0000                	unimp
     84e:	3400                	fld	fs0,40(s0)
     850:	6401                	.insn	2, 0x6401
     852:	0800                	addi	s0,sp,16
     854:	1000                	addi	s0,sp,32
     856:	8000                	.insn	2, 0x8000
     858:	0000                	unimp
     85a:	0000                	unimp
     85c:	0109                	addi	sp,sp,2
     85e:	005c                	addi	a5,sp,4
     860:	5406                	lw	s0,96(sp)
     862:	0010                	.insn	2, 0x0010
     864:	0080                	addi	s0,sp,64
     866:	0000                	unimp
     868:	0400                	addi	s0,sp,512
     86a:	1200                	addi	s0,sp,288
     86c:	5801                	li	a6,-32
     86e:	1204                	addi	s1,sp,288
     870:	0128                	addi	a0,sp,136
     872:	005d                	c.nop	23
     874:	6808                	ld	a0,16(s0)
     876:	0010                	.insn	2, 0x0010
     878:	0080                	addi	s0,sp,64
     87a:	0000                	unimp
     87c:	0e00                	addi	s0,sp,784
     87e:	5c01                	li	s8,-32
     880:	0800                	addi	s0,sp,16
     882:	1068                	addi	a0,sp,44
     884:	8000                	.insn	2, 0x8000
     886:	0000                	unimp
     888:	0000                	unimp
     88a:	0414                	addi	a3,sp,512
     88c:	4840                	lw	s0,20(s0)
     88e:	9f24                	.insn	2, 0x9f24
     890:	0800                	addi	s0,sp,16
     892:	1068                	addi	a0,sp,44
     894:	8000                	.insn	2, 0x8000
     896:	0000                	unimp
     898:	0000                	unimp
     89a:	0614                	addi	a3,sp,768
     89c:	050c                	addi	a1,sp,640
     89e:	0000                	unimp
     8a0:	9f10                	.insn	2, 0x9f10
     8a2:	0800                	addi	s0,sp,16
     8a4:	107c                	addi	a5,sp,44
     8a6:	8000                	.insn	2, 0x8000
     8a8:	0000                	unimp
     8aa:	0000                	unimp
     8ac:	0106                	slli	sp,sp,0x1
     8ae:	0059                	c.nop	22
     8b0:	4e06                	lw	t3,64(sp)
     8b2:	00800013          	li	zero,8
     8b6:	0000                	unimp
     8b8:	0400                	addi	s0,sp,512
     8ba:	2e00                	fld	fs0,24(a2)
     8bc:	5a01                	li	s4,-32
     8be:	2e04                	fld	fs1,24(a2)
     8c0:	0430                	addi	a2,sp,520
     8c2:	9f5a01a3          	sb	s5,-1565(s4)
     8c6:	0600                	addi	s0,sp,768
     8c8:	134e                	slli	t1,t1,0x33
     8ca:	8000                	.insn	2, 0x8000
     8cc:	0000                	unimp
     8ce:	0000                	unimp
     8d0:	0004                	.insn	2, 0x0004
     8d2:	0116                	slli	sp,sp,0x5
     8d4:	3016045b          	.insn	4, 0x3016045b
     8d8:	a304                	fsd	fs1,0(a4)
     8da:	5b01                	li	s6,-32
     8dc:	009f 4e08 0013      	.insn	6, 0x00134e08009f
     8e2:	0080                	addi	s0,sp,64
     8e4:	0000                	unimp
     8e6:	2c00                	fld	fs0,24(s0)
     8e8:	030a                	slli	t1,t1,0x2
     8ea:	2090                	fld	fa2,0(s1)
     8ec:	8000                	.insn	2, 0x8000
     8ee:	0000                	unimp
     8f0:	0000                	unimp
     8f2:	009f 4e06 0013      	.insn	6, 0x00134e06009f
     8f8:	0080                	addi	s0,sp,64
     8fa:	0000                	unimp
     8fc:	0400                	addi	s0,sp,512
     8fe:	1600                	addi	s0,sp,800
     900:	030a                	slli	t1,t1,0x2
     902:	2090                	fld	fa2,0(s1)
     904:	8000                	.insn	2, 0x8000
     906:	0000                	unimp
     908:	0000                	unimp
     90a:	049f 2c16 5d01      	.insn	6, 0x5d012c16049f
     910:	0800                	addi	s0,sp,16
     912:	1366                	slli	t1,t1,0x39
     914:	8000                	.insn	2, 0x8000
     916:	0000                	unimp
     918:	0000                	unimp
     91a:	010e                	slli	sp,sp,0x3
     91c:	005c                	addi	a5,sp,4
     91e:	8206                	mv	tp,ra
     920:	000a                	c.slli	zero,0x2
     922:	0080                	addi	s0,sp,64
     924:	0000                	unimp
     926:	0400                	addi	s0,sp,512
     928:	1000                	addi	s0,sp,32
     92a:	5a01                	li	s4,-32
     92c:	1004                	addi	s1,sp,32
     92e:	042a                	slli	s0,s0,0xa
     930:	9f5a01a3          	sb	s5,-1565(s4)
     934:	0600                	addi	s0,sp,768
     936:	0a82                	c.slli64	s5
     938:	8000                	.insn	2, 0x8000
     93a:	0000                	unimp
     93c:	0000                	unimp
     93e:	0004                	.insn	2, 0x0004
     940:	0110                	addi	a2,sp,128
     942:	045a                	slli	s0,s0,0x16
     944:	2610                	fld	fa2,8(a2)
     946:	a304                	fsd	fs1,0(a4)
     948:	5a01                	li	s4,-32
     94a:	009f 8208 000a      	.insn	6, 0x000a8208009f
     950:	0080                	addi	s0,sp,64
     952:	0000                	unimp
     954:	2600                	fld	fs0,8(a2)
     956:	5a01                	li	s4,-32
     958:	0800                	addi	s0,sp,16
     95a:	0a94                	addi	a3,sp,336
     95c:	8000                	.insn	2, 0x8000
     95e:	0000                	unimp
     960:	0000                	unimp
     962:	010e                	slli	sp,sp,0x3
     964:	005d                	c.nop	23
     966:	9408                	.insn	2, 0x9408
     968:	000a                	c.slli	zero,0x2
     96a:	0080                	addi	s0,sp,64
     96c:	0000                	unimp
     96e:	1400                	addi	s0,sp,544
     970:	4004                	lw	s1,0(s0)
     972:	2448                	fld	fa0,136(s0)
     974:	009f 9408 000a      	.insn	6, 0x000a9408009f
     97a:	0080                	addi	s0,sp,64
     97c:	0000                	unimp
     97e:	1400                	addi	s0,sp,544
     980:	0c06                	slli	s8,s8,0x1
     982:	0005                	c.nop	1
     984:	1000                	addi	s0,sp,32
     986:	009f e806 0009      	.insn	6, 0x0009e806009f
     98c:	0080                	addi	s0,sp,64
     98e:	0000                	unimp
     990:	0400                	addi	s0,sp,512
     992:	0a00                	addi	s0,sp,272
     994:	3002                	fld	ft0,32(sp)
     996:	049f 100a 3102      	.insn	6, 0x3102100a049f
     99c:	049f 1410 3202      	.insn	6, 0x32021410049f
     9a2:	049f 2214 3002      	.insn	6, 0x30022214049f
     9a8:	049f 3622 3102      	.insn	6, 0x31023622049f
     9ae:	049f 3a36 3202      	.insn	6, 0x32023a36049f
     9b4:	009f ec06 0009      	.insn	6, 0x0009ec06009f
     9ba:	0080                	addi	s0,sp,64
     9bc:	0000                	unimp
     9be:	0400                	addi	s0,sp,512
     9c0:	0c00                	addi	s0,sp,528
     9c2:	5e01                	li	t3,-32
     9c4:	0c04                	addi	s1,sp,528
     9c6:	0910                	addi	a2,sp,144
     9c8:	0023b803          	ld	a6,2(t2)
     9cc:	0080                	addi	s0,sp,64
     9ce:	0000                	unimp
     9d0:	0400                	addi	s0,sp,512
     9d2:	2410                	fld	fa2,8(s0)
     9d4:	5e01                	li	t3,-32
     9d6:	2404                	fld	fs1,8(s0)
     9d8:	0936                	slli	s2,s2,0xd
     9da:	0023b803          	ld	a6,2(t2)
     9de:	0080                	addi	s0,sp,64
     9e0:	0000                	unimp
     9e2:	0000                	unimp
     9e4:	ec06                	sd	ra,24(sp)
     9e6:	0009                	c.nop	2
     9e8:	0080                	addi	s0,sp,64
     9ea:	0000                	unimp
     9ec:	0400                	addi	s0,sp,512
     9ee:	0c00                	addi	s0,sp,528
     9f0:	5e01                	li	t3,-32
     9f2:	0c04                	addi	s1,sp,528
     9f4:	0910                	addi	a2,sp,144
     9f6:	0023b803          	ld	a6,2(t2)
     9fa:	0080                	addi	s0,sp,64
     9fc:	0000                	unimp
     9fe:	0400                	addi	s0,sp,512
     a00:	1e10                	addi	a2,sp,816
     a02:	5e01                	li	t3,-32
     a04:	0600                	addi	s0,sp,768
     a06:	09f8                	addi	a4,sp,220
     a08:	8000                	.insn	2, 0x8000
     a0a:	0000                	unimp
     a0c:	0000                	unimp
     a0e:	0004                	.insn	2, 0x0004
     a10:	0104                	addi	s1,sp,128
     a12:	045e                	slli	s0,s0,0x17
     a14:	2a18                	fld	fa4,16(a2)
     a16:	5e01                	li	t3,-32
     a18:	0600                	addi	s0,sp,768
     a1a:	09f8                	addi	a4,sp,220
     a1c:	8000                	.insn	2, 0x8000
     a1e:	0000                	unimp
     a20:	0000                	unimp
     a22:	0004                	.insn	2, 0x0004
     a24:	0104                	addi	s1,sp,128
     a26:	045e                	slli	s0,s0,0x17
     a28:	2618                	fld	fa4,8(a2)
     a2a:	5e01                	li	t3,-32
     a2c:	0600                	addi	s0,sp,768
     a2e:	0230                	addi	a2,sp,264
     a30:	8000                	.insn	2, 0x8000
     a32:	0000                	unimp
     a34:	0000                	unimp
     a36:	0004                	.insn	2, 0x0004
     a38:	0108                	addi	a0,sp,128
     a3a:	045a                	slli	s0,s0,0x16
     a3c:	2008                	fld	fa0,0(s0)
     a3e:	a304                	fsd	fs1,0(a4)
     a40:	5a01                	li	s4,-32
     a42:	009f 3808 0002      	.insn	6, 0x00023808009f
     a48:	0080                	addi	s0,sp,64
     a4a:	0000                	unimp
     a4c:	1400                	addi	s0,sp,544
     a4e:	5a01                	li	s4,-32
     a50:	0600                	addi	s0,sp,768
     a52:	025e                	slli	tp,tp,0x17
     a54:	8000                	.insn	2, 0x8000
     a56:	0000                	unimp
     a58:	0000                	unimp
     a5a:	0004                	.insn	2, 0x0004
     a5c:	0116                	slli	sp,sp,0x5
     a5e:	3416045b          	.insn	4, 0x3416045b
     a62:	5b01                	li	s6,-32
     a64:	3404                	fld	fs1,40(s0)
     a66:	0140                	addi	s0,sp,132
     a68:	0461                	addi	s0,s0,24
     a6a:	4c40                	lw	s0,28(s0)
     a6c:	5d01                	li	s10,-32
     a6e:	4c04                	lw	s1,24(s0)
     a70:	0166                	slli	sp,sp,0x19
     a72:	6a66045b          	.insn	4, 0x6a66045b
     a76:	5d01                	li	s10,-32
     a78:	6a04                	ld	s1,16(a2)
     a7a:	00fe                	slli	ra,ra,0x1f
     a7c:	5b01                	li	s6,-32
     a7e:	8804                	.insn	2, 0x8804
     a80:	a401                	j	c80 <_start-0x7ffff380>
     a82:	0101                	addi	sp,sp,0
     a84:	01a4045b          	.insn	4, 0x01a4045b
     a88:	01d4                	addi	a3,sp,196
     a8a:	5d01                	li	s10,-32
     a8c:	d404                	sw	s1,40(s0)
     a8e:	9201                	srli	a2,a2,0x20
     a90:	0106                	slli	sp,sp,0x1
     a92:	5e06005b          	.insn	4, 0x5e06005b
     a96:	0002                	c.slli64	zero
     a98:	0080                	addi	s0,sp,64
     a9a:	0000                	unimp
     a9c:	0400                	addi	s0,sp,512
     a9e:	ee00                	sd	s0,24(a2)
     aa0:	0101                	addi	sp,sp,0
     aa2:	045c                	addi	a5,sp,516
     aa4:	01ee                	slli	gp,gp,0x1b
     aa6:	01f8                	addi	a4,sp,204
     aa8:	9f087c03          	.insn	4, 0x9f087c03
     aac:	f804                	sd	s1,48(s0)
     aae:	a201                	j	bae <_start-0x7ffff452>
     ab0:	0102                	c.slli64	sp
     ab2:	045c                	addi	a5,sp,516
     ab4:	02a2                	slli	t0,t0,0x8
     ab6:	02a6                	slli	t0,t0,0x9
     ab8:	5d01                	li	s10,-32
     aba:	a604                	fsd	fs1,8(a2)
     abc:	a402                	fsd	ft0,8(sp)
     abe:	045c0103          	lb	sp,69(s8)
     ac2:	03a4                	addi	s1,sp,456
     ac4:	03a6                	slli	t2,t2,0x9
     ac6:	9f087c03          	.insn	4, 0x9f087c03
     aca:	a604                	fsd	fs1,8(a2)
     acc:	0103b203          	ld	tp,16(t2)
     ad0:	045d                	addi	s0,s0,23
     ad2:	03b2                	slli	t2,t2,0xc
     ad4:	03ce                	slli	t2,t2,0x13
     ad6:	5c01                	li	s8,-32
     ad8:	ce04                	sw	s1,24(a2)
     ada:	0103d603          	lhu	a2,16(t2)
     ade:	045d                	addi	s0,s0,23
     ae0:	03d6                	slli	t2,t2,0x15
     ae2:	05a2                	slli	a1,a1,0x8
     ae4:	9f087c03          	.insn	4, 0x9f087c03
     ae8:	a204                	fsd	fs1,0(a2)
     aea:	a405                	j	d0a <_start-0x7ffff2f6>
     aec:	0105                	addi	sp,sp,1
     aee:	045c                	addi	a5,sp,516
     af0:	05a4                	addi	s1,sp,712
     af2:	05c4                	addi	s1,sp,708
     af4:	9f087c03          	.insn	4, 0x9f087c03
     af8:	c404                	sw	s1,8(s0)
     afa:	d805                	beqz	s0,a2a <_start-0x7ffff5d6>
     afc:	0105                	addi	sp,sp,1
     afe:	045c                	addi	a5,sp,516
     b00:	05d8                	addi	a4,sp,708
     b02:	05de                	slli	a1,a1,0x17
     b04:	9f087c03          	.insn	4, 0x9f087c03
     b08:	de04                	sw	s1,56(a2)
     b0a:	ee05                	bnez	a2,b42 <_start-0x7ffff4be>
     b0c:	0105                	addi	sp,sp,1
     b0e:	045c                	addi	a5,sp,516
     b10:	05ee                	slli	a1,a1,0x1b
     b12:	05f2                	slli	a1,a1,0x1c
     b14:	9f087c03          	.insn	4, 0x9f087c03
     b18:	f204                	sd	s1,32(a2)
     b1a:	fa05                	bnez	a2,a4a <_start-0x7ffff5b6>
     b1c:	0105                	addi	sp,sp,1
     b1e:	045c                	addi	a5,sp,516
     b20:	05fa                	slli	a1,a1,0x1e
     b22:	0692                	slli	a3,a3,0x4
     b24:	5d01                	li	s10,-32
     b26:	0600                	addi	s0,sp,768
     b28:	0438                	addi	a4,sp,520
     b2a:	8000                	.insn	2, 0x8000
     b2c:	0000                	unimp
     b2e:	0000                	unimp
     b30:	0004                	.insn	2, 0x0004
     b32:	0114                	addi	a3,sp,128
     b34:	045d                	addi	s0,s0,23
     b36:	3814                	fld	fa3,48(s0)
     b38:	030a                	slli	t1,t1,0x2
     b3a:	2068                	fld	fa0,192(s0)
     b3c:	8000                	.insn	2, 0x8000
     b3e:	0000                	unimp
     b40:	0000                	unimp
     b42:	049f 8c6c 0101      	.insn	6, 0x01018c6c049f
     b48:	045d                	addi	s0,s0,23
     b4a:	018c                	addi	a1,sp,192
     b4c:	019a                	slli	gp,gp,0x6
     b4e:	5e01                	li	t3,-32
     b50:	9a04                	.insn	2, 0x9a04
     b52:	9e01                	subw	a2,a2,s0
     b54:	0301                	addi	t1,t1,0
     b56:	7f7e                	ld	t5,504(sp)
     b58:	049f 019e 01ac      	.insn	6, 0x01ac019e049f
     b5e:	5e01                	li	t3,-32
     b60:	e204                	sd	s1,0(a2)
     b62:	ea01                	bnez	a2,b72 <_start-0x7ffff48e>
     b64:	0101                	addi	sp,sp,0
     b66:	005d                	c.nop	23
     b68:	9206                	add	tp,tp,ra
     b6a:	0002                	c.slli64	zero
     b6c:	0080                	addi	s0,sp,64
     b6e:	0000                	unimp
     b70:	0400                	addi	s0,sp,512
     b72:	2600                	fld	fs0,8(a2)
     b74:	6101                	addi	sp,sp,0
     b76:	2a04                	fld	fs1,16(a2)
     b78:	01e0                	addi	s0,sp,204
     b7a:	6101                	addi	sp,sp,0
     b7c:	e204                	sd	s1,0(a2)
     b7e:	e402                	sd	zero,8(sp)
     b80:	04610103          	lb	sp,70(sp)
     b84:	0590                	addi	a2,sp,704
     b86:	05b6                	slli	a1,a1,0xd
     b88:	6101                	addi	sp,sp,0
     b8a:	ba04                	fsd	fs1,48(a2)
     b8c:	de05                	beqz	a2,ac4 <_start-0x7ffff53c>
     b8e:	0105                	addi	sp,sp,1
     b90:	0061                	c.nop	24
     b92:	6e06                	ld	t3,64(sp)
     b94:	0002                	c.slli64	zero
     b96:	0080                	addi	s0,sp,64
     b98:	0000                	unimp
     b9a:	0400                	addi	s0,sp,512
     b9c:	0400                	addi	s0,sp,512
     b9e:	5e01                	li	t3,-32
     ba0:	0404                	addi	s1,sp,512
     ba2:	010c                	addi	a1,sp,128
     ba4:	045f 2618 5e01      	.insn	6, 0x5e012618045f
     baa:	2604                	fld	fs1,8(a2)
     bac:	0130                	addi	a2,sp,136
     bae:	045f 403c 8006      	.insn	6, 0x8006403c045f
     bb4:	0800                	addi	s0,sp,16
     bb6:	049f1aff 5e014e4a 	.insn	12, 0x06665a045e014e4a049f1aff
     bbe:	06665a04 
     bc2:	0080                	addi	s0,sp,64
     bc4:	ff08                	sd	a0,56(a4)
     bc6:	9f1a                	add	t5,t5,t1
     bc8:	9004                	.insn	2, 0x9004
     bca:	ba01                	j	4da <_start-0x7ffffb26>
     bcc:	0101                	addi	sp,sp,0
     bce:	03da0457          	.insn	4, 0x03da0457
     bd2:	03de                	slli	t2,t2,0x17
     bd4:	7f06                	ld	t5,96(sp)
     bd6:	0800                	addi	s0,sp,16
     bd8:	049f1aff 04d004ba 	.insn	12, 0x08007f0604d004ba049f1aff
     be0:	08007f06 
     be4:	049f1aff 04d204d0 	.insn	12, 0x94007e0804d204d0049f1aff
     bec:	94007e08 
     bf0:	0801                	addi	a6,a6,0
     bf2:	049f1aff 04f604da 	.insn	12, 0x08007d0604f604da049f1aff
     bfa:	08007d06 
     bfe:	049f1aff 05b405b0 	.insn	12, 0x08007f0605b405b0049f1aff
     c06:	08007f06 
     c0a:	009f1aff 00038406 	.insn	12, 0x008000038406009f1aff
     c12:	00000080 
     c16:	0400                	addi	s0,sp,512
     c18:	1000                	addi	s0,sp,32
     c1a:	5e01                	li	t3,-32
     c1c:	8004                	.insn	2, 0x8004
     c1e:	8c01                	sub	s0,s0,s0
     c20:	0101                	addi	sp,sp,0
     c22:	045e                	slli	s0,s0,0x17
     c24:	03c4                	addi	s1,sp,452
     c26:	03c8                	addi	a0,sp,452
     c28:	5e01                	li	t3,-32
     c2a:	d404                	sw	s1,40(s0)
     c2c:	0103e203          	lwu	tp,16(t2)
     c30:	045e                	slli	s0,s0,0x17
     c32:	03e2                	slli	t2,t2,0x18
     c34:	03e8                	addi	a0,sp,460
     c36:	7e04                	ld	s1,56(a2)
     c38:	1f00                	addi	s0,sp,944
     c3a:	049f 03e8 03ec      	.insn	6, 0x03ec03e8049f
     c40:	5e01                	li	t3,-32
     c42:	0600                	addi	s0,sp,768
     c44:	0292                	slli	t0,t0,0x4
     c46:	8000                	.insn	2, 0x8000
     c48:	0000                	unimp
     c4a:	0000                	unimp
     c4c:	0004                	.insn	2, 0x0004
     c4e:	020c                	addi	a1,sp,256
     c50:	9f30                	.insn	2, 0x9f30
     c52:	0c04                	addi	s1,sp,528
     c54:	0126                	slli	sp,sp,0x9
     c56:	046e                	slli	s0,s0,0x1b
     c58:	c62a                	sw	a0,12(sp)
     c5a:	0101                	addi	sp,sp,0
     c5c:	046e                	slli	s0,s0,0x1b
     c5e:	01c6                	slli	gp,gp,0x11
     c60:	01ee                	slli	gp,gp,0x1b
     c62:	3102                	fld	ft2,32(sp)
     c64:	049f 02e2 05b6      	.insn	6, 0x05b602e2049f
     c6a:	6e01                	.insn	2, 0x6e01
     c6c:	ba04                	fsd	fs1,48(a2)
     c6e:	de05                	beqz	a2,ba6 <_start-0x7ffff45a>
     c70:	0105                	addi	sp,sp,1
     c72:	006e                	c.slli	zero,0x1b
     c74:	9206                	add	tp,tp,ra
     c76:	0002                	c.slli64	zero
     c78:	0080                	addi	s0,sp,64
     c7a:	0000                	unimp
     c7c:	0400                	addi	s0,sp,512
     c7e:	0c00                	addi	s0,sp,528
     c80:	9fff0903          	lb	s2,-1537(t5) # ffffffffee0489ff <__global_pointer$+0xffffffff6e0461b7>
     c84:	8e04                	.insn	2, 0x8e04
     c86:	9204                	.insn	2, 0x9204
     c88:	0104                	addi	s1,sp,128
     c8a:	0492046f          	jal	s0,214d2 <_start-0x7ffdeb2e>
     c8e:	0498                	addi	a4,sp,576
     c90:	3002                	fld	ft0,32(sp)
     c92:	049f 04b2 04b8      	.insn	6, 0x04b804b2049f
     c98:	6f01                	.insn	2, 0x6f01
     c9a:	b804                	fsd	fs1,48(s0)
     c9c:	c004                	sw	s1,0(s0)
     c9e:	0904                	addi	s1,sp,144
     ca0:	0080                	addi	s0,sp,64
     ca2:	007e                	c.slli	zero,0x1f
     ca4:	8f1c                	.insn	2, 0x8f1c
     ca6:	2200                	fld	fs0,0(a2)
     ca8:	049f 04c4 04ce      	.insn	6, 0x04ce04c4049f
     cae:	8009                	srli	s0,s0,0x2
     cb0:	7e00                	ld	s0,56(a2)
     cb2:	1c00                	addi	s0,sp,560
     cb4:	9f22008f          	.insn	4, 0x9f22008f
     cb8:	e804                	sd	s1,16(s0)
     cba:	ec04                	sd	s1,24(s0)
     cbc:	0104                	addi	s1,sp,128
     cbe:	0588046f          	jal	s0,80d16 <_start-0x7ff7f2ea>
     cc2:	0590                	addi	a2,sp,704
     cc4:	6f01                	.insn	2, 0x6f01
     cc6:	0600                	addi	s0,sp,768
     cc8:	0292                	slli	t0,t0,0x4
     cca:	8000                	.insn	2, 0x8000
     ccc:	0000                	unimp
     cce:	0000                	unimp
     cd0:	0004                	.insn	2, 0x0004
     cd2:	030c                	addi	a1,sp,384
     cd4:	ff09                	bnez	a4,bee <_start-0x7ffff412>
     cd6:	049f 5c58 3002      	.insn	6, 0x30025c58049f
     cdc:	049f 705c 5e01      	.insn	6, 0x5e01705c049f
     ce2:	8c04                	.insn	2, 0x8c04
     ce4:	9401                	srai	s0,s0,0x20
     ce6:	0101                	addi	sp,sp,0
     ce8:	045e                	slli	s0,s0,0x17
     cea:	019c                	addi	a5,sp,192
     cec:	01a0                	addi	s0,sp,200
     cee:	9fff0903          	lb	s2,-1537(t5)
     cf2:	f204                	sd	s1,32(a2)
     cf4:	9004                	.insn	2, 0x9004
     cf6:	0105                	addi	sp,sp,1
     cf8:	005e                	c.slli	zero,0x17
     cfa:	9206                	add	tp,tp,ra
     cfc:	0002                	c.slli64	zero
     cfe:	0080                	addi	s0,sp,64
     d00:	0000                	unimp
     d02:	0400                	addi	s0,sp,512
     d04:	0c00                	addi	s0,sp,528
     d06:	3002                	fld	ft0,32(sp)
     d08:	049f 01a0 01a8      	.insn	6, 0x01a801a0049f
     d0e:	3102                	fld	ft2,32(sp)
     d10:	009f 9206 0002      	.insn	6, 0x00029206009f
     d16:	0080                	addi	s0,sp,64
     d18:	0000                	unimp
     d1a:	0400                	addi	s0,sp,512
     d1c:	0c00                	addi	s0,sp,528
     d1e:	9f200803          	lb	a6,-1550(zero) # fffffffffffff9f2 <__global_pointer$+0xffffffff7fffd1aa>
     d22:	0c04                	addi	s1,sp,528
     d24:	0126                	slli	sp,sp,0x9
     d26:	0455                	addi	s0,s0,21
     d28:	322a                	fld	ft4,168(sp)
     d2a:	9f300803          	lb	a6,-1549(zero) # fffffffffffff9f3 <__global_pointer$+0xffffffff7fffd1ab>
     d2e:	3204                	fld	fs1,32(a2)
     d30:	05de                	slli	a1,a1,0x17
     d32:	5501                	li	a0,-32
     d34:	0800                	addi	s0,sp,16
     d36:	0274                	addi	a3,sp,268
     d38:	8000                	.insn	2, 0x8000
     d3a:	0000                	unimp
     d3c:	0000                	unimp
     d3e:	0106                	slli	sp,sp,0x1
     d40:	005f 7408 0002      	.insn	6, 0x00027408005f
     d46:	0080                	addi	s0,sp,64
     d48:	0000                	unimp
     d4a:	0a00                	addi	s0,sp,272
     d4c:	5a01                	li	s4,-32
     d4e:	0800                	addi	s0,sp,16
     d50:	02d4                	addi	a3,sp,324
     d52:	8000                	.insn	2, 0x8000
     d54:	0000                	unimp
     d56:	0000                	unimp
     d58:	0312                	slli	t1,t1,0x4
     d5a:	2508                	fld	fa0,8(a0)
     d5c:	009f d408 0002      	.insn	6, 0x0002d408009f
     d62:	0080                	addi	s0,sp,64
     d64:	0000                	unimp
     d66:	1200                	addi	s0,sp,288
     d68:	5a01                	li	s4,-32
     d6a:	0800                	addi	s0,sp,16
     d6c:	02d4                	addi	a3,sp,324
     d6e:	8000                	.insn	2, 0x8000
     d70:	0000                	unimp
     d72:	0000                	unimp
     d74:	0114                	addi	a3,sp,128
     d76:	005a                	c.slli	zero,0x16
     d78:	3a08                	fld	fa0,48(a2)
     d7a:	00800003          	lb	zero,8(zero) # 8 <_start-0x7ffffff8>
     d7e:	0000                	unimp
     d80:	1000                	addi	s0,sp,32
     d82:	9f250803          	lb	a6,-1550(a0)
     d86:	0800                	addi	s0,sp,16
     d88:	033a                	slli	t1,t1,0xe
     d8a:	8000                	.insn	2, 0x8000
     d8c:	0000                	unimp
     d8e:	0000                	unimp
     d90:	0110                	addi	a2,sp,128
     d92:	005a                	c.slli	zero,0x16
     d94:	3a08                	fld	fa0,48(a2)
     d96:	00800003          	lb	zero,8(zero) # 8 <_start-0x7ffffff8>
     d9a:	0000                	unimp
     d9c:	1200                	addi	s0,sp,288
     d9e:	5a01                	li	s4,-32
     da0:	0800                	addi	s0,sp,16
     da2:	0358                	addi	a4,sp,388
     da4:	8000                	.insn	2, 0x8000
     da6:	0000                	unimp
     da8:	0000                	unimp
     daa:	031e                	slli	t1,t1,0x7
     dac:	3008                	fld	fa0,32(s0)
     dae:	009f 5808 0003      	.insn	6, 0x00035808009f
     db4:	0080                	addi	s0,sp,64
     db6:	0000                	unimp
     db8:	1e00                	addi	s0,sp,816
     dba:	5a01                	li	s4,-32
     dbc:	0800                	addi	s0,sp,16
     dbe:	0358                	addi	a4,sp,388
     dc0:	8000                	.insn	2, 0x8000
     dc2:	0000                	unimp
     dc4:	0000                	unimp
     dc6:	0128                	addi	a0,sp,136
     dc8:	005a                	c.slli	zero,0x16
     dca:	7608                	ld	a0,40(a2)
     dcc:	00800003          	lb	zero,8(zero) # 8 <_start-0x7ffffff8>
     dd0:	0000                	unimp
     dd2:	0a00                	addi	s0,sp,272
     dd4:	9f780803          	lb	a6,-1545(a6)
     dd8:	0800                	addi	s0,sp,16
     dda:	0376                	slli	t1,t1,0x1d
     ddc:	8000                	.insn	2, 0x8000
     dde:	0000                	unimp
     de0:	0000                	unimp
     de2:	010a                	slli	sp,sp,0x2
     de4:	005a                	c.slli	zero,0x16
     de6:	8006                	c.mv	zero,ra
     de8:	00800003          	lb	zero,8(zero) # 8 <_start-0x7ffffff8>
     dec:	0000                	unimp
     dee:	0400                	addi	s0,sp,512
     df0:	0400                	addi	s0,sp,512
     df2:	a006                	fsd	ft1,0(sp)
     df4:	135a                	slli	t1,t1,0x36
     df6:	0000                	unimp
     df8:	0400                	addi	s0,sp,512
     dfa:	019c                	addi	a5,sp,192
     dfc:	01b4                	addi	a3,sp,200
     dfe:	a006                	fsd	ft1,0(sp)
     e00:	135a                	slli	t1,t1,0x36
     e02:	0000                	unimp
     e04:	0000                	unimp
     e06:	1c08                	addi	a0,sp,560
     e08:	0004                	.insn	2, 0x0004
     e0a:	0080                	addi	s0,sp,64
     e0c:	0000                	unimp
     e0e:	1800                	addi	s0,sp,48
     e10:	6e01                	.insn	2, 0x6e01
     e12:	0600                	addi	s0,sp,768
     e14:	0384                	addi	s1,sp,448
     e16:	8000                	.insn	2, 0x8000
     e18:	0000                	unimp
     e1a:	0000                	unimp
     e1c:	0004                	.insn	2, 0x0004
     e1e:	0170                	addi	a2,sp,140
     e20:	045a                	slli	s0,s0,0x16
     e22:	03c4                	addi	s1,sp,452
     e24:	03c8                	addi	a0,sp,452
     e26:	5a01                	li	s4,-32
     e28:	0600                	addi	s0,sp,768
     e2a:	0384                	addi	s1,sp,448
     e2c:	8000                	.insn	2, 0x8000
     e2e:	0000                	unimp
     e30:	0000                	unimp
     e32:	0004                	.insn	2, 0x0004
     e34:	012a                	slli	sp,sp,0xa
     e36:	045e                	slli	s0,s0,0x17
     e38:	03c4                	addi	s1,sp,452
     e3a:	03c8                	addi	a0,sp,452
     e3c:	5e01                	li	t3,-32
     e3e:	0600                	addi	s0,sp,768
     e40:	03ae                	slli	t2,t2,0xb
     e42:	8000                	.insn	2, 0x8000
     e44:	0000                	unimp
     e46:	0000                	unimp
     e48:	0004                	.insn	2, 0x0004
     e4a:	0110                	addi	a2,sp,128
     e4c:	045e                	slli	s0,s0,0x17
     e4e:	1814                	addi	a3,sp,48
     e50:	5e01                	li	t3,-32
     e52:	0600                	addi	s0,sp,768
     e54:	0384                	addi	s1,sp,448
     e56:	8000                	.insn	2, 0x8000
     e58:	0000                	unimp
     e5a:	0000                	unimp
     e5c:	0004                	.insn	2, 0x0004
     e5e:	0670                	addi	a2,sp,780
     e60:	0075                	c.nop	29
     e62:	ff08                	sd	a0,56(a4)
     e64:	9f1a                	add	t5,t5,t1
     e66:	c404                	sw	s1,8(s0)
     e68:	0603c803          	lbu	a6,96(t2)
     e6c:	0075                	c.nop	29
     e6e:	ff08                	sd	a0,56(a4)
     e70:	9f1a                	add	t5,t5,t1
     e72:	0600                	addi	s0,sp,768
     e74:	0384                	addi	s1,sp,448
     e76:	8000                	.insn	2, 0x8000
     e78:	0000                	unimp
     e7a:	0000                	unimp
     e7c:	0004                	.insn	2, 0x0004
     e7e:	0210                	addi	a2,sp,256
     e80:	9f31                	addw	a4,a4,a2
     e82:	1a04                	addi	s1,sp,304
     e84:	0126                	slli	sp,sp,0x9
     e86:	045d                	addi	s0,s0,23
     e88:	03c4                	addi	s1,sp,452
     e8a:	03c8                	addi	a0,sp,452
     e8c:	3102                	fld	ft2,32(sp)
     e8e:	009f b608 0003      	.insn	6, 0x0003b608009f
     e94:	0080                	addi	s0,sp,64
     e96:	0000                	unimp
     e98:	0c00                	addi	s0,sp,528
     e9a:	7506                	ld	a0,96(sp)
     e9c:	0800                	addi	s0,sp,16
     e9e:	009f1aff 0003b608 	.insn	12, 0x00800003b608009f1aff
     ea6:	00000080 
     eaa:	0c00                	addi	s0,sp,528
     eac:	5a01                	li	s4,-32
     eae:	0800                	addi	s0,sp,16
     eb0:	03b6                	slli	t2,t2,0xd
     eb2:	8000                	.insn	2, 0x8000
     eb4:	0000                	unimp
     eb6:	0000                	unimp
     eb8:	0110                	addi	a2,sp,128
     eba:	005a                	c.slli	zero,0x16
     ebc:	d406                	sw	ra,40(sp)
     ebe:	00800003          	lb	zero,8(zero) # 8 <_start-0x7ffffff8>
     ec2:	0000                	unimp
     ec4:	0400                	addi	s0,sp,512
     ec6:	0400                	addi	s0,sp,512
     ec8:	7e04                	ld	s1,56(a2)
     eca:	049f00d7          	.insn	4, 0x049f00d7
     ece:	1e1a                	slli	t3,t3,0x26
     ed0:	9f307e03          	.insn	4, 0x9f307e03
     ed4:	1e04                	addi	s1,sp,816
     ed6:	0720                	addi	s0,sp,904
     ed8:	007d                	c.nop	31
     eda:	0494                	addi	a3,sp,576
     edc:	009f3023          	sd	s1,0(t5)
     ee0:	d406                	sw	ra,40(sp)
     ee2:	00800003          	lb	zero,8(zero) # 8 <_start-0x7ffffff8>
     ee6:	0000                	unimp
     ee8:	0400                	addi	s0,sp,512
     eea:	1000                	addi	s0,sp,32
     eec:	5a01                	li	s4,-32
     eee:	1a04                	addi	s1,sp,304
     ef0:	0120                	addi	s0,sp,136
     ef2:	005a                	c.slli	zero,0x16
     ef4:	d406                	sw	ra,40(sp)
     ef6:	00800003          	lb	zero,8(zero) # 8 <_start-0x7ffffff8>
     efa:	0000                	unimp
     efc:	0400                	addi	s0,sp,512
     efe:	1400                	addi	s0,sp,544
     f00:	5a01                	li	s4,-32
     f02:	1a04                	addi	s1,sp,304
     f04:	0120                	addi	s0,sp,136
     f06:	005a                	c.slli	zero,0x16
     f08:	f406                	sd	ra,40(sp)
     f0a:	00800003          	lb	zero,8(zero) # 8 <_start-0x7ffffff8>
     f0e:	0000                	unimp
     f10:	0400                	addi	s0,sp,512
     f12:	1000                	addi	s0,sp,32
     f14:	a006                	fsd	ft1,0(sp)
     f16:	135a                	slli	t1,t1,0x36
     f18:	0000                	unimp
     f1a:	0400                	addi	s0,sp,512
     f1c:	02d8                	addi	a4,sp,324
     f1e:	02dc                	addi	a5,sp,324
     f20:	a006                	fsd	ft1,0(sp)
     f22:	135a                	slli	t1,t1,0x36
     f24:	0000                	unimp
     f26:	0000                	unimp
     f28:	f406                	sd	ra,40(sp)
     f2a:	00800003          	lb	zero,8(zero) # 8 <_start-0x7ffffff8>
     f2e:	0000                	unimp
     f30:	0400                	addi	s0,sp,512
     f32:	1000                	addi	s0,sp,32
     f34:	6e01                	.insn	2, 0x6e01
     f36:	d804                	sw	s1,48(s0)
     f38:	dc02                	sw	zero,56(sp)
     f3a:	0102                	c.slli64	sp
     f3c:	006e                	c.slli	zero,0x1b
     f3e:	3608                	fld	fa0,40(a2)
     f40:	0005                	c.nop	1
     f42:	0080                	addi	s0,sp,64
     f44:	0000                	unimp
     f46:	1000                	addi	s0,sp,32
     f48:	5a01                	li	s4,-32
     f4a:	0800                	addi	s0,sp,16
     f4c:	0536                	slli	a0,a0,0xd
     f4e:	8000                	.insn	2, 0x8000
     f50:	0000                	unimp
     f52:	0000                	unimp
     f54:	0112                	slli	sp,sp,0x4
     f56:	005a                	c.slli	zero,0x16
     f58:	7008                	ld	a0,32(s0)
     f5a:	0004                	.insn	2, 0x0004
     f5c:	0080                	addi	s0,sp,64
     f5e:	0000                	unimp
     f60:	1e00                	addi	s0,sp,816
     f62:	030a                	slli	t1,t1,0x2
     f64:	2068                	fld	fa0,192(s0)
     f66:	8000                	.insn	2, 0x8000
     f68:	0000                	unimp
     f6a:	0000                	unimp
     f6c:	009f 7008 0004      	.insn	6, 0x00047008009f
     f72:	0080                	addi	s0,sp,64
     f74:	0000                	unimp
     f76:	0a00                	addi	s0,sp,272
     f78:	9f7f7e03          	.insn	4, 0x9f7f7e03
     f7c:	0600                	addi	s0,sp,768
     f7e:	0470                	addi	a2,sp,524
     f80:	8000                	.insn	2, 0x8000
     f82:	0000                	unimp
     f84:	0000                	unimp
     f86:	0004                	.insn	2, 0x0004
     f88:	0a0a                	slli	s4,s4,0x2
     f8a:	00206803          	lwu	a6,2(zero) # 2 <_start-0x7ffffffe>
     f8e:	0080                	addi	s0,sp,64
     f90:	0000                	unimp
     f92:	9f00                	.insn	2, 0x9f00
     f94:	0a04                	addi	s1,sp,272
     f96:	011a                	slli	sp,sp,0x6
     f98:	005f 9408 0004      	.insn	6, 0x00049408005f
     f9e:	0080                	addi	s0,sp,64
     fa0:	0000                	unimp
     fa2:	0c00                	addi	s0,sp,528
     fa4:	7506                	ld	a0,96(sp)
     fa6:	0800                	addi	s0,sp,16
     fa8:	009f1aff 00049408 	.insn	12, 0x008000049408009f1aff
     fb0:	00000080 
     fb4:	0c00                	addi	s0,sp,528
     fb6:	5a01                	li	s4,-32
     fb8:	0800                	addi	s0,sp,16
     fba:	0494                	addi	a3,sp,576
     fbc:	8000                	.insn	2, 0x8000
     fbe:	0000                	unimp
     fc0:	0000                	unimp
     fc2:	0110                	addi	a2,sp,128
     fc4:	005a                	c.slli	zero,0x16
     fc6:	b006                	fsd	ft1,32(sp)
     fc8:	0004                	.insn	2, 0x0004
     fca:	0080                	addi	s0,sp,64
     fcc:	0000                	unimp
     fce:	0400                	addi	s0,sp,512
     fd0:	0e00                	addi	s0,sp,784
     fd2:	7f06                	ld	t5,96(sp)
     fd4:	0800                	addi	s0,sp,16
     fd6:	049f1aff 7e08100e 	.insn	12, 0x080194007e08100e049f1aff
     fde:	08019400 
     fe2:	049f1aff 7d06261a 	.insn	12, 0x1aff08007d06261a049f1aff
     fea:	1aff0800 
     fee:	009f b006 0004      	.insn	6, 0x0004b006009f
     ff4:	0080                	addi	s0,sp,64
     ff6:	0000                	unimp
     ff8:	0400                	addi	s0,sp,512
     ffa:	1400                	addi	s0,sp,544
     ffc:	5a01                	li	s4,-32
     ffe:	1a04                	addi	s1,sp,304
    1000:	0126                	slli	sp,sp,0x9
    1002:	045a                	slli	s0,s0,0x16
    1004:	6a58                	ld	a4,144(a2)
    1006:	5a01                	li	s4,-32
    1008:	0600                	addi	s0,sp,768
    100a:	04b0                	addi	a2,sp,584
    100c:	8000                	.insn	2, 0x8000
    100e:	0000                	unimp
    1010:	0000                	unimp
    1012:	0004                	.insn	2, 0x0004
    1014:	0134                	addi	a3,sp,136
    1016:	045a                	slli	s0,s0,0x16
    1018:	7258                	ld	a4,160(a2)
    101a:	5a01                	li	s4,-32
    101c:	0800                	addi	s0,sp,16
    101e:	04ee                	slli	s1,s1,0x1b
    1020:	8000                	.insn	2, 0x8000
    1022:	0000                	unimp
    1024:	0000                	unimp
    1026:	030c                	addi	a1,sp,384
    1028:	2008                	fld	fa0,0(s0)
    102a:	009f ee08 0004      	.insn	6, 0x0004ee08009f
    1030:	0080                	addi	s0,sp,64
    1032:	0000                	unimp
    1034:	0c00                	addi	s0,sp,528
    1036:	5a01                	li	s4,-32
    1038:	0800                	addi	s0,sp,16
    103a:	04ee                	slli	s1,s1,0x1b
    103c:	8000                	.insn	2, 0x8000
    103e:	0000                	unimp
    1040:	0000                	unimp
    1042:	0110                	addi	a2,sp,128
    1044:	005a                	c.slli	zero,0x16
    1046:	5808                	lw	a0,48(s0)
    1048:	0005                	c.nop	1
    104a:	0080                	addi	s0,sp,64
    104c:	0000                	unimp
    104e:	1400                	addi	s0,sp,544
    1050:	9f2d0803          	lb	a6,-1550(s10)
    1054:	0800                	addi	s0,sp,16
    1056:	0558                	addi	a4,sp,644
    1058:	8000                	.insn	2, 0x8000
    105a:	0000                	unimp
    105c:	0000                	unimp
    105e:	0114                	addi	a3,sp,128
    1060:	005a                	c.slli	zero,0x16
    1062:	7006                	.insn	2, 0x7006
    1064:	0005                	c.nop	1
    1066:	0080                	addi	s0,sp,64
    1068:	0000                	unimp
    106a:	0400                	addi	s0,sp,512
    106c:	1600                	addi	s0,sp,800
    106e:	5a01                	li	s4,-32
    1070:	1604                	addi	s1,sp,800
    1072:	0148                	addi	a0,sp,132
    1074:	045a                	slli	s0,s0,0x16
    1076:	6048                	ld	a0,128(s0)
    1078:	6e01                	.insn	2, 0x6e01
    107a:	6004                	ld	s1,0(s0)
    107c:	017a                	slli	sp,sp,0x1e
    107e:	045a                	slli	s0,s0,0x16
    1080:	867a                	mv	a2,t5
    1082:	0101                	addi	sp,sp,0
    1084:	045c                	addi	a5,sp,516
    1086:	0186                	slli	gp,gp,0x1
    1088:	019a                	slli	gp,gp,0x6
    108a:	5a01                	li	s4,-32
    108c:	9e04                	.insn	2, 0x9e04
    108e:	ce01                	beqz	a2,10a6 <_start-0x7fffef5a>
    1090:	0101                	addi	sp,sp,0
    1092:	045a                	slli	s0,s0,0x16
    1094:	01ce                	slli	gp,gp,0x13
    1096:	01e0                	addi	s0,sp,204
    1098:	6e01                	.insn	2, 0x6e01
    109a:	e004                	sd	s1,0(s0)
    109c:	f001                	bnez	s0,f9c <_start-0x7ffff064>
    109e:	0101                	addi	sp,sp,0
    10a0:	045a                	slli	s0,s0,0x16
    10a2:	01f0                	addi	a2,sp,204
    10a4:	01f4                	addi	a3,sp,204
    10a6:	9f017c03          	.insn	4, 0x9f017c03
    10aa:	f404                	sd	s1,40(s0)
    10ac:	9201                	srli	a2,a2,0x20
    10ae:	0102                	c.slli64	sp
    10b0:	045a                	slli	s0,s0,0x16
    10b2:	0292                	slli	t0,t0,0x4
    10b4:	02c0                	addi	s0,sp,324
    10b6:	5c01                	li	s8,-32
    10b8:	c004                	sw	s1,0(s0)
    10ba:	9202                	jalr	tp
    10bc:	0108                	addi	a0,sp,128
    10be:	005a                	c.slli	zero,0x16
    10c0:	7006                	.insn	2, 0x7006
    10c2:	0005                	c.nop	1
    10c4:	0080                	addi	s0,sp,64
    10c6:	0000                	unimp
    10c8:	0400                	addi	s0,sp,512
    10ca:	c800                	sw	s0,16(s0)
    10cc:	0102                	c.slli64	sp
    10ce:	02c8045b          	.insn	4, 0x02c8045b
    10d2:	02d2                	slli	t0,t0,0x14
    10d4:	9f087b03          	.insn	4, 0x9f087b03
    10d8:	d204                	sw	s1,32(a2)
    10da:	f802                	sd	zero,48(sp)
    10dc:	0102                	c.slli64	sp
    10de:	02f8045b          	.insn	4, 0x02f8045b
    10e2:	02fe                	slli	t0,t0,0x1f
    10e4:	5c01                	li	s8,-32
    10e6:	fe04                	sd	s1,56(a2)
    10e8:	9002                	ebreak
    10ea:	0104                	addi	s1,sp,128
    10ec:	0490045b          	.insn	4, 0x0490045b
    10f0:	05dc                	addi	a5,sp,708
    10f2:	9f087b03          	.insn	4, 0x9f087b03
    10f6:	dc04                	sw	s1,56(s0)
    10f8:	f405                	bnez	s0,1020 <_start-0x7fffefe0>
    10fa:	0105                	addi	sp,sp,1
    10fc:	05f4045b          	.insn	4, 0x05f4045b
    1100:	05f6                	slli	a1,a1,0x1d
    1102:	9f087b03          	.insn	4, 0x9f087b03
    1106:	f604                	sd	s1,40(a2)
    1108:	fe05                	bnez	a2,1040 <_start-0x7fffefc0>
    110a:	0105                	addi	sp,sp,1
    110c:	046d                	addi	s0,s0,27
    110e:	05fe                	slli	a1,a1,0x1f
    1110:	06a0                	addi	s0,sp,840
    1112:	5b01                	li	s6,-32
    1114:	a004                	fsd	fs1,0(s0)
    1116:	a406                	fsd	ft1,8(sp)
    1118:	0106                	slli	sp,sp,0x1
    111a:	046d                	addi	s0,s0,27
    111c:	06a4                	addi	s1,sp,840
    111e:	0788                	addi	a0,sp,960
    1120:	5b01                	li	s6,-32
    1122:	8804                	.insn	2, 0x8804
    1124:	01078e07          	.insn	4, 0x01078e07
    1128:	045c                	addi	a5,sp,516
    112a:	078e                	slli	a5,a5,0x3
    112c:	07e2                	slli	a5,a5,0x18
    112e:	9f087b03          	.insn	4, 0x9f087b03
    1132:	e204                	sd	s1,0(a2)
    1134:	0107e807          	.insn	4, 0x0107e807
    1138:	07e8045b          	.insn	4, 0x07e8045b
    113c:	07ec                	addi	a1,sp,972
    113e:	9f087b03          	.insn	4, 0x9f087b03
    1142:	ec04                	sd	s1,24(s0)
    1144:	01089207          	.insn	4, 0x01089207
    1148:	8806005b          	.insn	4, 0x8806005b
    114c:	00800007          	.insn	4, 0x00800007
    1150:	0000                	unimp
    1152:	0400                	addi	s0,sp,512
    1154:	1600                	addi	s0,sp,800
    1156:	6e01                	.insn	2, 0x6e01
    1158:	1604                	addi	s1,sp,800
    115a:	0a3a                	slli	s4,s4,0xe
    115c:	00206803          	lwu	a6,2(zero) # 2 <_start-0x7ffffffe>
    1160:	0080                	addi	s0,sp,64
    1162:	0000                	unimp
    1164:	9f00                	.insn	2, 0x9f00
    1166:	7c04                	ld	s1,56(s0)
    1168:	0184                	addi	s1,sp,192
    116a:	6e01                	.insn	2, 0x6e01
    116c:	9004                	.insn	2, 0x9004
    116e:	c401                	beqz	s0,1176 <_start-0x7fffee8a>
    1170:	0101                	addi	sp,sp,0
    1172:	046e                	slli	s0,s0,0x1b
    1174:	02f6                	slli	t0,t0,0x1d
    1176:	0382                	c.slli64	t2
    1178:	6e01                	.insn	2, 0x6e01
    117a:	8204                	.insn	2, 0x8204
    117c:	0103a203          	lw	tp,16(t2)
    1180:	005c                	addi	a5,sp,4
    1182:	b806                	fsd	ft1,48(sp)
    1184:	0005                	c.nop	1
    1186:	0080                	addi	s0,sp,64
    1188:	0000                	unimp
    118a:	0400                	addi	s0,sp,512
    118c:	5600                	lw	s0,40(a2)
    118e:	6e01                	.insn	2, 0x6e01
    1190:	8604                	.insn	2, 0x8604
    1192:	9801                	andi	s0,s0,-32
    1194:	0101                	addi	sp,sp,0
    1196:	046e                	slli	s0,s0,0x1b
    1198:	0198                	addi	a4,sp,192
    119a:	01ae                	slli	gp,gp,0xb
    119c:	5c01                	li	s8,-32
    119e:	b004                	fsd	fs1,32(s0)
    11a0:	b601                	j	ca0 <_start-0x7ffff360>
    11a2:	0102                	c.slli64	sp
    11a4:	046e                	slli	s0,s0,0x1b
    11a6:	03c8                	addi	a0,sp,452
    11a8:	03cc                	addi	a1,sp,452
    11aa:	6e01                	.insn	2, 0x6e01
    11ac:	9404                	.insn	2, 0x9404
    11ae:	c005                	beqz	s0,11ce <_start-0x7fffee32>
    11b0:	0105                	addi	sp,sp,1
    11b2:	046e                	slli	s0,s0,0x1b
    11b4:	05dc                	addi	a5,sp,708
    11b6:	05fc                	addi	a5,sp,716
    11b8:	6e01                	.insn	2, 0x6e01
    11ba:	8204                	.insn	2, 0x8204
    11bc:	c606                	sw	ra,12(sp)
    11be:	0106                	slli	sp,sp,0x1
    11c0:	046e                	slli	s0,s0,0x1b
    11c2:	07a0                	addi	s0,sp,968
    11c4:	07ca                	slli	a5,a5,0x12
    11c6:	6e01                	.insn	2, 0x6e01
    11c8:	0600                	addi	s0,sp,768
    11ca:	058e                	slli	a1,a1,0x3
    11cc:	8000                	.insn	2, 0x8000
    11ce:	0000                	unimp
    11d0:	0000                	unimp
    11d2:	0004                	.insn	2, 0x0004
    11d4:	0108                	addi	a0,sp,128
    11d6:	045f 1e1a 5d01      	.insn	6, 0x5d011e1a045f
    11dc:	1e04                	addi	s1,sp,816
    11de:	0122                	slli	sp,sp,0x8
    11e0:	045f 4a42 8d06      	.insn	6, 0x8d064a42045f
    11e6:	0800                	addi	s0,sp,16
    11e8:	049f1aff 8d066c68 	.insn	12, 0x1aff08008d066c68049f1aff
    11f0:	1aff0800 
    11f4:	049f 0188 0192      	.insn	6, 0x01920188049f
    11fa:	5f01                	li	t5,-32
    11fc:	a404                	fsd	fs1,8(s0)
    11fe:	a801                	j	120e <_start-0x7fffedf2>
    1200:	0101                	addi	sp,sp,0
    1202:	045d                	addi	s0,s0,23
    1204:	01a8                	addi	a0,sp,200
    1206:	01ac                	addi	a1,sp,200
    1208:	5f01                	li	t5,-32
    120a:	c204                	sw	s1,0(a2)
    120c:	d801                	beqz	s0,111c <_start-0x7fffeee4>
    120e:	0601                	addi	a2,a2,0
    1210:	008d                	addi	ra,ra,3
    1212:	ff08                	sd	a0,56(a4)
    1214:	9f1a                	add	t5,t5,t1
    1216:	d804                	sw	s1,48(s0)
    1218:	da01                	beqz	a2,1128 <_start-0x7fffeed8>
    121a:	0101                	addi	sp,sp,0
    121c:	045f 01f0 0298      	.insn	6, 0x029801f0045f
    1222:	5801                	li	a6,-32
    1224:	8a04                	.insn	2, 0x8a04
    1226:	9004                	.insn	2, 0x9004
    1228:	0604                	addi	s1,sp,768
    122a:	008d                	addi	ra,ra,3
    122c:	ff08                	sd	a0,56(a4)
    122e:	9f1a                	add	t5,t5,t1
    1230:	fa04                	sd	s1,48(a2)
    1232:	fe04                	sd	s1,56(a2)
    1234:	0604                	addi	s1,sp,768
    1236:	008d                	addi	ra,ra,3
    1238:	ff08                	sd	a0,56(a4)
    123a:	9f1a                	add	t5,t5,t1
    123c:	8a04                	.insn	2, 0x8a04
    123e:	8e05                	sub	a2,a2,s1
    1240:	0605                	addi	a2,a2,1
    1242:	008d                	addi	ra,ra,3
    1244:	ff08                	sd	a0,56(a4)
    1246:	9f1a                	add	t5,t5,t1
    1248:	ac04                	fsd	fs1,24(s0)
    124a:	ba05                	j	b7a <_start-0x7ffff486>
    124c:	0605                	addi	a2,a2,1
    124e:	008d                	addi	ra,ra,3
    1250:	ff08                	sd	a0,56(a4)
    1252:	9f1a                	add	t5,t5,t1
    1254:	a604                	fsd	fs1,8(a2)
    1256:	ac06                	fsd	ft1,24(sp)
    1258:	0106                	slli	sp,sp,0x1
    125a:	045f 06f0 06fc      	.insn	6, 0x06fc06f0045f
    1260:	8d06                	mv	s10,ra
    1262:	0800                	addi	s0,sp,16
    1264:	049f1aff 079c0790 	.insn	12, 0x08008d06079c0790049f1aff
    126c:	08008d06 
    1270:	009f1aff 0006ee06 	.insn	12, 0x00800006ee06009f1aff
    1278:	00000080 
    127c:	0400                	addi	s0,sp,512
    127e:	1000                	addi	s0,sp,32
    1280:	5f01                	li	t5,-32
    1282:	f804                	sd	s1,48(s0)
    1284:	a602                	fsd	ft0,264(sp)
    1286:	045f0103          	lb	sp,69(t5)
    128a:	04e6                	slli	s1,s1,0x19
    128c:	04ea                	slli	s1,s1,0x1a
    128e:	5f01                	li	t5,-32
    1290:	0800                	addi	s0,sp,16
    1292:	08f2                	slli	a7,a7,0x1c
    1294:	8000                	.insn	2, 0x8000
    1296:	0000                	unimp
    1298:	0000                	unimp
    129a:	0206                	slli	tp,tp,0x1
    129c:	9f40                	.insn	2, 0x9f40
    129e:	0600                	addi	s0,sp,768
    12a0:	05b8                	addi	a4,sp,712
    12a2:	8000                	.insn	2, 0x8000
    12a4:	0000                	unimp
    12a6:	0000                	unimp
    12a8:	0004                	.insn	2, 0x0004
    12aa:	0214                	addi	a3,sp,256
    12ac:	9f30                	.insn	2, 0x9f30
    12ae:	1404                	addi	s1,sp,544
    12b0:	0156                	slli	sp,sp,0x15
    12b2:	01860457          	.insn	4, 0x01860457
    12b6:	0198                	addi	a4,sp,192
    12b8:	3002                	fld	ft0,32(sp)
    12ba:	049f 0198 01ae      	.insn	6, 0x01ae0198049f
    12c0:	5701                	li	a4,-32
    12c2:	b004                	fsd	fs1,32(s0)
    12c4:	b601                	j	dc4 <_start-0x7ffff23c>
    12c6:	0102                	c.slli64	sp
    12c8:	03c80457          	.insn	4, 0x03c80457
    12cc:	04e0                	addi	s0,sp,588
    12ce:	5701                	li	a4,-32
    12d0:	9404                	.insn	2, 0x9404
    12d2:	fc05                	bnez	s0,120a <_start-0x7fffedf6>
    12d4:	0105                	addi	sp,sp,1
    12d6:	06820457          	.insn	4, 0x06820457
    12da:	068c                	addi	a1,sp,832
    12dc:	5701                	li	a4,-32
    12de:	ba04                	fsd	fs1,48(a2)
    12e0:	c006                	sw	ra,0(sp)
    12e2:	0206                	slli	tp,tp,0x1
    12e4:	9f31                	addw	a4,a4,a2
    12e6:	a004                	fsd	fs1,0(s0)
    12e8:	0107ca07          	.insn	4, 0x0107ca07
    12ec:	b8060057          	.insn	4, 0xb8060057
    12f0:	0005                	c.nop	1
    12f2:	0080                	addi	s0,sp,64
    12f4:	0000                	unimp
    12f6:	0400                	addi	s0,sp,512
    12f8:	2000                	fld	fs0,0(s0)
    12fa:	9fff0903          	lb	s2,-1537(t5)
    12fe:	8604                	.insn	2, 0x8604
    1300:	ac01                	j	1510 <_start-0x7fffeaf0>
    1302:	0301                	addi	t1,t1,0
    1304:	ff09                	bnez	a4,121e <_start-0x7fffede2>
    1306:	049f 04c8 04cc      	.insn	6, 0x04cc04c8049f
    130c:	6f01                	.insn	2, 0x6f01
    130e:	cc04                	sw	s1,24(s0)
    1310:	d404                	sw	s1,40(s0)
    1312:	0204                	addi	s1,sp,256
    1314:	9f30                	.insn	2, 0x9f30
    1316:	8204                	.insn	2, 0x8204
    1318:	9005                	srli	s0,s0,0x21
    131a:	0105                	addi	sp,sp,1
    131c:	06c6046f          	jal	s0,61388 <_start-0x7ff9ec78>
    1320:	06d2                	slli	a3,a3,0x14
    1322:	6f01                	.insn	2, 0x6f01
    1324:	e604                	sd	s1,8(a2)
    1326:	ee06                	sd	ra,280(sp)
    1328:	0906                	slli	s2,s2,0x1
    132a:	008e                	slli	ra,ra,0x3
    132c:	7c22008f          	.insn	4, 0x7c22008f
    1330:	1c00                	addi	s0,sp,560
    1332:	049f 0794 0798      	.insn	6, 0x07980794049f
    1338:	6f01                	.insn	2, 0x6f01
    133a:	0600                	addi	s0,sp,768
    133c:	05b8                	addi	a4,sp,712
    133e:	8000                	.insn	2, 0x8000
    1340:	0000                	unimp
    1342:	0000                	unimp
    1344:	0004                	.insn	2, 0x0004
    1346:	0314                	addi	a3,sp,384
    1348:	ff09                	bnez	a4,1262 <_start-0x7fffed9e>
    134a:	049f 5614 5d01      	.insn	6, 0x5d015614049f
    1350:	8604                	.insn	2, 0x8604
    1352:	9801                	andi	s0,s0,-32
    1354:	0301                	addi	t1,t1,0
    1356:	ff09                	bnez	a4,1270 <_start-0x7fffed90>
    1358:	049f 0198 01ae      	.insn	6, 0x01ae0198049f
    135e:	5d01                	li	s10,-32
    1360:	b004                	fsd	fs1,32(s0)
    1362:	b201                	j	c62 <_start-0x7ffff39e>
    1364:	0101                	addi	sp,sp,0
    1366:	045d                	addi	s0,s0,23
    1368:	01b2                	slli	gp,gp,0xc
    136a:	01b6                	slli	gp,gp,0xd
    136c:	3002                	fld	ft0,32(sp)
    136e:	049f 01b6 01ec      	.insn	6, 0x01ec01b6049f
    1374:	5d01                	li	s10,-32
    1376:	ee04                	sd	s1,24(a2)
    1378:	f601                	bnez	a2,1280 <_start-0x7fffed80>
    137a:	0101                	addi	sp,sp,0
    137c:	045d                	addi	s0,s0,23
    137e:	01f8                	addi	a4,sp,204
    1380:	0286                	slli	t0,t0,0x1
    1382:	5d01                	li	s10,-32
    1384:	8c04                	.insn	2, 0x8c04
    1386:	a202                	fsd	ft0,256(sp)
    1388:	0102                	c.slli64	sp
    138a:	045d                	addi	s0,s0,23
    138c:	03c8                	addi	a0,sp,452
    138e:	04d4                	addi	a3,sp,580
    1390:	5d01                	li	s10,-32
    1392:	e004                	sd	s1,0(s0)
    1394:	e804                	sd	s1,16(s0)
    1396:	0104                	addi	s1,sp,128
    1398:	045d                	addi	s0,s0,23
    139a:	04e8                	addi	a0,sp,588
    139c:	04ec                	addi	a1,sp,588
    139e:	5501                	li	a0,-32
    13a0:	8c04                	.insn	2, 0x8c04
    13a2:	b205                	j	cc2 <_start-0x7ffff33e>
    13a4:	0105                	addi	sp,sp,1
    13a6:	045d                	addi	s0,s0,23
    13a8:	05dc                	addi	a5,sp,708
    13aa:	05e0                	addi	s0,sp,716
    13ac:	5d01                	li	s10,-32
    13ae:	8204                	.insn	2, 0x8204
    13b0:	8606                	mv	a2,ra
    13b2:	0106                	slli	sp,sp,0x1
    13b4:	045d                	addi	s0,s0,23
    13b6:	07a0                	addi	s0,sp,968
    13b8:	07a6                	slli	a5,a5,0x9
    13ba:	5d01                	li	s10,-32
    13bc:	a804                	fsd	fs1,16(s0)
    13be:	0107aa07          	flw	fs4,16(a5)
    13c2:	045d                	addi	s0,s0,23
    13c4:	07ac                	addi	a1,sp,968
    13c6:	07b0                	addi	a2,sp,968
    13c8:	5d01                	li	s10,-32
    13ca:	0600                	addi	s0,sp,768
    13cc:	05b8                	addi	a4,sp,712
    13ce:	8000                	.insn	2, 0x8000
    13d0:	0000                	unimp
    13d2:	0000                	unimp
    13d4:	0004                	.insn	2, 0x0004
    13d6:	0220                	addi	s0,sp,264
    13d8:	9f30                	.insn	2, 0x9f30
    13da:	8604                	.insn	2, 0x8604
    13dc:	ae01                	j	16ec <_start-0x7fffe914>
    13de:	0201                	addi	tp,tp,0 # 0 <_start-0x80000000>
    13e0:	9f30                	.insn	2, 0x9f30
    13e2:	f804                	sd	s1,48(s0)
    13e4:	8001                	c.srli64	s0
    13e6:	0202                	c.slli64	tp
    13e8:	9f31                	addw	a4,a4,a2
    13ea:	0600                	addi	s0,sp,768
    13ec:	05b8                	addi	a4,sp,712
    13ee:	8000                	.insn	2, 0x8000
    13f0:	0000                	unimp
    13f2:	0000                	unimp
    13f4:	0004                	.insn	2, 0x0004
    13f6:	0314                	addi	a3,sp,384
    13f8:	2008                	fld	fa0,0(s0)
    13fa:	049f 2a14 5501      	.insn	6, 0x55012a14049f
    1400:	2a04                	fld	fs1,16(a2)
    1402:	0332                	slli	t1,t1,0xc
    1404:	3008                	fld	fa0,32(s0)
    1406:	049f 5632 5501      	.insn	6, 0x55015632049f
    140c:	8604                	.insn	2, 0x8604
    140e:	9801                	andi	s0,s0,-32
    1410:	0301                	addi	t1,t1,0
    1412:	2008                	fld	fa0,0(s0)
    1414:	049f 0198 01ae      	.insn	6, 0x01ae0198049f
    141a:	5501                	li	a0,-32
    141c:	b004                	fsd	fs1,32(s0)
    141e:	9601                	srai	a2,a2,0x20
    1420:	04550103          	lb	sp,69(a0)
    1424:	03c8                	addi	a0,sp,452
    1426:	04e4                	addi	s1,sp,588
    1428:	5501                	li	a0,-32
    142a:	9404                	.insn	2, 0x9404
    142c:	fc05                	bnez	s0,1364 <_start-0x7fffec9c>
    142e:	0105                	addi	sp,sp,1
    1430:	0455                	addi	s0,s0,21
    1432:	0682                	c.slli64	a3
    1434:	06c6                	slli	a3,a3,0x11
    1436:	5501                	li	a0,-32
    1438:	9c04                	.insn	2, 0x9c04
    143a:	0107ca07          	.insn	4, 0x0107ca07
    143e:	0055                	c.nop	21
    1440:	9606                	add	a2,a2,ra
    1442:	0005                	c.nop	1
    1444:	0080                	addi	s0,sp,64
    1446:	0000                	unimp
    1448:	0400                	addi	s0,sp,512
    144a:	0e00                	addi	s0,sp,784
    144c:	5d01                	li	s10,-32
    144e:	8a04                	.insn	2, 0x8a04
    1450:	9801                	andi	s0,s0,-32
    1452:	0101                	addi	sp,sp,0
    1454:	005d                	c.nop	23
    1456:	9606                	add	a2,a2,ra
    1458:	0005                	c.nop	1
    145a:	0080                	addi	s0,sp,64
    145c:	0000                	unimp
    145e:	0400                	addi	s0,sp,512
    1460:	1a00                	addi	s0,sp,304
    1462:	4004                	lw	s1,0(s0)
    1464:	2448                	fld	fa0,136(s0)
    1466:	049f 018a 01a4      	.insn	6, 0x01a4018a049f
    146c:	4004                	lw	s1,0(s0)
    146e:	2448                	fld	fa0,136(s0)
    1470:	009f 9606 0005      	.insn	6, 0x00059606009f
    1476:	0080                	addi	s0,sp,64
    1478:	0000                	unimp
    147a:	0400                	addi	s0,sp,512
    147c:	1a00                	addi	s0,sp,304
    147e:	0c06                	slli	s8,s8,0x1
    1480:	0005                	c.nop	1
    1482:	1000                	addi	s0,sp,32
    1484:	049f 018a 01a4      	.insn	6, 0x01a4018a049f
    148a:	0c06                	slli	s8,s8,0x1
    148c:	0005                	c.nop	1
    148e:	1000                	addi	s0,sp,32
    1490:	009f da06 0006      	.insn	6, 0x0006da06009f
    1496:	0080                	addi	s0,sp,64
    1498:	0000                	unimp
    149a:	0400                	addi	s0,sp,512
    149c:	1400                	addi	s0,sp,544
    149e:	a006                	fsd	ft1,0(sp)
    14a0:	000017ab          	.insn	4, 0x17ab
    14a4:	0400                	addi	s0,sp,512
    14a6:	0498                	addi	a4,sp,576
    14a8:	04a4                	addi	s1,sp,584
    14aa:	a006                	fsd	ft1,0(sp)
    14ac:	000017ab          	.insn	4, 0x17ab
    14b0:	0000                	unimp
    14b2:	da06                	sw	ra,52(sp)
    14b4:	0006                	c.slli	zero,0x1
    14b6:	0080                	addi	s0,sp,64
    14b8:	0000                	unimp
    14ba:	0400                	addi	s0,sp,512
    14bc:	1400                	addi	s0,sp,544
    14be:	5701                	li	a4,-32
    14c0:	9804                	.insn	2, 0x9804
    14c2:	9e04                	.insn	2, 0x9e04
    14c4:	0204                	addi	s1,sp,256
    14c6:	9f31                	addw	a4,a4,a2
    14c8:	0600                	addi	s0,sp,768
    14ca:	06ee                	slli	a3,a3,0x1b
    14cc:	8000                	.insn	2, 0x8000
    14ce:	0000                	unimp
    14d0:	0000                	unimp
    14d2:	0004                	.insn	2, 0x0004
    14d4:	0192                	slli	gp,gp,0x4
    14d6:	3002                	fld	ft0,32(sp)
    14d8:	049f 04e6 04ea      	.insn	6, 0x04ea04e6049f
    14de:	3002                	fld	ft0,32(sp)
    14e0:	009f ee06 0006      	.insn	6, 0x0006ee06009f
    14e6:	0080                	addi	s0,sp,64
    14e8:	0000                	unimp
    14ea:	0400                	addi	s0,sp,512
    14ec:	3c00                	fld	fs0,56(s0)
    14ee:	5f01                	li	t5,-32
    14f0:	e604                	sd	s1,8(a2)
    14f2:	ea04                	sd	s1,16(a2)
    14f4:	0104                	addi	s1,sp,128
    14f6:	005f 1e06 0007      	.insn	6, 0x00071e06005f
    14fc:	0080                	addi	s0,sp,64
    14fe:	0000                	unimp
    1500:	0400                	addi	s0,sp,512
    1502:	0c00                	addi	s0,sp,528
    1504:	6d01                	.insn	2, 0x6d01
    1506:	1a04                	addi	s1,sp,304
    1508:	0120                	addi	s0,sp,136
    150a:	006d                	c.nop	27
    150c:	ee06                	sd	ra,280(sp)
    150e:	0006                	c.slli	zero,0x1
    1510:	0080                	addi	s0,sp,64
    1512:	0000                	unimp
    1514:	0400                	addi	s0,sp,512
    1516:	6000                	ld	s0,0(s0)
    1518:	7506                	ld	a0,96(sp)
    151a:	0800                	addi	s0,sp,16
    151c:	049f1aff 04ea04e6 	.insn	12, 0x0800750604ea04e6049f1aff
    1524:	08007506 
    1528:	009f1aff 0006ee06 	.insn	12, 0x00800006ee06009f1aff
    1530:	00000080 
    1534:	0400                	addi	s0,sp,512
    1536:	1000                	addi	s0,sp,32
    1538:	3102                	fld	ft2,32(sp)
    153a:	049f 261a 5c01      	.insn	6, 0x5c01261a049f
    1540:	e604                	sd	s1,8(a2)
    1542:	ea04                	sd	s1,16(a2)
    1544:	0204                	addi	s1,sp,256
    1546:	9f31                	addw	a4,a4,a2
    1548:	0800                	addi	s0,sp,16
    154a:	0764                	addi	s1,sp,908
    154c:	8000                	.insn	2, 0x8000
    154e:	0000                	unimp
    1550:	0000                	unimp
    1552:	0602                	c.slli64	a2
    1554:	007f 007c 9f22 0800 	.insn	10, 0x076a08009f22007c007f
    155c:	076a 
    155e:	8000                	.insn	2, 0x8000
    1560:	0000                	unimp
    1562:	0000                	unimp
    1564:	010e                	slli	sp,sp,0x3
    1566:	005c                	addi	a5,sp,4
    1568:	6a08                	ld	a0,16(a2)
    156a:	00800007          	.insn	4, 0x00800007
    156e:	0000                	unimp
    1570:	1600                	addi	s0,sp,800
    1572:	4004                	lw	s1,0(s0)
    1574:	2448                	fld	fa0,136(s0)
    1576:	009f 6a08 0007      	.insn	6, 0x00076a08009f
    157c:	0080                	addi	s0,sp,64
    157e:	0000                	unimp
    1580:	1600                	addi	s0,sp,800
    1582:	0c06                	slli	s8,s8,0x1
    1584:	0005                	c.nop	1
    1586:	1000                	addi	s0,sp,32
    1588:	009f c208 0007      	.insn	6, 0x0007c208009f
    158e:	0080                	addi	s0,sp,64
    1590:	0000                	unimp
    1592:	2000                	fld	fs0,0(s0)
    1594:	030a                	slli	t1,t1,0x2
    1596:	2068                	fld	fa0,192(s0)
    1598:	8000                	.insn	2, 0x8000
    159a:	0000                	unimp
    159c:	0000                	unimp
    159e:	009f c206 0007      	.insn	6, 0x0007c206009f
    15a4:	0080                	addi	s0,sp,64
    15a6:	0000                	unimp
    15a8:	0400                	addi	s0,sp,512
    15aa:	0a00                	addi	s0,sp,272
    15ac:	9f7f7d03          	.insn	4, 0x9f7f7d03
    15b0:	0a04                	addi	s1,sp,272
    15b2:	1018                	addi	a4,sp,32
    15b4:	007f 7d20 0800 2420 	.insn	10, 0x2008242008007d20007f
    15bc:	2008 
    15be:	2226                	fld	ft4,72(sp)
    15c0:	008e                	slli	ra,ra,0x3
    15c2:	9f22                	add	t5,t5,s0
    15c4:	0600                	addi	s0,sp,768
    15c6:	07c2                	slli	a5,a5,0x10
    15c8:	8000                	.insn	2, 0x8000
    15ca:	0000                	unimp
    15cc:	0000                	unimp
    15ce:	0004                	.insn	2, 0x0004
    15d0:	0a0a                	slli	s4,s4,0x2
    15d2:	00206803          	lwu	a6,2(zero) # 2 <_start-0x7ffffffe>
    15d6:	0080                	addi	s0,sp,64
    15d8:	0000                	unimp
    15da:	9f00                	.insn	2, 0x9f00
    15dc:	0a04                	addi	s1,sp,272
    15de:	011c                	addi	a5,sp,128
    15e0:	005f 5606 0008      	.insn	6, 0x00085606005f
    15e6:	0080                	addi	s0,sp,64
    15e8:	0000                	unimp
    15ea:	0400                	addi	s0,sp,512
    15ec:	1000                	addi	s0,sp,32
    15ee:	a006                	fsd	ft1,0(sp)
    15f0:	000017ab          	.insn	4, 0x17ab
    15f4:	0400                	addi	s0,sp,512
    15f6:	0282                	c.slli64	t0
    15f8:	0286                	slli	t0,t0,0x1
    15fa:	a006                	fsd	ft1,0(sp)
    15fc:	000017ab          	.insn	4, 0x17ab
    1600:	0000                	unimp
    1602:	5606                	lw	a2,96(sp)
    1604:	0008                	.insn	2, 0x0008
    1606:	0080                	addi	s0,sp,64
    1608:	0000                	unimp
    160a:	0400                	addi	s0,sp,512
    160c:	1000                	addi	s0,sp,32
    160e:	5701                	li	a4,-32
    1610:	8204                	.insn	2, 0x8204
    1612:	8602                	jr	a2
    1614:	0102                	c.slli64	sp
    1616:	a0080057          	.insn	4, 0xa0080057
    161a:	0008                	.insn	2, 0x0008
    161c:	0080                	addi	s0,sp,64
    161e:	0000                	unimp
    1620:	1200                	addi	s0,sp,288
    1622:	6d01                	.insn	2, 0x6d01
    1624:	0800                	addi	s0,sp,16
    1626:	08a0                	addi	s0,sp,88
    1628:	8000                	.insn	2, 0x8000
    162a:	0000                	unimp
    162c:	0000                	unimp
    162e:	0414                	addi	a3,sp,512
    1630:	4840                	lw	s0,20(s0)
    1632:	9f24                	.insn	2, 0x9f24
    1634:	0800                	addi	s0,sp,16
    1636:	08a0                	addi	s0,sp,88
    1638:	8000                	.insn	2, 0x8000
    163a:	0000                	unimp
    163c:	0000                	unimp
    163e:	0614                	addi	a3,sp,768
    1640:	050c                	addi	a1,sp,640
    1642:	0000                	unimp
    1644:	9f10                	.insn	2, 0x9f10
    1646:	0800                	addi	s0,sp,16
    1648:	08da                	slli	a7,a7,0x16
    164a:	8000                	.insn	2, 0x8000
    164c:	0000                	unimp
    164e:	0000                	unimp
    1650:	0318                	addi	a4,sp,384
    1652:	7808                	ld	a0,48(s0)
    1654:	009f da08 0008      	.insn	6, 0x0008da08009f
    165a:	0080                	addi	s0,sp,64
    165c:	0000                	unimp
    165e:	1e00                	addi	s0,sp,816
    1660:	4004                	lw	s1,0(s0)
    1662:	2448                	fld	fa0,136(s0)
    1664:	009f da08 0008      	.insn	6, 0x0008da08009f
    166a:	0080                	addi	s0,sp,64
    166c:	0000                	unimp
    166e:	1e00                	addi	s0,sp,816
    1670:	0c06                	slli	s8,s8,0x1
    1672:	0005                	c.nop	1
    1674:	1000                	addi	s0,sp,32
    1676:	009f c006 0009      	.insn	6, 0x0009c006009f
    167c:	0080                	addi	s0,sp,64
    167e:	0000                	unimp
    1680:	0400                	addi	s0,sp,512
    1682:	1200                	addi	s0,sp,288
    1684:	5a01                	li	s4,-32
    1686:	1204                	addi	s1,sp,288
    1688:	0126                	slli	sp,sp,0x9
    168a:	005a                	c.slli	zero,0x16
    168c:	d208                	sw	a0,32(a2)
    168e:	0009                	c.nop	2
    1690:	0080                	addi	s0,sp,64
    1692:	0000                	unimp
    1694:	0e00                	addi	s0,sp,784
    1696:	5d01                	li	s10,-32
    1698:	0800                	addi	s0,sp,16
    169a:	09d2                	slli	s3,s3,0x14
    169c:	8000                	.insn	2, 0x8000
    169e:	0000                	unimp
    16a0:	0000                	unimp
    16a2:	0414                	addi	a3,sp,512
    16a4:	4840                	lw	s0,20(s0)
    16a6:	9f24                	.insn	2, 0x9f24
    16a8:	0800                	addi	s0,sp,16
    16aa:	09d2                	slli	s3,s3,0x14
    16ac:	8000                	.insn	2, 0x8000
    16ae:	0000                	unimp
    16b0:	0000                	unimp
    16b2:	0614                	addi	a3,sp,768
    16b4:	050c                	addi	a1,sp,640
    16b6:	0000                	unimp
    16b8:	9f10                	.insn	2, 0x9f10
    16ba:	0600                	addi	s0,sp,768
    16bc:	0a44                	addi	s1,sp,276
    16be:	8000                	.insn	2, 0x8000
    16c0:	0000                	unimp
    16c2:	0000                	unimp
    16c4:	0004                	.insn	2, 0x0004
    16c6:	045a0107          	.insn	4, 0x045a0107
    16ca:	a3040807          	.insn	4, 0xa3040807
    16ce:	5a01                	li	s4,-32
    16d0:	009f 5a06 000a      	.insn	6, 0x000a5a06009f
    16d6:	0080                	addi	s0,sp,64
    16d8:	0000                	unimp
    16da:	0400                	addi	s0,sp,512
    16dc:	1000                	addi	s0,sp,32
    16de:	5a01                	li	s4,-32
    16e0:	1004                	addi	s1,sp,32
    16e2:	0428                	addi	a0,sp,520
    16e4:	9f5a01a3          	sb	s5,-1565(s4)
    16e8:	0800                	addi	s0,sp,16
    16ea:	0a6c                	addi	a1,sp,284
    16ec:	8000                	.insn	2, 0x8000
    16ee:	0000                	unimp
    16f0:	0000                	unimp
    16f2:	010e                	slli	sp,sp,0x3
    16f4:	005d                	c.nop	23
    16f6:	6c08                	ld	a0,24(s0)
    16f8:	000a                	c.slli	zero,0x2
    16fa:	0080                	addi	s0,sp,64
    16fc:	0000                	unimp
    16fe:	1400                	addi	s0,sp,544
    1700:	4004                	lw	s1,0(s0)
    1702:	2448                	fld	fa0,136(s0)
    1704:	009f 6c08 000a      	.insn	6, 0x000a6c08009f
    170a:	0080                	addi	s0,sp,64
    170c:	0000                	unimp
    170e:	1400                	addi	s0,sp,544
    1710:	0c06                	slli	s8,s8,0x1
    1712:	0005                	c.nop	1
    1714:	1000                	addi	s0,sp,32
    1716:	009f 0c06 000d      	.insn	6, 0x000d0c06009f
    171c:	0080                	addi	s0,sp,64
    171e:	0000                	unimp
    1720:	0400                	addi	s0,sp,512
    1722:	4a00                	lw	s0,16(a2)
    1724:	5b01                	li	s6,-32
    1726:	4a04                	lw	s1,16(a2)
    1728:	01ca                	slli	gp,gp,0x12
    172a:	a304                	fsd	fs1,0(a4)
    172c:	5b01                	li	s6,-32
    172e:	049f 01ca 01d0      	.insn	6, 0x01d001ca049f
    1734:	5b01                	li	s6,-32
    1736:	d004                	sw	s1,32(s0)
    1738:	e001                	bnez	s0,1738 <_start-0x7fffe8c8>
    173a:	0401                	addi	s0,s0,0
    173c:	9f5b01a3          	sb	s5,-1565(s6)
    1740:	e004                	sd	s1,0(s0)
    1742:	e601                	bnez	a2,174a <_start-0x7fffe8b6>
    1744:	0101                	addi	sp,sp,0
    1746:	01e6045b          	.insn	4, 0x01e6045b
    174a:	01e8                	addi	a0,sp,204
    174c:	5f01                	li	t5,-32
    174e:	e804                	sd	s1,16(s0)
    1750:	fc01                	bnez	s0,1668 <_start-0x7fffe998>
    1752:	0401                	addi	s0,s0,0
    1754:	9f5b01a3          	sb	s5,-1565(s6)
    1758:	fc04                	sd	s1,56(s0)
    175a:	fe01                	bnez	a2,1672 <_start-0x7fffe98e>
    175c:	0101                	addi	sp,sp,0
    175e:	0c06005b          	.insn	4, 0x0c06005b
    1762:	000d                	c.nop	3
    1764:	0080                	addi	s0,sp,64
    1766:	0000                	unimp
    1768:	0400                	addi	s0,sp,512
    176a:	6400                	ld	s0,8(s0)
    176c:	5c01                	li	s8,-32
    176e:	6404                	ld	s1,8(s0)
    1770:	01ca                	slli	gp,gp,0x12
    1772:	a304                	fsd	fs1,0(a4)
    1774:	5c01                	li	s8,-32
    1776:	049f 01ca 01fa      	.insn	6, 0x01fa01ca049f
    177c:	5c01                	li	s8,-32
    177e:	fa04                	sd	s1,48(a2)
    1780:	fc01                	bnez	s0,1698 <_start-0x7fffe968>
    1782:	0401                	addi	s0,s0,0
    1784:	9f5c01a3          	sb	s5,-1565(s8)
    1788:	fc04                	sd	s1,56(s0)
    178a:	fe01                	bnez	a2,16a2 <_start-0x7fffe95e>
    178c:	0101                	addi	sp,sp,0
    178e:	005c                	addi	a5,sp,4
    1790:	2406                	fld	fs0,64(sp)
    1792:	000d                	c.nop	3
    1794:	0080                	addi	s0,sp,64
    1796:	0000                	unimp
    1798:	0400                	addi	s0,sp,512
    179a:	3200                	fld	fs0,32(a2)
    179c:	5b01                	li	s6,-32
    179e:	4804                	lw	s1,16(s0)
    17a0:	0358                	addi	a4,sp,388
    17a2:	0180                	addi	s0,sp,192
    17a4:	049f 6858 8003      	.insn	6, 0x80036858049f
    17aa:	9f02                	jalr	t5
    17ac:	6804                	ld	s1,16(s0)
    17ae:	0378                	addi	a4,sp,396
    17b0:	0380                	addi	s0,sp,448
    17b2:	049f 8878 0301      	.insn	6, 0x03018878049f
    17b8:	0480                	addi	s0,sp,576
    17ba:	049f 0188 0198      	.insn	6, 0x01980188049f
    17c0:	9f058003          	lb	zero,-1552(a1) # fffffffffffff9f0 <__global_pointer$+0xffffffff7fffd1a8>
    17c4:	9804                	.insn	2, 0x9804
    17c6:	a801                	j	17d6 <_start-0x7fffe82a>
    17c8:	0301                	addi	t1,t1,0
    17ca:	0680                	addi	s0,sp,832
    17cc:	049f 01a8 01b2      	.insn	6, 0x01b201a8049f
    17d2:	9f078003          	lb	zero,-1552(a5)
    17d6:	c804                	sw	s1,16(s0)
    17d8:	ce01                	beqz	a2,17f0 <_start-0x7fffe810>
    17da:	0101                	addi	sp,sp,0
    17dc:	01ce045b          	.insn	4, 0x01ce045b
    17e0:	01d0                	addi	a2,sp,196
    17e2:	5f01                	li	t5,-32
    17e4:	d004                	sw	s1,32(s0)
    17e6:	d201                	beqz	a2,16e6 <_start-0x7fffe91a>
    17e8:	0401                	addi	s0,s0,0
    17ea:	9f5b01a3          	sb	s5,-1565(s6)
    17ee:	d204                	sw	s1,32(a2)
    17f0:	e201                	bnez	a2,17f0 <_start-0x7fffe810>
    17f2:	0101                	addi	sp,sp,0
    17f4:	0460                	addi	s0,sp,524
    17f6:	01e4                	addi	s1,sp,204
    17f8:	01e6                	slli	gp,gp,0x19
    17fa:	5b01                	li	s6,-32
    17fc:	0600                	addi	s0,sp,768
    17fe:	0d24                	addi	s1,sp,664
    1800:	8000                	.insn	2, 0x8000
    1802:	0000                	unimp
    1804:	0000                	unimp
    1806:	0004                	.insn	2, 0x0004
    1808:	0132                	slli	sp,sp,0xc
    180a:	045a                	slli	s0,s0,0x16
    180c:	5048                	lw	a0,36(s0)
    180e:	9f017f03          	.insn	4, 0x9f017f03
    1812:	5004                	lw	s1,32(s0)
    1814:	0158                	addi	a4,sp,132
    1816:	045e                	slli	s0,s0,0x17
    1818:	6058                	ld	a4,128(s0)
    181a:	9f027f03          	.insn	4, 0x9f027f03
    181e:	6004                	ld	s1,0(s0)
    1820:	0168                	addi	a0,sp,140
    1822:	045e                	slli	s0,s0,0x17
    1824:	7068                	ld	a0,224(s0)
    1826:	9f037f03          	.insn	4, 0x9f037f03
    182a:	7004                	ld	s1,32(s0)
    182c:	0178                	addi	a4,sp,140
    182e:	045e                	slli	s0,s0,0x17
    1830:	8078                	.insn	2, 0x8078
    1832:	0301                	addi	t1,t1,0
    1834:	047f 049f 0180 0188 	.insn	10, 0x5e0101880180049f047f
    183c:	5e01 
    183e:	8804                	.insn	2, 0x8804
    1840:	9001                	srli	s0,s0,0x20
    1842:	0301                	addi	t1,t1,0
    1844:	057f 049f 0190 0198 	.insn	10, 0x5e0101980190049f057f
    184c:	5e01 
    184e:	9804                	.insn	2, 0x9804
    1850:	a001                	j	1850 <_start-0x7fffe7b0>
    1852:	0301                	addi	t1,t1,0
    1854:	067f 049f 01a0 01a8 	.insn	10, 0x5e0101a801a0049f067f
    185c:	5e01 
    185e:	a804                	fsd	fs1,16(s0)
    1860:	b201                	j	1160 <_start-0x7fffeea0>
    1862:	0301                	addi	t1,t1,0
    1864:	077f 049f 01c8 01d2 	.insn	10, 0x5a0101d201c8049f077f
    186c:	5a01 
    186e:	d204                	sw	s1,32(a2)
    1870:	e201                	bnez	a2,1870 <_start-0x7fffe790>
    1872:	0101                	addi	sp,sp,0
    1874:	045f 01e4 01e6      	.insn	6, 0x01e601e4045f
    187a:	5a01                	li	s4,-32
    187c:	0600                	addi	s0,sp,768
    187e:	0dd6                	slli	s11,s11,0x15
    1880:	8000                	.insn	2, 0x8000
    1882:	0000                	unimp
    1884:	0000                	unimp
    1886:	0004                	.insn	2, 0x0004
    1888:	0106                	slli	sp,sp,0x1
    188a:	0c06045b          	.insn	4, 0x0c06045b
    188e:	9f087b03          	.insn	4, 0x9f087b03
    1892:	0c04                	addi	s1,sp,528
    1894:	0116                	slli	sp,sp,0x5
    1896:	d606005b          	.insn	4, 0xd606005b
    189a:	000d                	c.nop	3
    189c:	0080                	addi	s0,sp,64
    189e:	0000                	unimp
    18a0:	0400                	addi	s0,sp,512
    18a2:	0600                	addi	s0,sp,768
    18a4:	5a01                	li	s4,-32
    18a6:	0604                	addi	s1,sp,768
    18a8:	010a                	slli	sp,sp,0x2
    18aa:	045f 0c0a 7f03      	.insn	6, 0x7f030c0a045f
    18b0:	9f78                	.insn	2, 0x9f78
    18b2:	0c04                	addi	s1,sp,528
    18b4:	0116                	slli	sp,sp,0x5
    18b6:	005f 0a06 000e      	.insn	6, 0x000e0a06005f
    18bc:	0080                	addi	s0,sp,64
    18be:	0000                	unimp
    18c0:	0400                	addi	s0,sp,512
    18c2:	2800                	fld	fs0,16(s0)
    18c4:	5b01                	li	s6,-32
    18c6:	2804                	fld	fs1,16(s0)
    18c8:	02f6                	slli	t0,t0,0x1d
    18ca:	a304                	fsd	fs1,0(a4)
    18cc:	5b01                	li	s6,-32
    18ce:	049f 02f6 03a0      	.insn	6, 0x03a002f6049f
    18d4:	5b01                	li	s6,-32
    18d6:	a004                	fsd	fs1,0(s0)
    18d8:	0403ba03          	ld	s4,64(t2)
    18dc:	9f5b01a3          	sb	s5,-1565(s6)
    18e0:	0600                	addi	s0,sp,768
    18e2:	0e0a                	slli	t3,t3,0x2
    18e4:	8000                	.insn	2, 0x8000
    18e6:	0000                	unimp
    18e8:	0000                	unimp
    18ea:	0004                	.insn	2, 0x0004
    18ec:	01a6                	slli	gp,gp,0x9
    18ee:	5c01                	li	s8,-32
    18f0:	a604                	fsd	fs1,8(a2)
    18f2:	f601                	bnez	a2,17fa <_start-0x7fffe806>
    18f4:	0402                	c.slli64	s0
    18f6:	9f5c01a3          	sb	s5,-1565(s8)
    18fa:	f604                	sd	s1,40(a2)
    18fc:	a602                	fsd	ft0,264(sp)
    18fe:	045c0103          	lb	sp,69(s8)
    1902:	03a6                	slli	t2,t2,0x9
    1904:	03a8                	addi	a0,sp,456
    1906:	a304                	fsd	fs1,0(a4)
    1908:	5c01                	li	s8,-32
    190a:	049f 03a8 03ba      	.insn	6, 0x03ba03a8049f
    1910:	5c01                	li	s8,-32
    1912:	0600                	addi	s0,sp,768
    1914:	0e18                	addi	a4,sp,784
    1916:	8000                	.insn	2, 0x8000
    1918:	0000                	unimp
    191a:	0000                	unimp
    191c:	0004                	.insn	2, 0x0004
    191e:	0128                	addi	a0,sp,136
    1920:	045a                	slli	s0,s0,0x16
    1922:	3428                	fld	fa0,104(s0)
    1924:	9f017a03          	.insn	4, 0x9f017a03
    1928:	3404                	fld	fs1,40(s0)
    192a:	033e                	slli	t1,t1,0xf
    192c:	027a                	slli	tp,tp,0x1e
    192e:	049f 483e 7a03      	.insn	6, 0x7a03483e049f
    1934:	48049f03          	lh	t5,1152(s1)
    1938:	014a                	slli	sp,sp,0x12
    193a:	544a045b          	.insn	4, 0x544a045b
    193e:	9f047a03          	.insn	4, 0x9f047a03
    1942:	5404                	lw	s1,40(s0)
    1944:	035e                	slli	t1,t1,0x17
    1946:	057a                	slli	a0,a0,0x1e
    1948:	049f 685e 7a03      	.insn	6, 0x7a03685e049f
    194e:	9f06                	add	t5,t5,ra
    1950:	6804                	ld	s1,16(s0)
    1952:	0174                	addi	a3,sp,140
    1954:	01c6045b          	.insn	4, 0x01c6045b
    1958:	01ce                	slli	gp,gp,0x13
    195a:	9f017f03          	.insn	4, 0x9f017f03
    195e:	ce04                	sw	s1,24(a2)
    1960:	d201                	beqz	a2,1860 <_start-0x7fffe7a0>
    1962:	0101                	addi	sp,sp,0
    1964:	045d                	addi	s0,s0,23
    1966:	01d2                	slli	gp,gp,0x14
    1968:	01da                	slli	gp,gp,0x16
    196a:	9f027f03          	.insn	4, 0x9f027f03
    196e:	da04                	sw	s1,48(a2)
    1970:	de01                	beqz	a2,1888 <_start-0x7fffe778>
    1972:	0101                	addi	sp,sp,0
    1974:	045d                	addi	s0,s0,23
    1976:	01de                	slli	gp,gp,0x17
    1978:	01e6                	slli	gp,gp,0x19
    197a:	9f037f03          	.insn	4, 0x9f037f03
    197e:	e604                	sd	s1,8(a2)
    1980:	ea01                	bnez	a2,1990 <_start-0x7fffe670>
    1982:	0101                	addi	sp,sp,0
    1984:	045d                	addi	s0,s0,23
    1986:	01ea                	slli	gp,gp,0x1a
    1988:	01f2                	slli	gp,gp,0x1c
    198a:	9f047f03          	.insn	4, 0x9f047f03
    198e:	f204                	sd	s1,32(a2)
    1990:	f601                	bnez	a2,1898 <_start-0x7fffe768>
    1992:	0101                	addi	sp,sp,0
    1994:	045d                	addi	s0,s0,23
    1996:	01f6                	slli	gp,gp,0x1d
    1998:	01fe                	slli	gp,gp,0x1f
    199a:	9f057f03          	.insn	4, 0x9f057f03
    199e:	fe04                	sd	s1,56(a2)
    19a0:	8201                	c.srli64	a2
    19a2:	0102                	c.slli64	sp
    19a4:	045d                	addi	s0,s0,23
    19a6:	0282                	c.slli64	t0
    19a8:	028a                	slli	t0,t0,0x2
    19aa:	9f067f03          	.insn	4, 0x9f067f03
    19ae:	8a04                	.insn	2, 0x8a04
    19b0:	8e02                	jr	t3
    19b2:	0102                	c.slli64	sp
    19b4:	045d                	addi	s0,s0,23
    19b6:	028e                	slli	t0,t0,0x3
    19b8:	0296                	slli	t0,t0,0x5
    19ba:	9f077f03          	.insn	4, 0x9f077f03
    19be:	9604                	.insn	2, 0x9604
    19c0:	9a02                	jalr	s4
    19c2:	0102                	c.slli64	sp
    19c4:	045d                	addi	s0,s0,23
    19c6:	029a                	slli	t0,t0,0x6
    19c8:	02a2                	slli	t0,t0,0x8
    19ca:	9f087f03          	.insn	4, 0x9f087f03
    19ce:	a204                	fsd	fs1,0(a2)
    19d0:	a602                	fsd	ft0,264(sp)
    19d2:	0102                	c.slli64	sp
    19d4:	045d                	addi	s0,s0,23
    19d6:	02a6                	slli	t0,t0,0x9
    19d8:	02ae                	slli	t0,t0,0xb
    19da:	9f097f03          	.insn	4, 0x9f097f03
    19de:	ae04                	fsd	fs1,24(a2)
    19e0:	b202                	fsd	ft0,288(sp)
    19e2:	0102                	c.slli64	sp
    19e4:	045d                	addi	s0,s0,23
    19e6:	02b2                	slli	t0,t0,0xc
    19e8:	02ba                	slli	t0,t0,0xe
    19ea:	9f0a7f03          	.insn	4, 0x9f0a7f03
    19ee:	ba04                	fsd	fs1,48(a2)
    19f0:	be02                	fsd	ft0,312(sp)
    19f2:	0102                	c.slli64	sp
    19f4:	045d                	addi	s0,s0,23
    19f6:	02be                	slli	t0,t0,0xf
    19f8:	02c6                	slli	t0,t0,0x11
    19fa:	9f0b7f03          	.insn	4, 0x9f0b7f03
    19fe:	c604                	sw	s1,8(a2)
    1a00:	ca02                	sw	zero,20(sp)
    1a02:	0102                	c.slli64	sp
    1a04:	045d                	addi	s0,s0,23
    1a06:	02ca                	slli	t0,t0,0x12
    1a08:	02d2                	slli	t0,t0,0x14
    1a0a:	9f0c7f03          	.insn	4, 0x9f0c7f03
    1a0e:	d204                	sw	s1,32(a2)
    1a10:	d602                	sw	zero,44(sp)
    1a12:	0102                	c.slli64	sp
    1a14:	045d                	addi	s0,s0,23
    1a16:	02d6                	slli	t0,t0,0x15
    1a18:	02de                	slli	t0,t0,0x17
    1a1a:	9f0d7f03          	.insn	4, 0x9f0d7f03
    1a1e:	de04                	sw	s1,56(a2)
    1a20:	e202                	sd	zero,256(sp)
    1a22:	0102                	c.slli64	sp
    1a24:	045d                	addi	s0,s0,23
    1a26:	02e2                	slli	t0,t0,0x18
    1a28:	02e6                	slli	t0,t0,0x19
    1a2a:	9f0e7f03          	.insn	4, 0x9f0e7f03
    1a2e:	9004                	.insn	2, 0x9004
    1a30:	01039203          	lh	tp,16(t2)
    1a34:	045a                	slli	s0,s0,0x16
    1a36:	039a                	slli	t2,t2,0x6
    1a38:	03a0                	addi	s0,sp,456
    1a3a:	9f017a03          	.insn	4, 0x9f017a03
    1a3e:	a004                	fsd	fs1,0(s0)
    1a40:	0103a803          	lw	a6,16(t2)
    1a44:	045a                	slli	s0,s0,0x16
    1a46:	03a8                	addi	a0,sp,456
    1a48:	03ac                	addi	a1,sp,456
    1a4a:	9f027a03          	.insn	4, 0x9f027a03
    1a4e:	0800                	addi	s0,sp,16
    1a50:	0f80                	addi	s0,sp,976
    1a52:	8000                	.insn	2, 0x8000
    1a54:	0000                	unimp
    1a56:	0000                	unimp
    1a58:	0128                	addi	a0,sp,136
    1a5a:	005a                	c.slli	zero,0x16
    1a5c:	8008                	.insn	2, 0x8008
    1a5e:	0080000f          	fence	unknown,i
    1a62:	0000                	unimp
    1a64:	2800                	fld	fs0,16(s0)
    1a66:	5b01                	li	s6,-32
    1a68:	0800                	addi	s0,sp,16
    1a6a:	0f80                	addi	s0,sp,976
    1a6c:	8000                	.insn	2, 0x8000
    1a6e:	0000                	unimp
    1a70:	0000                	unimp
    1a72:	0128                	addi	a0,sp,136
    1a74:	005c                	addi	a5,sp,4
    1a76:	8006                	c.mv	zero,ra
    1a78:	0080000f          	fence	unknown,i
    1a7c:	0000                	unimp
    1a7e:	0400                	addi	s0,sp,512
    1a80:	1600                	addi	s0,sp,800
    1a82:	7b12                	ld	s6,288(sp)
    1a84:	0800                	addi	s0,sp,16
    1a86:	ff0c1aff 1affffff 	.insn	12, 0x0101010c1affffffff0c1aff
    1a8e:	0101010c 
    1a92:	1e01                	addi	t3,t3,-32
    1a94:	049f 2816 5e01      	.insn	6, 0x5e012816049f
    1a9a:	0600                	addi	s0,sp,768
    1a9c:	0f96                	slli	t6,t6,0x5
    1a9e:	8000                	.insn	2, 0x8000
    1aa0:	0000                	unimp
    1aa2:	0000                	unimp
    1aa4:	0004                	.insn	2, 0x0004
    1aa6:	0106                	slli	sp,sp,0x1
    1aa8:	045a                	slli	s0,s0,0x16
    1aaa:	1206                	slli	tp,tp,0x21
    1aac:	5f01                	li	t5,-32
    1aae:	0600                	addi	s0,sp,768
    1ab0:	10b8                	addi	a4,sp,104
    1ab2:	8000                	.insn	2, 0x8000
    1ab4:	0000                	unimp
    1ab6:	0000                	unimp
    1ab8:	0004                	.insn	2, 0x0004
    1aba:	011a                	slli	sp,sp,0x6
    1abc:	045a                	slli	s0,s0,0x16
    1abe:	1c1a                	slli	s8,s8,0x26
    1ac0:	a304                	fsd	fs1,0(a4)
    1ac2:	5a01                	li	s4,-32
    1ac4:	049f 1e1c 5a01      	.insn	6, 0x5a011e1c049f
    1aca:	1e04                	addi	s1,sp,816
    1acc:	0420                	addi	s0,sp,520
    1ace:	9f5a01a3          	sb	s5,-1565(s4)
    1ad2:	2004                	fld	fs1,0(s0)
    1ad4:	0122                	slli	sp,sp,0x8
    1ad6:	045a                	slli	s0,s0,0x16
    1ad8:	2422                	fld	fs0,8(sp)
    1ada:	5f01                	li	t5,-32
    1adc:	0600                	addi	s0,sp,768
    1ade:	10b8                	addi	a4,sp,104
    1ae0:	8000                	.insn	2, 0x8000
    1ae2:	0000                	unimp
    1ae4:	0000                	unimp
    1ae6:	0004                	.insn	2, 0x0004
    1ae8:	0100                	addi	s0,sp,128
    1aea:	0a00045b          	.insn	4, 0x0a00045b
    1aee:	9f7f7b03          	.insn	4, 0x9f7f7b03
    1af2:	0a04                	addi	s1,sp,272
    1af4:	0a1a                	slli	s4,s4,0x6
    1af6:	007f 7a20 2200 007b 	.insn	10, 0x9f22007b22007a20007f
    1afe:	9f22 
    1b00:	1a04                	addi	s1,sp,304
    1b02:	0b1c                	addi	a5,sp,400
    1b04:	007f 7b20 2200 01a3 	.insn	10, 0x225a01a322007b20007f
    1b0c:	225a 
    1b0e:	049f 1e1c 7f0a      	.insn	6, 0x7f0a1e1c049f
    1b14:	2000                	fld	fs0,0(s0)
    1b16:	007a                	c.slli	zero,0x1e
    1b18:	7b22                	ld	s6,40(sp)
    1b1a:	2200                	fld	fs0,0(a2)
    1b1c:	049f 201e 7f0b      	.insn	6, 0x7f0b201e049f
    1b22:	2000                	fld	fs0,0(s0)
    1b24:	a322007b          	.insn	4, 0xa322007b
    1b28:	5a01                	li	s4,-32
    1b2a:	9f22                	add	t5,t5,s0
    1b2c:	2004                	fld	fs1,0(s0)
    1b2e:	0324                	addi	s1,sp,392
    1b30:	009f7f7b          	.insn	4, 0x009f7f7b
    1b34:	b806                	fsd	ft1,48(sp)
    1b36:	0010                	.insn	2, 0x0010
    1b38:	0080                	addi	s0,sp,64
    1b3a:	0000                	unimp
    1b3c:	0400                	addi	s0,sp,512
    1b3e:	0a00                	addi	s0,sp,272
    1b40:	5a01                	li	s4,-32
    1b42:	0a04                	addi	s1,sp,272
    1b44:	0120                	addi	s0,sp,136
    1b46:	045f 2220 5a01      	.insn	6, 0x5a012220045f
    1b4c:	2204                	fld	fs1,0(a2)
    1b4e:	0124                	addi	s1,sp,136
    1b50:	Address 0x1b50 is out of bounds.


Disassembly of section .debug_aranges:

0000000000000000 <.debug_aranges>:
   0:	003c                	addi	a5,sp,8
   2:	0000                	unimp
   4:	0002                	c.slli64	zero
   6:	0000                	unimp
   8:	0000                	unimp
   a:	0008                	.insn	2, 0x0008
   c:	0000                	unimp
   e:	0000                	unimp
  10:	01c2                	slli	gp,gp,0x10
  12:	8000                	.insn	2, 0x8000
  14:	0000                	unimp
  16:	0000                	unimp
  18:	006e                	c.slli	zero,0x1b
  1a:	0000                	unimp
  1c:	0000                	unimp
  1e:	0000                	unimp
  20:	1176                	slli	sp,sp,0x3d
  22:	8000                	.insn	2, 0x8000
  24:	0000                	unimp
  26:	0000                	unimp
  28:	01d8                	addi	a4,sp,196
	...
  3e:	0000                	unimp
  40:	002c                	addi	a1,sp,8
  42:	0000                	unimp
  44:	0002                	c.slli64	zero
  46:	0000048b          	.insn	4, 0x048b
  4a:	0008                	.insn	2, 0x0008
  4c:	0000                	unimp
  4e:	0000                	unimp
  50:	0000                	unimp
  52:	8000                	.insn	2, 0x8000
  54:	0000                	unimp
  56:	0000                	unimp
  58:	01c0                	addi	s0,sp,196
	...
  6e:	0000                	unimp
  70:	003c                	addi	a5,sp,8
  72:	0000                	unimp
  74:	0002                	c.slli64	zero
  76:	04b4                	addi	a3,sp,584
  78:	0000                	unimp
  7a:	0008                	.insn	2, 0x0008
  7c:	0000                	unimp
  7e:	0000                	unimp
  80:	0230                	addi	a2,sp,264
  82:	8000                	.insn	2, 0x8000
  84:	0000                	unimp
  86:	0000                	unimp
  88:	0f46                	slli	t5,t5,0x11
  8a:	0000                	unimp
  8c:	0000                	unimp
  8e:	0000                	unimp
  90:	134e                	slli	t1,t1,0x33
  92:	8000                	.insn	2, 0x8000
  94:	0000                	unimp
  96:	0000                	unimp
  98:	0030                	addi	a2,sp,8
	...

Disassembly of section .debug_rnglists:

0000000000000000 <.debug_rnglists>:
   0:	0082                	c.slli64	ra
   2:	0000                	unimp
   4:	0005                	c.nop	1
   6:	0008                	.insn	2, 0x0008
   8:	0000                	unimp
   a:	0000                	unimp
   c:	1405                	addi	s0,s0,-31
   e:	0002                	c.slli64	zero
  10:	0080                	addi	s0,sp,64
  12:	0000                	unimp
  14:	0400                	addi	s0,sp,512
  16:	0000                	unimp
  18:	0004                	.insn	2, 0x0004
  1a:	0406                	slli	s0,s0,0x1
  1c:	100a                	c.slli	zero,0x22
  1e:	0500                	addi	s0,sp,640
  20:	0214                	addi	a3,sp,256
  22:	8000                	.insn	2, 0x8000
  24:	0000                	unimp
  26:	0000                	unimp
  28:	0004                	.insn	2, 0x0004
  2a:	0400                	addi	s0,sp,512
  2c:	1210                	addi	a2,sp,288
  2e:	0500                	addi	s0,sp,640
  30:	1206                	slli	tp,tp,0x21
  32:	8000                	.insn	2, 0x8000
  34:	0000                	unimp
  36:	0000                	unimp
  38:	0004                	.insn	2, 0x0004
  3a:	01f6                	slli	gp,gp,0x1d
  3c:	8204                	.insn	2, 0x8204
  3e:	c802                	sw	zero,16(sp)
  40:	0002                	c.slli64	zero
  42:	0605                	addi	a2,a2,1
  44:	0012                	c.slli	zero,0x4
  46:	0080                	addi	s0,sp,64
  48:	0000                	unimp
  4a:	0400                	addi	s0,sp,512
  4c:	1e00                	addi	s0,sp,816
  4e:	1e04                	addi	s1,sp,816
  50:	043c                	addi	a5,sp,520
  52:	5a3c                	lw	a5,112(a2)
  54:	5a04                	lw	s1,48(a2)
  56:	0478                	addi	a4,sp,524
  58:	9678                	.insn	2, 0x9678
  5a:	0401                	addi	s0,s0,0
  5c:	0196                	slli	gp,gp,0x5
  5e:	01b4                	addi	a3,sp,200
  60:	b404                	fsd	fs1,40(s0)
  62:	d201                	beqz	a2,ffffffffffffff62 <__global_pointer$+0xffffffff7fffd71a>
  64:	0401                	addi	s0,s0,0
  66:	01d2                	slli	gp,gp,0x14
  68:	01f6                	slli	gp,gp,0x1d
  6a:	8404                	.insn	2, 0x8404
  6c:	c802                	sw	zero,16(sp)
  6e:	0002                	c.slli64	zero
  70:	0001c207          	.insn	4, 0x0001c207
  74:	0080                	addi	s0,sp,64
  76:	0000                	unimp
  78:	6e00                	ld	s0,24(a2)
  7a:	00117607          	.insn	4, 0x00117607
  7e:	0080                	addi	s0,sp,64
  80:	0000                	unimp
  82:	d800                	sw	s0,48(s0)
  84:	04000003          	lb	zero,64(zero) # 40 <_start-0x7fffffc0>
  88:	0000                	unimp
  8a:	0005                	c.nop	1
  8c:	0008                	.insn	2, 0x0008
  8e:	0000                	unimp
  90:	0000                	unimp
  92:	3005                	.insn	2, 0x3005
  94:	0002                	c.slli64	zero
  96:	0080                	addi	s0,sp,64
  98:	0000                	unimp
  9a:	0400                	addi	s0,sp,512
  9c:	0400                	addi	s0,sp,512
  9e:	0804                	addi	s1,sp,16
  a0:	001c                	.insn	2, 0x001c
  a2:	7005                	c.lui	zero,0xfffe1
  a4:	0002                	c.slli64	zero
  a6:	0080                	addi	s0,sp,64
  a8:	0000                	unimp
  aa:	0400                	addi	s0,sp,512
  ac:	0200                	addi	s0,sp,256
  ae:	0404                	addi	s1,sp,512
  b0:	000e                	c.slli	zero,0x3
  b2:	d405                	beqz	s0,ffffffffffffffda <__global_pointer$+0xffffffff7fffd792>
  b4:	0002                	c.slli64	zero
  b6:	0080                	addi	s0,sp,64
  b8:	0000                	unimp
  ba:	0400                	addi	s0,sp,512
  bc:	0600                	addi	s0,sp,768
  be:	0804                	addi	s1,sp,16
  c0:	0412                	slli	s0,s0,0x4
  c2:	1612                	slli	a2,a2,0x24
  c4:	0500                	addi	s0,sp,640
  c6:	033a                	slli	t1,t1,0xe
  c8:	8000                	.insn	2, 0x8000
  ca:	0000                	unimp
  cc:	0000                	unimp
  ce:	0004                	.insn	2, 0x0004
  d0:	0410                	addi	a2,sp,512
  d2:	1210                	addi	a2,sp,288
  d4:	0500                	addi	s0,sp,640
  d6:	0358                	addi	a4,sp,388
  d8:	8000                	.insn	2, 0x8000
  da:	0000                	unimp
  dc:	0000                	unimp
  de:	0004                	.insn	2, 0x0004
  e0:	0406                	slli	s0,s0,0x1
  e2:	100a                	c.slli	zero,0x22
  e4:	1604                	addi	s1,sp,800
  e6:	001e                	c.slli	zero,0x7
  e8:	5e05                	li	t3,-31
  ea:	00800003          	lb	zero,8(zero) # 8 <_start-0x7ffffff8>
  ee:	0000                	unimp
  f0:	0400                	addi	s0,sp,512
  f2:	0400                	addi	s0,sp,512
  f4:	0a04                	addi	s1,sp,272
  f6:	0410                	addi	a2,sp,512
  f8:	2218                	fld	fa4,0(a2)
  fa:	0500                	addi	s0,sp,640
  fc:	0380                	addi	s0,sp,448
  fe:	8000                	.insn	2, 0x8000
 100:	0000                	unimp
 102:	0000                	unimp
 104:	0004                	.insn	2, 0x0004
 106:	0404                	addi	s1,sp,512
 108:	019c                	addi	a5,sp,192
 10a:	019e                	slli	gp,gp,0x7
 10c:	a404                	fsd	fs1,8(s0)
 10e:	b401                	j	fffffffffffffb0e <__global_pointer$+0xffffffff7fffd2c6>
 110:	0001                	nop
 112:	8405                	srai	s0,s0,0x1
 114:	00800003          	lb	zero,8(zero) # 8 <_start-0x7ffffff8>
 118:	0000                	unimp
 11a:	0400                	addi	s0,sp,512
 11c:	7000                	ld	s0,32(s0)
 11e:	c404                	sw	s1,8(s0)
 120:	0003c803          	lbu	a6,0(t2)
 124:	b605                	j	fffffffffffffc44 <__global_pointer$+0xffffffff7fffd3fc>
 126:	00800003          	lb	zero,8(zero) # 8 <_start-0x7ffffff8>
 12a:	0000                	unimp
 12c:	0400                	addi	s0,sp,512
 12e:	0600                	addi	s0,sp,768
 130:	0804                	addi	s1,sp,16
 132:	000c                	.insn	2, 0x000c
 134:	d405                	beqz	s0,5c <_start-0x7fffffa4>
 136:	00800003          	lb	zero,8(zero) # 8 <_start-0x7ffffff8>
 13a:	0000                	unimp
 13c:	0400                	addi	s0,sp,512
 13e:	0000                	unimp
 140:	0404                	addi	s1,sp,512
 142:	040a                	slli	s0,s0,0x2
 144:	100c                	addi	a1,sp,32
 146:	1a04                	addi	s1,sp,304
 148:	001a                	c.slli	zero,0x6
 14a:	f405                	bnez	s0,72 <_start-0x7fffff8e>
 14c:	00800003          	lb	zero,8(zero) # 8 <_start-0x7ffffff8>
 150:	0000                	unimp
 152:	0400                	addi	s0,sp,512
 154:	0200                	addi	s0,sp,256
 156:	0604                	addi	s1,sp,768
 158:	0410                	addi	a2,sp,512
 15a:	02d8                	addi	a4,sp,324
 15c:	02dc                	addi	a5,sp,324
 15e:	0500                	addi	s0,sp,640
 160:	0404                	addi	s1,sp,512
 162:	8000                	.insn	2, 0x8000
 164:	0000                	unimp
 166:	0000                	unimp
 168:	0004                	.insn	2, 0x0004
 16a:	0402                	c.slli64	s0
 16c:	1c1a                	slli	s8,s8,0x26
 16e:	8e04                	.insn	2, 0x8e04
 170:	9001                	srli	s0,s0,0x20
 172:	0401                	addi	s0,s0,0
 174:	02b2                	slli	t0,t0,0xc
 176:	02b6                	slli	t0,t0,0xd
 178:	b804                	fsd	fs1,48(s0)
 17a:	c202                	sw	zero,4(sp)
 17c:	0402                	c.slli64	s0
 17e:	02c2                	slli	t0,t0,0x10
 180:	02c4                	addi	s1,sp,324
 182:	0500                	addi	s0,sp,640
 184:	0470                	addi	a2,sp,524
 186:	8000                	.insn	2, 0x8000
 188:	0000                	unimp
 18a:	0000                	unimp
 18c:	0004                	.insn	2, 0x0004
 18e:	041a                	slli	s0,s0,0x6
 190:	1e1e                	slli	t3,t3,0x27
 192:	0500                	addi	s0,sp,640
 194:	0494                	addi	a3,sp,576
 196:	8000                	.insn	2, 0x8000
 198:	0000                	unimp
 19a:	0000                	unimp
 19c:	0004                	.insn	2, 0x0004
 19e:	0406                	slli	s0,s0,0x1
 1a0:	0c08                	addi	a0,sp,528
 1a2:	0500                	addi	s0,sp,640
 1a4:	04b0                	addi	a2,sp,584
 1a6:	8000                	.insn	2, 0x8000
 1a8:	0000                	unimp
 1aa:	0000                	unimp
 1ac:	0004                	.insn	2, 0x0004
 1ae:	0402                	c.slli64	s0
 1b0:	0e08                	addi	a0,sp,784
 1b2:	1004                	addi	s1,sp,32
 1b4:	0414                	addi	a3,sp,512
 1b6:	201a                	fld	ft0,384(sp)
 1b8:	2204                	fld	fs1,0(a2)
 1ba:	0426                	slli	s0,s0,0x9
 1bc:	5c58                	lw	a4,60(s0)
 1be:	6004                	ld	s1,0(s0)
 1c0:	006a                	c.slli	zero,0x1a
 1c2:	e805                	bnez	s0,1f2 <_start-0x7ffffe0e>
 1c4:	0004                	.insn	2, 0x0004
 1c6:	0080                	addi	s0,sp,64
 1c8:	0000                	unimp
 1ca:	0400                	addi	s0,sp,512
 1cc:	0600                	addi	s0,sp,768
 1ce:	0604                	addi	s1,sp,768
 1d0:	040c                	addi	a1,sp,512
 1d2:	120e                	slli	tp,tp,0x23
 1d4:	0500                	addi	s0,sp,640
 1d6:	0558                	addi	a4,sp,644
 1d8:	8000                	.insn	2, 0x8000
 1da:	0000                	unimp
 1dc:	0000                	unimp
 1de:	0004                	.insn	2, 0x0004
 1e0:	040a                	slli	s0,s0,0x2
 1e2:	1410                	addi	a2,sp,544
 1e4:	0500                	addi	s0,sp,640
 1e6:	0570                	addi	a2,sp,652
 1e8:	8000                	.insn	2, 0x8000
 1ea:	0000                	unimp
 1ec:	0000                	unimp
 1ee:	0004                	.insn	2, 0x0004
 1f0:	0406                	slli	s0,s0,0x1
 1f2:	0e0a                	slli	t3,t3,0x2
 1f4:	1604                	addi	s1,sp,800
 1f6:	0416                	slli	s0,s0,0x5
 1f8:	3426                	fld	fs0,104(sp)
 1fa:	9e04                	.insn	2, 0x9e04
 1fc:	9e01                	subw	a2,a2,s0
 1fe:	0401                	addi	s0,s0,0
 200:	01b0                	addi	a2,sp,200
 202:	01be                	slli	gp,gp,0xf
 204:	0500                	addi	s0,sp,640
 206:	0570                	addi	a2,sp,652
 208:	8000                	.insn	2, 0x8000
 20a:	0000                	unimp
 20c:	0000                	unimp
 20e:	0004                	.insn	2, 0x0004
 210:	0406                	slli	s0,s0,0x1
 212:	0e0a                	slli	t3,t3,0x2
 214:	2604                	fld	fs1,8(a2)
 216:	0434                	addi	a3,sp,520
 218:	01b0                	addi	a2,sp,200
 21a:	01be                	slli	gp,gp,0xf
 21c:	0500                	addi	s0,sp,640
 21e:	05fa                	slli	a1,a1,0x1e
 220:	8000                	.insn	2, 0x8000
 222:	0000                	unimp
 224:	0000                	unimp
 226:	0004                	.insn	2, 0x0004
 228:	040e                	slli	s0,s0,0x3
 22a:	1410                	addi	a2,sp,544
 22c:	5604                	lw	s1,40(a2)
 22e:	0464                	addi	s1,sp,524
 230:	6a66                	ld	s4,88(sp)
 232:	0500                	addi	s0,sp,640
 234:	05fa                	slli	a1,a1,0x1e
 236:	8000                	.insn	2, 0x8000
 238:	0000                	unimp
 23a:	0000                	unimp
 23c:	0004                	.insn	2, 0x0004
 23e:	040e                	slli	s0,s0,0x3
 240:	1410                	addi	a2,sp,544
 242:	5604                	lw	s1,40(a2)
 244:	0464                	addi	s1,sp,524
 246:	6a66                	ld	s4,88(sp)
 248:	0500                	addi	s0,sp,640
 24a:	05fa                	slli	a1,a1,0x1e
 24c:	8000                	.insn	2, 0x8000
 24e:	0000                	unimp
 250:	0000                	unimp
 252:	0004                	.insn	2, 0x0004
 254:	040e                	slli	s0,s0,0x3
 256:	1410                	addi	a2,sp,544
 258:	5604                	lw	s1,40(a2)
 25a:	0464                	addi	s1,sp,524
 25c:	6a66                	ld	s4,88(sp)
 25e:	0500                	addi	s0,sp,640
 260:	06da                	slli	a3,a3,0x16
 262:	8000                	.insn	2, 0x8000
 264:	0000                	unimp
 266:	0000                	unimp
 268:	0004                	.insn	2, 0x0004
 26a:	0402                	c.slli64	s0
 26c:	1406                	slli	s0,s0,0x21
 26e:	9804                	.insn	2, 0x9804
 270:	9804                	.insn	2, 0x9804
 272:	0404                	addi	s1,sp,512
 274:	049e                	slli	s1,s1,0x7
 276:	04a4                	addi	s1,sp,584
 278:	0500                	addi	s0,sp,640
 27a:	06ee                	slli	a3,a3,0x1b
 27c:	8000                	.insn	2, 0x8000
 27e:	0000                	unimp
 280:	0000                	unimp
 282:	0004                	.insn	2, 0x0004
 284:	0192                	slli	gp,gp,0x4
 286:	e604                	sd	s1,8(a2)
 288:	ea04                	sd	s1,16(a2)
 28a:	0004                	.insn	2, 0x0004
 28c:	1405                	addi	s0,s0,-31
 28e:	00800007          	.insn	4, 0x00800007
 292:	0000                	unimp
 294:	0400                	addi	s0,sp,512
 296:	0600                	addi	s0,sp,768
 298:	0e04                	addi	s1,sp,784
 29a:	0412                	slli	s0,s0,0x4
 29c:	2416                	fld	fs0,320(sp)
 29e:	0500                	addi	s0,sp,640
 2a0:	0740                	addi	s0,sp,900
 2a2:	8000                	.insn	2, 0x8000
 2a4:	0000                	unimp
 2a6:	0000                	unimp
 2a8:	0004                	.insn	2, 0x0004
 2aa:	040e                	slli	s0,s0,0x3
 2ac:	1410                	addi	a2,sp,544
 2ae:	2404                	fld	fs1,8(s0)
 2b0:	0424                	addi	s1,sp,520
 2b2:	3826                	fld	fa6,104(sp)
 2b4:	0500                	addi	s0,sp,640
 2b6:	0740                	addi	s0,sp,900
 2b8:	8000                	.insn	2, 0x8000
 2ba:	0000                	unimp
 2bc:	0000                	unimp
 2be:	0004                	.insn	2, 0x0004
 2c0:	040e                	slli	s0,s0,0x3
 2c2:	1410                	addi	a2,sp,544
 2c4:	2a04                	fld	fs1,16(a2)
 2c6:	0038                	addi	a4,sp,8
 2c8:	c205                	beqz	a2,2e8 <_start-0x7ffffd18>
 2ca:	00800007          	.insn	4, 0x00800007
 2ce:	0000                	unimp
 2d0:	0400                	addi	s0,sp,512
 2d2:	1c00                	addi	s0,sp,560
 2d4:	2004                	fld	fs1,0(s0)
 2d6:	0020                	addi	s0,sp,8
 2d8:	0c05                	addi	s8,s8,1
 2da:	0008                	.insn	2, 0x0008
 2dc:	0080                	addi	s0,sp,64
 2de:	0000                	unimp
 2e0:	0400                	addi	s0,sp,512
 2e2:	0600                	addi	s0,sp,768
 2e4:	0804                	addi	s1,sp,16
 2e6:	040c                	addi	a1,sp,512
 2e8:	2618                	fld	fa4,8(a2)
 2ea:	f204                	sd	s1,32(a2)
 2ec:	f801                	bnez	s0,1fc <_start-0x7ffffe04>
 2ee:	0401                	addi	s0,s0,0
 2f0:	01fa                	slli	gp,gp,0x1e
 2f2:	028c                	addi	a1,sp,320
 2f4:	0500                	addi	s0,sp,640
 2f6:	0856                	slli	a6,a6,0x15
 2f8:	8000                	.insn	2, 0x8000
 2fa:	0000                	unimp
 2fc:	0000                	unimp
 2fe:	0004                	.insn	2, 0x0004
 300:	0402                	c.slli64	s0
 302:	1006                	c.slli	zero,0x21
 304:	8204                	.insn	2, 0x8204
 306:	8602                	jr	a2
 308:	0002                	c.slli64	zero
 30a:	9405                	srai	s0,s0,0x21
 30c:	0008                	.insn	2, 0x0008
 30e:	0080                	addi	s0,sp,64
 310:	0000                	unimp
 312:	0400                	addi	s0,sp,512
 314:	0a00                	addi	s0,sp,272
 316:	0c04                	addi	s1,sp,528
 318:	041e                	slli	s0,s0,0x7
 31a:	201e                	fld	ft0,448(sp)
 31c:	0500                	addi	s0,sp,640
 31e:	0894                	addi	a3,sp,80
 320:	8000                	.insn	2, 0x8000
 322:	0000                	unimp
 324:	0000                	unimp
 326:	0004                	.insn	2, 0x0004
 328:	0404                	addi	s1,sp,512
 32a:	0a08                	addi	a0,sp,272
 32c:	0c04                	addi	s1,sp,528
 32e:	001e                	c.slli	zero,0x7
 330:	ba05                	j	fffffffffffffc60 <__global_pointer$+0xffffffff7fffd418>
 332:	0008                	.insn	2, 0x0008
 334:	0080                	addi	s0,sp,64
 336:	0000                	unimp
 338:	0400                	addi	s0,sp,512
 33a:	1800                	addi	s0,sp,48
 33c:	1c04                	addi	s1,sp,560
 33e:	0020                	addi	s0,sp,8
 340:	d205                	beqz	a2,260 <_start-0x7ffffda0>
 342:	0008                	.insn	2, 0x0008
 344:	0080                	addi	s0,sp,64
 346:	0000                	unimp
 348:	0400                	addi	s0,sp,512
 34a:	0400                	addi	s0,sp,512
 34c:	0804                	addi	s1,sp,16
 34e:	0420                	addi	s0,sp,520
 350:	2620                	fld	fs0,72(a2)
 352:	0500                	addi	s0,sp,640
 354:	0964                	addi	s1,sp,156
 356:	8000                	.insn	2, 0x8000
 358:	0000                	unimp
 35a:	0000                	unimp
 35c:	0004                	.insn	2, 0x0004
 35e:	041c                	addi	a5,sp,512
 360:	1e1c                	addi	a5,sp,816
 362:	0500                	addi	s0,sp,640
 364:	09c6                	slli	s3,s3,0x11
 366:	8000                	.insn	2, 0x8000
 368:	0000                	unimp
 36a:	0000                	unimp
 36c:	0004                	.insn	2, 0x0004
 36e:	040a                	slli	s0,s0,0x2
 370:	1a0c                	addi	a1,sp,304
 372:	0500                	addi	s0,sp,640
 374:	09e8                	addi	a0,sp,220
 376:	8000                	.insn	2, 0x8000
 378:	0000                	unimp
 37a:	0000                	unimp
 37c:	0004                	.insn	2, 0x0004
 37e:	040c                	addi	a1,sp,512
 380:	2414                	fld	fa3,8(s0)
 382:	0500                	addi	s0,sp,640
 384:	09f4                	addi	a3,sp,220
 386:	8000                	.insn	2, 0x8000
 388:	0000                	unimp
 38a:	0000                	unimp
 38c:	0004                	.insn	2, 0x0004
 38e:	0406                	slli	s0,s0,0x1
 390:	2c18                	fld	fa4,24(s0)
 392:	0500                	addi	s0,sp,640
 394:	09f4                	addi	a3,sp,220
 396:	8000                	.insn	2, 0x8000
 398:	0000                	unimp
 39a:	0000                	unimp
 39c:	0004                	.insn	2, 0x0004
 39e:	0404                	addi	s1,sp,512
 3a0:	1c18                	addi	a4,sp,560
 3a2:	0500                	addi	s0,sp,640
 3a4:	0a60                	addi	s0,sp,284
 3a6:	8000                	.insn	2, 0x8000
 3a8:	0000                	unimp
 3aa:	0000                	unimp
 3ac:	0004                	.insn	2, 0x0004
 3ae:	040a                	slli	s0,s0,0x2
 3b0:	1a0c                	addi	a1,sp,304
 3b2:	0500                	addi	s0,sp,640
 3b4:	0a88                	addi	a0,sp,336
 3b6:	8000                	.insn	2, 0x8000
 3b8:	0000                	unimp
 3ba:	0000                	unimp
 3bc:	0004                	.insn	2, 0x0004
 3be:	040a                	slli	s0,s0,0x2
 3c0:	1a0c                	addi	a1,sp,304
 3c2:	0500                	addi	s0,sp,640
 3c4:	134e                	slli	t1,t1,0x33
 3c6:	8000                	.insn	2, 0x8000
 3c8:	0000                	unimp
 3ca:	0000                	unimp
 3cc:	0004                	.insn	2, 0x0004
 3ce:	0406                	slli	s0,s0,0x1
 3d0:	1612                	slli	a2,a2,0x24
 3d2:	1804                	addi	s1,sp,48
 3d4:	0026                	c.slli	zero,0x9
 3d6:	8405                	srai	s0,s0,0x1
 3d8:	000c                	.insn	2, 0x000c
 3da:	0080                	addi	s0,sp,64
 3dc:	0000                	unimp
 3de:	0400                	addi	s0,sp,512
 3e0:	0400                	addi	s0,sp,512
 3e2:	0c04                	addi	s1,sp,528
 3e4:	040e                	slli	s0,s0,0x3
 3e6:	2a10                	fld	fa2,16(a2)
 3e8:	0500                	addi	s0,sp,640
 3ea:	0c84                	addi	s1,sp,592
 3ec:	8000                	.insn	2, 0x8000
 3ee:	0000                	unimp
 3f0:	0000                	unimp
 3f2:	0004                	.insn	2, 0x0004
 3f4:	0404                	addi	s1,sp,512
 3f6:	0e0c                	addi	a1,sp,784
 3f8:	1004                	addi	s1,sp,32
 3fa:	0414                	addi	a3,sp,512
 3fc:	2416                	fld	fs0,320(sp)
 3fe:	0500                	addi	s0,sp,640
 400:	0d1c                	addi	a5,sp,656
 402:	8000                	.insn	2, 0x8000
 404:	0000                	unimp
 406:	0000                	unimp
 408:	0004                	.insn	2, 0x0004
 40a:	0404                	addi	s1,sp,512
 40c:	ba08                	fsd	fa0,48(a2)
 40e:	0401                	addi	s0,s0,0
 410:	01d6                	slli	gp,gp,0x15
 412:	01ea                	slli	gp,gp,0x1a
 414:	0500                	addi	s0,sp,640
 416:	0e10                	addi	a2,sp,784
 418:	8000                	.insn	2, 0x8000
 41a:	0000                	unimp
 41c:	0000                	unimp
 41e:	0004                	.insn	2, 0x0004
 420:	0404                	addi	s1,sp,512
 422:	ee08                	sd	a0,24(a2)
 424:	0402                	c.slli64	s0
 426:	039a                	slli	t2,t2,0x6
 428:	03b4                	addi	a3,sp,456
 42a:	0500                	addi	s0,sp,640
 42c:	0fc4                	addi	s1,sp,980
 42e:	8000                	.insn	2, 0x8000
 430:	0000                	unimp
 432:	0000                	unimp
 434:	0004                	.insn	2, 0x0004
 436:	0400                	addi	s0,sp,512
 438:	0602                	c.slli64	a2
 43a:	0804                	addi	s1,sp,16
 43c:	040c                	addi	a1,sp,512
 43e:	120e                	slli	tp,tp,0x23
 440:	1604                	addi	s1,sp,800
 442:	0418                	addi	a4,sp,512
 444:	2420                	fld	fs0,72(s0)
 446:	2e04                	fld	fs1,24(a2)
 448:	0046                	c.slli	zero,0x11
 44a:	2405                	addiw	s0,s0,1
 44c:	0010                	.insn	2, 0x0010
 44e:	0080                	addi	s0,sp,64
 450:	0000                	unimp
 452:	0400                	addi	s0,sp,512
 454:	0c00                	addi	s0,sp,528
 456:	0e04                	addi	s1,sp,784
 458:	0410                	addi	a2,sp,512
 45a:	2c12                	fld	fs8,256(sp)
 45c:	5e04                	lw	s1,56(a2)
 45e:	00fa                	slli	ra,ra,0x1e
 460:	0500                	addi	s0,sp,640
 462:	105a                	c.slli	zero,0x36
 464:	8000                	.insn	2, 0x8000
 466:	0000                	unimp
 468:	0000                	unimp
 46a:	0004                	.insn	2, 0x0004
 46c:	0404                	addi	s1,sp,512
 46e:	0c06                	slli	s8,s8,0x1
 470:	0e04                	addi	s1,sp,784
 472:	001c                	.insn	2, 0x001c
 474:	00023007          	fld	ft0,0(tp) # 0 <_start-0x80000000>
 478:	0080                	addi	s0,sp,64
 47a:	0000                	unimp
 47c:	c600                	sw	s0,8(a2)
 47e:	071e                	slli	a4,a4,0x7
 480:	134e                	slli	t1,t1,0x33
 482:	8000                	.insn	2, 0x8000
 484:	0000                	unimp
 486:	0000                	unimp
 488:	0030                	addi	a2,sp,8

Disassembly of section .debug_line:

0000000000000000 <.debug_line>:
       0:	0775                	addi	a4,a4,29
       2:	0000                	unimp
       4:	0005                	c.nop	1
       6:	0008                	.insn	2, 0x0008
       8:	004e                	c.slli	zero,0x13
       a:	0000                	unimp
       c:	0101                	addi	sp,sp,0
       e:	fb01                	bnez	a4,ffffffffffffff1e <__global_pointer$+0xffffffff7fffd6d6>
      10:	0d0e                	slli	s10,s10,0x3
      12:	0100                	addi	s0,sp,128
      14:	0101                	addi	sp,sp,0
      16:	0001                	nop
      18:	0000                	unimp
      1a:	0001                	nop
      1c:	0100                	addi	s0,sp,128
      1e:	0101                	addi	sp,sp,0
      20:	051f 0000 0000      	.insn	6, 0x051f
      26:	0038                	addi	a4,sp,8
      28:	0000                	unimp
      2a:	0042                	c.slli	zero,0x10
      2c:	0000                	unimp
      2e:	0071                	c.nop	28
      30:	0000                	unimp
      32:	009c                	addi	a5,sp,64
      34:	0000                	unimp
      36:	0102                	c.slli64	sp
      38:	021f 060f 0031      	.insn	6, 0x0031060f021f
      3e:	0000                	unimp
      40:	3100                	fld	fs0,32(a0)
      42:	0000                	unimp
      44:	0000                	unimp
      46:	000000c3          	fmadd.s	ft1,ft0,ft0,ft0,rne
      4a:	ca01                	beqz	a2,5a <_start-0x7fffffa6>
      4c:	0000                	unimp
      4e:	0200                	addi	s0,sp,256
      50:	000000db          	.insn	4, 0x00db
      54:	0000e503          	lwu	a0,0(ra)
      58:	0400                	addi	s0,sp,512
      5a:	1c05                	addi	s8,s8,-31
      5c:	0900                	addi	s0,sp,144
      5e:	c202                	sw	zero,4(sp)
      60:	0001                	nop
      62:	0080                	addi	s0,sp,64
      64:	0000                	unimp
      66:	0300                	addi	s0,sp,384
      68:	010a                	slli	sp,sp,0x2
      6a:	0205                	addi	tp,tp,1 # 1 <_start-0x7fffffff>
      6c:	00090103          	lb	sp,0(s2)
      70:	0100                	addi	s0,sp,128
      72:	00090103          	lb	sp,0(s2)
      76:	0100                	addi	s0,sp,128
      78:	0306                	slli	t1,t1,0x1
      7a:	0901                	addi	s2,s2,0
      7c:	0000                	unimp
      7e:	0501                	addi	a0,a0,0
      80:	061c                	addi	a5,sp,768
      82:	04090303          	lb	t1,64(s2)
      86:	0100                	addi	s0,sp,128
      88:	0405                	addi	s0,s0,1
      8a:	00090103          	lb	sp,0(s2)
      8e:	0100                	addi	s0,sp,128
      90:	0605                	addi	a2,a2,1
      92:	00090103          	lb	sp,0(s2)
      96:	0100                	addi	s0,sp,128
      98:	00090303          	lb	t1,0(s2)
      9c:	0100                	addi	s0,sp,128
      9e:	0905                	addi	s2,s2,1
      a0:	0306                	slli	t1,t1,0x1
      a2:	097c                	addi	a5,sp,156
      a4:	0000                	unimp
      a6:	0501                	addi	a0,a0,0
      a8:	09010317          	auipc	t1,0x9010
      ac:	0004                	.insn	2, 0x0004
      ae:	0501                	addi	a0,a0,0
      b0:	0302                	c.slli64	t1
      b2:	0904                	addi	s1,sp,144
      b4:	0002                	c.slli64	zero
      b6:	0501                	addi	a0,a0,0
      b8:	0634                	addi	a3,sp,776
      ba:	04090603          	lb	a2,64(s2)
      be:	0100                	addi	s0,sp,128
      c0:	1305                	addi	t1,t1,-31 # 9010089 <_start-0x76feff77>
      c2:	0200                	addi	s0,sp,256
      c4:	0104                	addi	s1,sp,128
      c6:	0306                	slli	t1,t1,0x1
      c8:	0902                	c.slli64	s2
      ca:	0000                	unimp
      cc:	0501                	addi	a0,a0,0
      ce:	0606                	slli	a2,a2,0x1
      d0:	04097f03          	.insn	4, 0x04097f03
      d4:	0100                	addi	s0,sp,128
      d6:	00090103          	lb	sp,0(s2)
      da:	0100                	addi	s0,sp,128
      dc:	1105                	addi	sp,sp,-31
      de:	0200                	addi	s0,sp,256
      e0:	0104                	addi	s1,sp,128
      e2:	00090003          	lb	zero,0(s2)
      e6:	0100                	addi	s0,sp,128
      e8:	0c05                	addi	s8,s8,1
      ea:	0306                	slli	t1,t1,0x1
      ec:	0900                	addi	s0,sp,144
      ee:	0016                	c.slli	zero,0x5
      f0:	0501                	addi	a0,a0,0
      f2:	060a                	slli	a2,a2,0x2
      f4:	02090103          	lb	sp,32(s2)
      f8:	0100                	addi	s0,sp,128
      fa:	1a05                	addi	s4,s4,-31
      fc:	0200                	addi	s0,sp,256
      fe:	0204                	addi	s1,sp,256
     100:	00097f03          	.insn	4, 0x00097f03
     104:	0100                	addi	s0,sp,128
     106:	0f05                	addi	t5,t5,1
     108:	0306                	slli	t1,t1,0x1
     10a:	0901                	addi	s2,s2,0
     10c:	0000                	unimp
     10e:	0501                	addi	a0,a0,0
     110:	060a                	slli	a2,a2,0x2
     112:	04090103          	lb	sp,64(s2)
     116:	0100                	addi	s0,sp,128
     118:	1505                	addi	a0,a0,-31
     11a:	0200                	addi	s0,sp,256
     11c:	0104                	addi	s1,sp,128
     11e:	00090003          	lb	zero,0(s2)
     122:	0100                	addi	s0,sp,128
     124:	1a05                	addi	s4,s4,-31
     126:	0200                	addi	s0,sp,256
     128:	0204                	addi	s1,sp,256
     12a:	0306                	slli	t1,t1,0x1
     12c:	097e                	slli	s2,s2,0x1f
     12e:	0004                	.insn	2, 0x0004
     130:	0501                	addi	a0,a0,0
     132:	0011                	c.nop	4
     134:	0402                	c.slli64	s0
     136:	0601                	addi	a2,a2,0
     138:	02090003          	lb	zero,32(s2)
     13c:	0100                	addi	s0,sp,128
     13e:	1a05                	addi	s4,s4,-31
     140:	0200                	addi	s0,sp,256
     142:	0204                	addi	s1,sp,256
     144:	0a090003          	lb	zero,160(s2)
     148:	0100                	addi	s0,sp,128
     14a:	1105                	addi	sp,sp,-31
     14c:	0200                	addi	s0,sp,256
     14e:	0104                	addi	s1,sp,128
     150:	02090003          	lb	zero,32(s2)
     154:	0100                	addi	s0,sp,128
     156:	0a05                	addi	s4,s4,1
     158:	08090103          	lb	sp,128(s2)
     15c:	0100                	addi	s0,sp,128
     15e:	0f05                	addi	t5,t5,1
     160:	0306                	slli	t1,t1,0x1
     162:	0900                	addi	s0,sp,144
     164:	0000                	unimp
     166:	0501                	addi	a0,a0,0
     168:	060a                	slli	a2,a2,0x2
     16a:	04090103          	lb	sp,64(s2)
     16e:	0100                	addi	s0,sp,128
     170:	1505                	addi	a0,a0,-31
     172:	0200                	addi	s0,sp,256
     174:	0104                	addi	s1,sp,128
     176:	00090003          	lb	zero,0(s2)
     17a:	0100                	addi	s0,sp,128
     17c:	0c05                	addi	s8,s8,1
     17e:	0306                	slli	t1,t1,0x1
     180:	097e                	slli	s2,s2,0x1f
     182:	0000                	unimp
     184:	0501                	addi	a0,a0,0
     186:	060e                	slli	a2,a2,0x3
     188:	06090303          	lb	t1,96(s2)
     18c:	0100                	addi	s0,sp,128
     18e:	0405                	addi	s0,s0,1
     190:	00097003          	.insn	4, 0x00097003
     194:	0100                	addi	s0,sp,128
     196:	0605                	addi	a2,a2,1
     198:	00090103          	lb	sp,0(s2)
     19c:	0100                	addi	s0,sp,128
     19e:	00090303          	lb	t1,0(s2)
     1a2:	0100                	addi	s0,sp,128
     1a4:	0205                	addi	tp,tp,1 # 1 <_start-0x7fffffff>
     1a6:	00097603          	.insn	4, 0x00097603
     1aa:	0100                	addi	s0,sp,128
     1ac:	00090103          	lb	sp,0(s2)
     1b0:	0100                	addi	s0,sp,128
     1b2:	0f05                	addi	t5,t5,1
     1b4:	0306                	slli	t1,t1,0x1
     1b6:	0905                	addi	s2,s2,1
     1b8:	0000                	unimp
     1ba:	0501                	addi	a0,a0,0
     1bc:	0319                	addi	t1,t1,6
     1be:	0900                	addi	s0,sp,144
     1c0:	0002                	c.slli64	zero
     1c2:	0501                	addi	a0,a0,0
     1c4:	0015                	c.nop	5
     1c6:	0402                	c.slli64	s0
     1c8:	0301                	addi	t1,t1,0
     1ca:	0004090f          	.insn	4, 0x0004090f
     1ce:	0501                	addi	a0,a0,0
     1d0:	0309                	addi	t1,t1,2
     1d2:	0971                	addi	s2,s2,28
     1d4:	0004                	.insn	2, 0x0004
     1d6:	0501                	addi	a0,a0,0
     1d8:	09010317          	auipc	t1,0x9010
     1dc:	0004                	.insn	2, 0x0004
     1de:	0501                	addi	a0,a0,0
     1e0:	0309                	addi	t1,t1,2 # 90101da <_start-0x76fefe26>
     1e2:	097a                	slli	s2,s2,0x1e
     1e4:	0002                	c.slli64	zero
     1e6:	0501                	addi	a0,a0,0
     1e8:	04020013          	addi	zero,tp,64 # 40 <_start-0x7fffffc0>
     1ec:	0302                	c.slli64	t1
     1ee:	0915                	addi	s2,s2,5
     1f0:	0002                	c.slli64	zero
     1f2:	0501                	addi	a0,a0,0
     1f4:	001a                	c.slli	zero,0x6
     1f6:	0402                	c.slli64	s0
     1f8:	7f030603          	lb	a2,2032(t1)
     1fc:	0209                	addi	tp,tp,2 # 2 <_start-0x7ffffffe>
     1fe:	0100                	addi	s0,sp,128
     200:	1505                	addi	a0,a0,-31
     202:	0200                	addi	s0,sp,256
     204:	0104                	addi	s1,sp,128
     206:	00090003          	lb	zero,0(s2)
     20a:	0100                	addi	s0,sp,128
     20c:	0205                	addi	tp,tp,1 # 1 <_start-0x7fffffff>
     20e:	0306                	slli	t1,t1,0x1
     210:	00060903          	lb	s2,0(a2)
     214:	0901                	addi	s2,s2,0
     216:	0002                	c.slli64	zero
     218:	0100                	addi	s0,sp,128
     21a:	0501                	addi	a0,a0,0
     21c:	0010                	.insn	2, 0x0010
     21e:	0209                	addi	tp,tp,2 # 2 <_start-0x7ffffffe>
     220:	1176                	slli	sp,sp,0x3d
     222:	8000                	.insn	2, 0x8000
     224:	0000                	unimp
     226:	0000                	unimp
     228:	05012503          	lw	a0,80(sp)
     22c:	0305                	addi	t1,t1,1
     22e:	0901                	addi	s2,s2,0
     230:	0000                	unimp
     232:	0501                	addi	a0,a0,0
     234:	060d                	addi	a2,a2,3
     236:	00090003          	lb	zero,0(s2)
     23a:	0100                	addi	s0,sp,128
     23c:	0905                	addi	s2,s2,1
     23e:	26091603          	lh	a2,608(s2)
     242:	0100                	addi	s0,sp,128
     244:	1005                	c.nop	-31
     246:	10096903          	lwu	s2,256(s2)
     24a:	0100                	addi	s0,sp,128
     24c:	0505                	addi	a0,a0,1
     24e:	02092c03          	lw	s8,32(s2)
     252:	0100                	addi	s0,sp,128
     254:	1005                	c.nop	-31
     256:	02095403          	lhu	s0,32(s2)
     25a:	0100                	addi	s0,sp,128
     25c:	0d05                	addi	s10,s10,1
     25e:	02090103          	lb	sp,32(s2)
     262:	0100                	addi	s0,sp,128
     264:	0905                	addi	s2,s2,1
     266:	0e091603          	lh	a2,224(s2)
     26a:	0100                	addi	s0,sp,128
     26c:	1005                	c.nop	-31
     26e:	02096903          	lwu	s2,32(s2)
     272:	0100                	addi	s0,sp,128
     274:	0d05                	addi	s10,s10,1
     276:	06090103          	lb	sp,96(s2)
     27a:	0100                	addi	s0,sp,128
     27c:	0505                	addi	a0,a0,1
     27e:	0306                	slli	t1,t1,0x1
     280:	0916                	slli	s2,s2,0x5
     282:	0006                	c.slli	zero,0x1
     284:	0301                	addi	t1,t1,0
     286:	0901                	addi	s2,s2,0
     288:	0000                	unimp
     28a:	0301                	addi	t1,t1,0
     28c:	0901                	addi	s2,s2,0
     28e:	0000                	unimp
     290:	0301                	addi	t1,t1,0
     292:	00000913          	li	s2,0
     296:	0501                	addi	a0,a0,0
     298:	0609                	addi	a2,a2,2
     29a:	00096b03          	lwu	s6,0(s2)
     29e:	0100                	addi	s0,sp,128
     2a0:	0505                	addi	a0,a0,1
     2a2:	02091503          	lh	a0,32(s2)
     2a6:	0100                	addi	s0,sp,128
     2a8:	0306                	slli	t1,t1,0x1
     2aa:	0901                	addi	s2,s2,0
     2ac:	0004                	.insn	2, 0x0004
     2ae:	0301                	addi	t1,t1,0
     2b0:	0901                	addi	s2,s2,0
     2b2:	000e                	c.slli	zero,0x3
     2b4:	0301                	addi	t1,t1,0
     2b6:	0901                	addi	s2,s2,0
     2b8:	0006                	c.slli	zero,0x1
     2ba:	0501                	addi	a0,a0,0
     2bc:	030a                	slli	t1,t1,0x2
     2be:	0900                	addi	s0,sp,144
     2c0:	0000                	unimp
     2c2:	0501                	addi	a0,a0,0
     2c4:	0014                	.insn	2, 0x0014
     2c6:	0402                	c.slli64	s0
     2c8:	0301                	addi	t1,t1,0
     2ca:	0900                	addi	s0,sp,144
     2cc:	0000                	unimp
     2ce:	0501                	addi	a0,a0,0
     2d0:	060e                	slli	a2,a2,0x3
     2d2:	02090003          	lb	zero,32(s2)
     2d6:	0100                	addi	s0,sp,128
     2d8:	1405                	addi	s0,s0,-31
     2da:	0200                	addi	s0,sp,256
     2dc:	0104                	addi	s1,sp,128
     2de:	02090003          	lb	zero,32(s2)
     2e2:	0100                	addi	s0,sp,128
     2e4:	0905                	addi	s2,s2,1
     2e6:	0306                	slli	t1,t1,0x1
     2e8:	0901                	addi	s2,s2,0
     2ea:	0002                	c.slli64	zero
     2ec:	0501                	addi	a0,a0,0
     2ee:	001a                	c.slli	zero,0x6
     2f0:	0402                	c.slli64	s0
     2f2:	7f030603          	lb	a2,2032(t1)
     2f6:	0c09                	addi	s8,s8,2
     2f8:	0100                	addi	s0,sp,128
     2fa:	0905                	addi	s2,s2,1
     2fc:	02090103          	lb	sp,32(s2)
     300:	0100                	addi	s0,sp,128
     302:	1a05                	addi	s4,s4,-31
     304:	0200                	addi	s0,sp,256
     306:	0304                	addi	s1,sp,384
     308:	0306                	slli	t1,t1,0x1
     30a:	097f 0004 0501 0014 	.insn	10, 0x0402001405010004097f
     312:	0402 
     314:	0301                	addi	t1,t1,0
     316:	0900                	addi	s0,sp,144
     318:	0000                	unimp
     31a:	0401                	addi	s0,s0,0
     31c:	0502                	c.slli64	a0
     31e:	0305                	addi	t1,t1,1
     320:	7fbd                	lui	t6,0xfffef
     322:	0609                	addi	a2,a2,2
     324:	0100                	addi	s0,sp,128
     326:	0905                	addi	s2,s2,1
     328:	0306                	slli	t1,t1,0x1
     32a:	0900                	addi	s0,sp,144
     32c:	0000                	unimp
     32e:	0501                	addi	a0,a0,0
     330:	09000317          	auipc	t1,0x9000
     334:	0002                	c.slli64	zero
     336:	0501                	addi	a0,a0,0
     338:	0308                	addi	a0,sp,384
     33a:	0902                	c.slli64	s2
     33c:	0002                	c.slli64	zero
     33e:	0501                	addi	a0,a0,0
     340:	097e0317          	auipc	t1,0x97e0
     344:	0008                	.insn	2, 0x0008
     346:	0501                	addi	a0,a0,0
     348:	0605                	addi	a2,a2,1
     34a:	02090103          	lb	sp,32(s2)
     34e:	0100                	addi	s0,sp,128
     350:	00090103          	lb	sp,0(s2)
     354:	0100                	addi	s0,sp,128
     356:	0805                	addi	a6,a6,1
     358:	0306                	slli	t1,t1,0x1
     35a:	0900                	addi	s0,sp,144
     35c:	0000                	unimp
     35e:	0501                	addi	a0,a0,0
     360:	0605                	addi	a2,a2,1
     362:	04090103          	lb	sp,64(s2)
     366:	0100                	addi	s0,sp,128
     368:	0805                	addi	a6,a6,1
     36a:	0306                	slli	t1,t1,0x1
     36c:	0900                	addi	s0,sp,144
     36e:	0000                	unimp
     370:	0501                	addi	a0,a0,0
     372:	0402001b          	addiw	zero,tp,64 # 40 <_start-0x7fffffc0>
     376:	0602                	c.slli64	a2
     378:	0c097b03          	.insn	4, 0x0c097b03
     37c:	0100                	addi	s0,sp,128
     37e:	1105                	addi	sp,sp,-31
     380:	0200                	addi	s0,sp,256
     382:	0104                	addi	s1,sp,128
     384:	00090003          	lb	zero,0(s2)
     388:	0100                	addi	s0,sp,128
     38a:	0505                	addi	a0,a0,1
     38c:	00090203          	lb	tp,0(s2)
     390:	0100                	addi	s0,sp,128
     392:	0905                	addi	s2,s2,1
     394:	0306                	slli	t1,t1,0x1
     396:	0900                	addi	s0,sp,144
     398:	0000                	unimp
     39a:	0501                	addi	a0,a0,0
     39c:	09000317          	auipc	t1,0x9000
     3a0:	0002                	c.slli64	zero
     3a2:	0501                	addi	a0,a0,0
     3a4:	0308                	addi	a0,sp,384
     3a6:	0902                	c.slli64	s2
     3a8:	0002                	c.slli64	zero
     3aa:	0501                	addi	a0,a0,0
     3ac:	097e0317          	auipc	t1,0x97e0
     3b0:	0008                	.insn	2, 0x0008
     3b2:	0501                	addi	a0,a0,0
     3b4:	0605                	addi	a2,a2,1
     3b6:	02090103          	lb	sp,32(s2)
     3ba:	0100                	addi	s0,sp,128
     3bc:	00090103          	lb	sp,0(s2)
     3c0:	0100                	addi	s0,sp,128
     3c2:	0805                	addi	a6,a6,1
     3c4:	0306                	slli	t1,t1,0x1
     3c6:	0900                	addi	s0,sp,144
     3c8:	0000                	unimp
     3ca:	0501                	addi	a0,a0,0
     3cc:	0605                	addi	a2,a2,1
     3ce:	04090103          	lb	sp,64(s2)
     3d2:	0100                	addi	s0,sp,128
     3d4:	0805                	addi	a6,a6,1
     3d6:	0306                	slli	t1,t1,0x1
     3d8:	0900                	addi	s0,sp,144
     3da:	0000                	unimp
     3dc:	0501                	addi	a0,a0,0
     3de:	0402001b          	addiw	zero,tp,64 # 40 <_start-0x7fffffc0>
     3e2:	0602                	c.slli64	a2
     3e4:	0c097b03          	.insn	4, 0x0c097b03
     3e8:	0100                	addi	s0,sp,128
     3ea:	1105                	addi	sp,sp,-31
     3ec:	0200                	addi	s0,sp,256
     3ee:	0104                	addi	s1,sp,128
     3f0:	00090003          	lb	zero,0(s2)
     3f4:	0100                	addi	s0,sp,128
     3f6:	0505                	addi	a0,a0,1
     3f8:	00090203          	lb	tp,0(s2)
     3fc:	0100                	addi	s0,sp,128
     3fe:	0905                	addi	s2,s2,1
     400:	0306                	slli	t1,t1,0x1
     402:	0900                	addi	s0,sp,144
     404:	0000                	unimp
     406:	0501                	addi	a0,a0,0
     408:	09000317          	auipc	t1,0x9000
     40c:	0002                	c.slli64	zero
     40e:	0501                	addi	a0,a0,0
     410:	0308                	addi	a0,sp,384
     412:	0902                	c.slli64	s2
     414:	0002                	c.slli64	zero
     416:	0501                	addi	a0,a0,0
     418:	097e0317          	auipc	t1,0x97e0
     41c:	0008                	.insn	2, 0x0008
     41e:	0501                	addi	a0,a0,0
     420:	0605                	addi	a2,a2,1
     422:	02090103          	lb	sp,32(s2)
     426:	0100                	addi	s0,sp,128
     428:	00090103          	lb	sp,0(s2)
     42c:	0100                	addi	s0,sp,128
     42e:	0805                	addi	a6,a6,1
     430:	0306                	slli	t1,t1,0x1
     432:	0900                	addi	s0,sp,144
     434:	0000                	unimp
     436:	0501                	addi	a0,a0,0
     438:	0605                	addi	a2,a2,1
     43a:	04090103          	lb	sp,64(s2)
     43e:	0100                	addi	s0,sp,128
     440:	0805                	addi	a6,a6,1
     442:	0306                	slli	t1,t1,0x1
     444:	0900                	addi	s0,sp,144
     446:	0000                	unimp
     448:	0501                	addi	a0,a0,0
     44a:	0402001b          	addiw	zero,tp,64 # 40 <_start-0x7fffffc0>
     44e:	0602                	c.slli64	a2
     450:	0c097b03          	.insn	4, 0x0c097b03
     454:	0100                	addi	s0,sp,128
     456:	1105                	addi	sp,sp,-31
     458:	0200                	addi	s0,sp,256
     45a:	0104                	addi	s1,sp,128
     45c:	00090003          	lb	zero,0(s2)
     460:	0100                	addi	s0,sp,128
     462:	0505                	addi	a0,a0,1
     464:	00090203          	lb	tp,0(s2)
     468:	0100                	addi	s0,sp,128
     46a:	0905                	addi	s2,s2,1
     46c:	0306                	slli	t1,t1,0x1
     46e:	0900                	addi	s0,sp,144
     470:	0000                	unimp
     472:	0501                	addi	a0,a0,0
     474:	09000317          	auipc	t1,0x9000
     478:	0002                	c.slli64	zero
     47a:	0501                	addi	a0,a0,0
     47c:	0308                	addi	a0,sp,384
     47e:	0902                	c.slli64	s2
     480:	0002                	c.slli64	zero
     482:	0501                	addi	a0,a0,0
     484:	097e0317          	auipc	t1,0x97e0
     488:	0008                	.insn	2, 0x0008
     48a:	0501                	addi	a0,a0,0
     48c:	0605                	addi	a2,a2,1
     48e:	02090103          	lb	sp,32(s2)
     492:	0100                	addi	s0,sp,128
     494:	00090103          	lb	sp,0(s2)
     498:	0100                	addi	s0,sp,128
     49a:	0805                	addi	a6,a6,1
     49c:	0306                	slli	t1,t1,0x1
     49e:	0900                	addi	s0,sp,144
     4a0:	0000                	unimp
     4a2:	0501                	addi	a0,a0,0
     4a4:	0605                	addi	a2,a2,1
     4a6:	04090103          	lb	sp,64(s2)
     4aa:	0100                	addi	s0,sp,128
     4ac:	0805                	addi	a6,a6,1
     4ae:	0306                	slli	t1,t1,0x1
     4b0:	0900                	addi	s0,sp,144
     4b2:	0000                	unimp
     4b4:	0501                	addi	a0,a0,0
     4b6:	0402001b          	addiw	zero,tp,64 # 40 <_start-0x7fffffc0>
     4ba:	0602                	c.slli64	a2
     4bc:	0c097b03          	.insn	4, 0x0c097b03
     4c0:	0100                	addi	s0,sp,128
     4c2:	1105                	addi	sp,sp,-31
     4c4:	0200                	addi	s0,sp,256
     4c6:	0104                	addi	s1,sp,128
     4c8:	00090003          	lb	zero,0(s2)
     4cc:	0100                	addi	s0,sp,128
     4ce:	0505                	addi	a0,a0,1
     4d0:	00090203          	lb	tp,0(s2)
     4d4:	0100                	addi	s0,sp,128
     4d6:	0905                	addi	s2,s2,1
     4d8:	0306                	slli	t1,t1,0x1
     4da:	0900                	addi	s0,sp,144
     4dc:	0000                	unimp
     4de:	0501                	addi	a0,a0,0
     4e0:	09000317          	auipc	t1,0x9000
     4e4:	0002                	c.slli64	zero
     4e6:	0501                	addi	a0,a0,0
     4e8:	0308                	addi	a0,sp,384
     4ea:	0902                	c.slli64	s2
     4ec:	0002                	c.slli64	zero
     4ee:	0501                	addi	a0,a0,0
     4f0:	097e0317          	auipc	t1,0x97e0
     4f4:	0008                	.insn	2, 0x0008
     4f6:	0501                	addi	a0,a0,0
     4f8:	0605                	addi	a2,a2,1
     4fa:	02090103          	lb	sp,32(s2)
     4fe:	0100                	addi	s0,sp,128
     500:	00090103          	lb	sp,0(s2)
     504:	0100                	addi	s0,sp,128
     506:	0805                	addi	a6,a6,1
     508:	0306                	slli	t1,t1,0x1
     50a:	0900                	addi	s0,sp,144
     50c:	0000                	unimp
     50e:	0501                	addi	a0,a0,0
     510:	0605                	addi	a2,a2,1
     512:	04090103          	lb	sp,64(s2)
     516:	0100                	addi	s0,sp,128
     518:	0805                	addi	a6,a6,1
     51a:	0306                	slli	t1,t1,0x1
     51c:	0900                	addi	s0,sp,144
     51e:	0000                	unimp
     520:	0501                	addi	a0,a0,0
     522:	0402001b          	addiw	zero,tp,64 # 40 <_start-0x7fffffc0>
     526:	0602                	c.slli64	a2
     528:	0c097b03          	.insn	4, 0x0c097b03
     52c:	0100                	addi	s0,sp,128
     52e:	1105                	addi	sp,sp,-31
     530:	0200                	addi	s0,sp,256
     532:	0104                	addi	s1,sp,128
     534:	00090003          	lb	zero,0(s2)
     538:	0100                	addi	s0,sp,128
     53a:	0505                	addi	a0,a0,1
     53c:	00090203          	lb	tp,0(s2)
     540:	0100                	addi	s0,sp,128
     542:	0905                	addi	s2,s2,1
     544:	0306                	slli	t1,t1,0x1
     546:	0900                	addi	s0,sp,144
     548:	0000                	unimp
     54a:	0501                	addi	a0,a0,0
     54c:	09000317          	auipc	t1,0x9000
     550:	0002                	c.slli64	zero
     552:	0501                	addi	a0,a0,0
     554:	0308                	addi	a0,sp,384
     556:	0902                	c.slli64	s2
     558:	0002                	c.slli64	zero
     55a:	0501                	addi	a0,a0,0
     55c:	097e0317          	auipc	t1,0x97e0
     560:	0008                	.insn	2, 0x0008
     562:	0501                	addi	a0,a0,0
     564:	0605                	addi	a2,a2,1
     566:	02090103          	lb	sp,32(s2)
     56a:	0100                	addi	s0,sp,128
     56c:	00090103          	lb	sp,0(s2)
     570:	0100                	addi	s0,sp,128
     572:	0805                	addi	a6,a6,1
     574:	0306                	slli	t1,t1,0x1
     576:	0900                	addi	s0,sp,144
     578:	0000                	unimp
     57a:	0501                	addi	a0,a0,0
     57c:	0605                	addi	a2,a2,1
     57e:	04090103          	lb	sp,64(s2)
     582:	0100                	addi	s0,sp,128
     584:	0805                	addi	a6,a6,1
     586:	0306                	slli	t1,t1,0x1
     588:	0900                	addi	s0,sp,144
     58a:	0000                	unimp
     58c:	0501                	addi	a0,a0,0
     58e:	0402001b          	addiw	zero,tp,64 # 40 <_start-0x7fffffc0>
     592:	0602                	c.slli64	a2
     594:	0c097b03          	.insn	4, 0x0c097b03
     598:	0100                	addi	s0,sp,128
     59a:	1105                	addi	sp,sp,-31
     59c:	0200                	addi	s0,sp,256
     59e:	0104                	addi	s1,sp,128
     5a0:	00090003          	lb	zero,0(s2)
     5a4:	0100                	addi	s0,sp,128
     5a6:	0505                	addi	a0,a0,1
     5a8:	00090203          	lb	tp,0(s2)
     5ac:	0100                	addi	s0,sp,128
     5ae:	0905                	addi	s2,s2,1
     5b0:	0306                	slli	t1,t1,0x1
     5b2:	0900                	addi	s0,sp,144
     5b4:	0000                	unimp
     5b6:	0501                	addi	a0,a0,0
     5b8:	09000317          	auipc	t1,0x9000
     5bc:	0002                	c.slli64	zero
     5be:	0501                	addi	a0,a0,0
     5c0:	0308                	addi	a0,sp,384
     5c2:	0902                	c.slli64	s2
     5c4:	0002                	c.slli64	zero
     5c6:	0501                	addi	a0,a0,0
     5c8:	097e0317          	auipc	t1,0x97e0
     5cc:	0008                	.insn	2, 0x0008
     5ce:	0501                	addi	a0,a0,0
     5d0:	0605                	addi	a2,a2,1
     5d2:	02090103          	lb	sp,32(s2)
     5d6:	0100                	addi	s0,sp,128
     5d8:	00090103          	lb	sp,0(s2)
     5dc:	0100                	addi	s0,sp,128
     5de:	0805                	addi	a6,a6,1
     5e0:	0306                	slli	t1,t1,0x1
     5e2:	0900                	addi	s0,sp,144
     5e4:	0000                	unimp
     5e6:	0501                	addi	a0,a0,0
     5e8:	0605                	addi	a2,a2,1
     5ea:	04090103          	lb	sp,64(s2)
     5ee:	0100                	addi	s0,sp,128
     5f0:	0805                	addi	a6,a6,1
     5f2:	0306                	slli	t1,t1,0x1
     5f4:	0900                	addi	s0,sp,144
     5f6:	0000                	unimp
     5f8:	0501                	addi	a0,a0,0
     5fa:	0402001b          	addiw	zero,tp,64 # 40 <_start-0x7fffffc0>
     5fe:	0602                	c.slli64	a2
     600:	0c097b03          	.insn	4, 0x0c097b03
     604:	0100                	addi	s0,sp,128
     606:	1105                	addi	sp,sp,-31
     608:	0200                	addi	s0,sp,256
     60a:	0104                	addi	s1,sp,128
     60c:	00090003          	lb	zero,0(s2)
     610:	0100                	addi	s0,sp,128
     612:	0505                	addi	a0,a0,1
     614:	00090203          	lb	tp,0(s2)
     618:	0100                	addi	s0,sp,128
     61a:	0905                	addi	s2,s2,1
     61c:	0306                	slli	t1,t1,0x1
     61e:	0900                	addi	s0,sp,144
     620:	0000                	unimp
     622:	0501                	addi	a0,a0,0
     624:	09000317          	auipc	t1,0x9000
     628:	0002                	c.slli64	zero
     62a:	0501                	addi	a0,a0,0
     62c:	0308                	addi	a0,sp,384
     62e:	0902                	c.slli64	s2
     630:	0002                	c.slli64	zero
     632:	0501                	addi	a0,a0,0
     634:	097e0317          	auipc	t1,0x97e0
     638:	0008                	.insn	2, 0x0008
     63a:	0501                	addi	a0,a0,0
     63c:	0605                	addi	a2,a2,1
     63e:	02090103          	lb	sp,32(s2)
     642:	0100                	addi	s0,sp,128
     644:	00090103          	lb	sp,0(s2)
     648:	0100                	addi	s0,sp,128
     64a:	0805                	addi	a6,a6,1
     64c:	0306                	slli	t1,t1,0x1
     64e:	0900                	addi	s0,sp,144
     650:	0002                	c.slli64	zero
     652:	0501                	addi	a0,a0,0
     654:	0605                	addi	a2,a2,1
     656:	04090103          	lb	sp,64(s2)
     65a:	0100                	addi	s0,sp,128
     65c:	0805                	addi	a6,a6,1
     65e:	0306                	slli	t1,t1,0x1
     660:	0900                	addi	s0,sp,144
     662:	0000                	unimp
     664:	0401                	addi	s0,s0,0
     666:	0501                	addi	a0,a0,0
     668:	0301                	addi	t1,t1,0 # 97e0634 <_start-0x7681f9cc>
     66a:	00c5                	addi	ra,ra,17
     66c:	1009                	c.nop	-30
     66e:	0100                	addi	s0,sp,128
     670:	0204                	addi	s1,sp,256
     672:	0a05                	addi	s4,s4,1
     674:	097fb603          	ld	a2,151(t6) # fffffffffffef097 <__global_pointer$+0xffffffff7ffec84f>
     678:	000c                	.insn	2, 0x000c
     67a:	0501                	addi	a0,a0,0
     67c:	04020013          	addi	zero,tp,64 # 40 <_start-0x7fffffc0>
     680:	0601                	addi	a2,a2,0
     682:	02090403          	lb	s0,32(s2)
     686:	0100                	addi	s0,sp,128
     688:	1b05                	addi	s6,s6,-31
     68a:	0200                	addi	s0,sp,256
     68c:	0104                	addi	s1,sp,128
     68e:	0306                	slli	t1,t1,0x1
     690:	0900                	addi	s0,sp,144
     692:	0000                	unimp
     694:	0301                	addi	t1,t1,0
     696:	0900                	addi	s0,sp,144
     698:	0002                	c.slli64	zero
     69a:	0001                	nop
     69c:	0402                	c.slli64	s0
     69e:	0301                	addi	t1,t1,0
     6a0:	0901                	addi	s2,s2,0
     6a2:	0002                	c.slli64	zero
     6a4:	0501                	addi	a0,a0,0
     6a6:	04020013          	addi	zero,tp,64 # 40 <_start-0x7fffffc0>
     6aa:	0601                	addi	a2,a2,0
     6ac:	06097f03          	.insn	4, 0x06097f03
     6b0:	0100                	addi	s0,sp,128
     6b2:	1b05                	addi	s6,s6,-31
     6b4:	0200                	addi	s0,sp,256
     6b6:	0104                	addi	s1,sp,128
     6b8:	0306                	slli	t1,t1,0x1
     6ba:	0900                	addi	s0,sp,144
     6bc:	0000                	unimp
     6be:	0001                	nop
     6c0:	0402                	c.slli64	s0
     6c2:	0301                	addi	t1,t1,0
     6c4:	0901                	addi	s2,s2,0
     6c6:	0004                	.insn	2, 0x0004
     6c8:	0501                	addi	a0,a0,0
     6ca:	04020013          	addi	zero,tp,64 # 40 <_start-0x7fffffc0>
     6ce:	0601                	addi	a2,a2,0
     6d0:	06097f03          	.insn	4, 0x06097f03
     6d4:	0100                	addi	s0,sp,128
     6d6:	1b05                	addi	s6,s6,-31
     6d8:	0200                	addi	s0,sp,256
     6da:	0104                	addi	s1,sp,128
     6dc:	0306                	slli	t1,t1,0x1
     6de:	0900                	addi	s0,sp,144
     6e0:	0000                	unimp
     6e2:	0001                	nop
     6e4:	0402                	c.slli64	s0
     6e6:	0301                	addi	t1,t1,0
     6e8:	0901                	addi	s2,s2,0
     6ea:	0004                	.insn	2, 0x0004
     6ec:	0501                	addi	a0,a0,0
     6ee:	04020013          	addi	zero,tp,64 # 40 <_start-0x7fffffc0>
     6f2:	0601                	addi	a2,a2,0
     6f4:	0a097f03          	.insn	4, 0x0a097f03
     6f8:	0100                	addi	s0,sp,128
     6fa:	1b05                	addi	s6,s6,-31
     6fc:	0200                	addi	s0,sp,256
     6fe:	0104                	addi	s1,sp,128
     700:	0306                	slli	t1,t1,0x1
     702:	0900                	addi	s0,sp,144
     704:	0000                	unimp
     706:	0001                	nop
     708:	0402                	c.slli64	s0
     70a:	0301                	addi	t1,t1,0
     70c:	0901                	addi	s2,s2,0
     70e:	0004                	.insn	2, 0x0004
     710:	0501                	addi	a0,a0,0
     712:	04020013          	addi	zero,tp,64 # 40 <_start-0x7fffffc0>
     716:	0601                	addi	a2,a2,0
     718:	06097f03          	.insn	4, 0x06097f03
     71c:	0100                	addi	s0,sp,128
     71e:	1b05                	addi	s6,s6,-31
     720:	0200                	addi	s0,sp,256
     722:	0104                	addi	s1,sp,128
     724:	0306                	slli	t1,t1,0x1
     726:	0900                	addi	s0,sp,144
     728:	0000                	unimp
     72a:	0001                	nop
     72c:	0402                	c.slli64	s0
     72e:	0301                	addi	t1,t1,0
     730:	0901                	addi	s2,s2,0
     732:	0004                	.insn	2, 0x0004
     734:	0501                	addi	a0,a0,0
     736:	04020013          	addi	zero,tp,64 # 40 <_start-0x7fffffc0>
     73a:	0601                	addi	a2,a2,0
     73c:	06097f03          	.insn	4, 0x06097f03
     740:	0100                	addi	s0,sp,128
     742:	1b05                	addi	s6,s6,-31
     744:	0200                	addi	s0,sp,256
     746:	0104                	addi	s1,sp,128
     748:	0306                	slli	t1,t1,0x1
     74a:	0900                	addi	s0,sp,144
     74c:	0000                	unimp
     74e:	0001                	nop
     750:	0402                	c.slli64	s0
     752:	0301                	addi	t1,t1,0
     754:	0901                	addi	s2,s2,0
     756:	0004                	.insn	2, 0x0004
     758:	0501                	addi	a0,a0,0
     75a:	04020013          	addi	zero,tp,64 # 40 <_start-0x7fffffc0>
     75e:	0601                	addi	a2,a2,0
     760:	06097f03          	.insn	4, 0x06097f03
     764:	0100                	addi	s0,sp,128
     766:	1b05                	addi	s6,s6,-31
     768:	0200                	addi	s0,sp,256
     76a:	0104                	addi	s1,sp,128
     76c:	0306                	slli	t1,t1,0x1
     76e:	0900                	addi	s0,sp,144
     770:	0000                	unimp
     772:	0901                	addi	s2,s2,0
     774:	0004                	.insn	2, 0x0004
     776:	0100                	addi	s0,sp,128
     778:	0401                	addi	s0,s0,0
     77a:	0004                	.insn	2, 0x0004
     77c:	0500                	addi	s0,sp,640
     77e:	0800                	addi	s0,sp,16
     780:	2e00                	fld	fs0,24(a2)
     782:	0000                	unimp
     784:	0100                	addi	s0,sp,128
     786:	0101                	addi	sp,sp,0
     788:	000d0efb          	.insn	4, 0x000d0efb
     78c:	0101                	addi	sp,sp,0
     78e:	0101                	addi	sp,sp,0
     790:	0000                	unimp
     792:	0100                	addi	s0,sp,128
     794:	0000                	unimp
     796:	0101                	addi	sp,sp,0
     798:	1f01                	addi	t5,t5,-32
     79a:	0002                	c.slli64	zero
     79c:	0000                	unimp
     79e:	3800                	fld	fs0,48(s0)
     7a0:	0000                	unimp
     7a2:	0200                	addi	s0,sp,256
     7a4:	1f01                	addi	t5,t5,-32
     7a6:	0f02                	c.slli64	t5
     7a8:	ed02                	sd	zero,152(sp)
     7aa:	0000                	unimp
     7ac:	0100                	addi	s0,sp,128
     7ae:	00ed                	addi	ra,ra,27
     7b0:	0000                	unimp
     7b2:	0001                	nop
     7b4:	0209                	addi	tp,tp,2 # 2 <_start-0x7ffffffe>
     7b6:	0000                	unimp
     7b8:	8000                	.insn	2, 0x8000
     7ba:	0000                	unimp
     7bc:	0000                	unimp
     7be:	03011103          	lh	sp,48(sp)
     7c2:	0901                	addi	s2,s2,0
     7c4:	0002                	c.slli64	zero
     7c6:	0301                	addi	t1,t1,0
     7c8:	0901                	addi	s2,s2,0
     7ca:	0002                	c.slli64	zero
     7cc:	0301                	addi	t1,t1,0
     7ce:	0901                	addi	s2,s2,0
     7d0:	0002                	c.slli64	zero
     7d2:	0301                	addi	t1,t1,0
     7d4:	0901                	addi	s2,s2,0
     7d6:	0002                	c.slli64	zero
     7d8:	0301                	addi	t1,t1,0
     7da:	0901                	addi	s2,s2,0
     7dc:	0002                	c.slli64	zero
     7de:	0301                	addi	t1,t1,0
     7e0:	0901                	addi	s2,s2,0
     7e2:	0002                	c.slli64	zero
     7e4:	0301                	addi	t1,t1,0
     7e6:	0901                	addi	s2,s2,0
     7e8:	0002                	c.slli64	zero
     7ea:	0301                	addi	t1,t1,0
     7ec:	0901                	addi	s2,s2,0
     7ee:	0002                	c.slli64	zero
     7f0:	0301                	addi	t1,t1,0
     7f2:	0901                	addi	s2,s2,0
     7f4:	0002                	c.slli64	zero
     7f6:	0301                	addi	t1,t1,0
     7f8:	0901                	addi	s2,s2,0
     7fa:	0002                	c.slli64	zero
     7fc:	0301                	addi	t1,t1,0
     7fe:	0901                	addi	s2,s2,0
     800:	0002                	c.slli64	zero
     802:	0301                	addi	t1,t1,0
     804:	0901                	addi	s2,s2,0
     806:	0002                	c.slli64	zero
     808:	0301                	addi	t1,t1,0
     80a:	0901                	addi	s2,s2,0
     80c:	0002                	c.slli64	zero
     80e:	0301                	addi	t1,t1,0
     810:	0901                	addi	s2,s2,0
     812:	0002                	c.slli64	zero
     814:	0301                	addi	t1,t1,0
     816:	0901                	addi	s2,s2,0
     818:	0002                	c.slli64	zero
     81a:	0301                	addi	t1,t1,0
     81c:	0901                	addi	s2,s2,0
     81e:	0002                	c.slli64	zero
     820:	0301                	addi	t1,t1,0
     822:	0901                	addi	s2,s2,0
     824:	0002                	c.slli64	zero
     826:	0301                	addi	t1,t1,0
     828:	0901                	addi	s2,s2,0
     82a:	0002                	c.slli64	zero
     82c:	0301                	addi	t1,t1,0
     82e:	0901                	addi	s2,s2,0
     830:	0002                	c.slli64	zero
     832:	0301                	addi	t1,t1,0
     834:	0901                	addi	s2,s2,0
     836:	0002                	c.slli64	zero
     838:	0301                	addi	t1,t1,0
     83a:	0901                	addi	s2,s2,0
     83c:	0002                	c.slli64	zero
     83e:	0301                	addi	t1,t1,0
     840:	0901                	addi	s2,s2,0
     842:	0002                	c.slli64	zero
     844:	0301                	addi	t1,t1,0
     846:	0901                	addi	s2,s2,0
     848:	0002                	c.slli64	zero
     84a:	0301                	addi	t1,t1,0
     84c:	0901                	addi	s2,s2,0
     84e:	0002                	c.slli64	zero
     850:	0301                	addi	t1,t1,0
     852:	0901                	addi	s2,s2,0
     854:	0002                	c.slli64	zero
     856:	0301                	addi	t1,t1,0
     858:	0901                	addi	s2,s2,0
     85a:	0002                	c.slli64	zero
     85c:	0301                	addi	t1,t1,0
     85e:	0901                	addi	s2,s2,0
     860:	0002                	c.slli64	zero
     862:	0301                	addi	t1,t1,0
     864:	0901                	addi	s2,s2,0
     866:	0002                	c.slli64	zero
     868:	0301                	addi	t1,t1,0
     86a:	0901                	addi	s2,s2,0
     86c:	0002                	c.slli64	zero
     86e:	0301                	addi	t1,t1,0
     870:	0901                	addi	s2,s2,0
     872:	0002                	c.slli64	zero
     874:	0301                	addi	t1,t1,0
     876:	00020903          	lb	s2,0(tp) # 0 <_start-0x80000000>
     87a:	0301                	addi	t1,t1,0
     87c:	0901                	addi	s2,s2,0
     87e:	0002                	c.slli64	zero
     880:	0301                	addi	t1,t1,0
     882:	00040903          	lb	s2,0(s0)
     886:	0301                	addi	t1,t1,0
     888:	0901                	addi	s2,s2,0
     88a:	0002                	c.slli64	zero
     88c:	0301                	addi	t1,t1,0
     88e:	0902                	c.slli64	s2
     890:	0002                	c.slli64	zero
     892:	0301                	addi	t1,t1,0
     894:	0905                	addi	s2,s2,1
     896:	0004                	.insn	2, 0x0004
     898:	0301                	addi	t1,t1,0
     89a:	0901                	addi	s2,s2,0
     89c:	0002                	c.slli64	zero
     89e:	0301                	addi	t1,t1,0
     8a0:	0901                	addi	s2,s2,0
     8a2:	0008                	.insn	2, 0x0008
     8a4:	0301                	addi	t1,t1,0
     8a6:	0905                	addi	s2,s2,1
     8a8:	0002                	c.slli64	zero
     8aa:	0301                	addi	t1,t1,0
     8ac:	0901                	addi	s2,s2,0
     8ae:	0008                	.insn	2, 0x0008
     8b0:	0301                	addi	t1,t1,0
     8b2:	0902                	c.slli64	s2
     8b4:	0004                	.insn	2, 0x0004
     8b6:	0301                	addi	t1,t1,0
     8b8:	0901                	addi	s2,s2,0
     8ba:	0004                	.insn	2, 0x0004
     8bc:	0301                	addi	t1,t1,0
     8be:	0901                	addi	s2,s2,0
     8c0:	0004                	.insn	2, 0x0004
     8c2:	0301                	addi	t1,t1,0
     8c4:	0901                	addi	s2,s2,0
     8c6:	0004                	.insn	2, 0x0004
     8c8:	0301                	addi	t1,t1,0
     8ca:	0901                	addi	s2,s2,0
     8cc:	0004                	.insn	2, 0x0004
     8ce:	0301                	addi	t1,t1,0
     8d0:	0901                	addi	s2,s2,0
     8d2:	0004                	.insn	2, 0x0004
     8d4:	0301                	addi	t1,t1,0
     8d6:	0901                	addi	s2,s2,0
     8d8:	0004                	.insn	2, 0x0004
     8da:	0301                	addi	t1,t1,0
     8dc:	0901                	addi	s2,s2,0
     8de:	0004                	.insn	2, 0x0004
     8e0:	0301                	addi	t1,t1,0
     8e2:	0901                	addi	s2,s2,0
     8e4:	0004                	.insn	2, 0x0004
     8e6:	0301                	addi	t1,t1,0
     8e8:	0901                	addi	s2,s2,0
     8ea:	0004                	.insn	2, 0x0004
     8ec:	0301                	addi	t1,t1,0
     8ee:	0901                	addi	s2,s2,0
     8f0:	0004                	.insn	2, 0x0004
     8f2:	0301                	addi	t1,t1,0
     8f4:	0901                	addi	s2,s2,0
     8f6:	0004                	.insn	2, 0x0004
     8f8:	0301                	addi	t1,t1,0
     8fa:	0901                	addi	s2,s2,0
     8fc:	0004                	.insn	2, 0x0004
     8fe:	0301                	addi	t1,t1,0
     900:	0901                	addi	s2,s2,0
     902:	0004                	.insn	2, 0x0004
     904:	0301                	addi	t1,t1,0
     906:	0901                	addi	s2,s2,0
     908:	0004                	.insn	2, 0x0004
     90a:	0301                	addi	t1,t1,0
     90c:	0901                	addi	s2,s2,0
     90e:	0004                	.insn	2, 0x0004
     910:	0301                	addi	t1,t1,0
     912:	0901                	addi	s2,s2,0
     914:	0004                	.insn	2, 0x0004
     916:	0301                	addi	t1,t1,0
     918:	0901                	addi	s2,s2,0
     91a:	0004                	.insn	2, 0x0004
     91c:	0301                	addi	t1,t1,0
     91e:	0901                	addi	s2,s2,0
     920:	0004                	.insn	2, 0x0004
     922:	0301                	addi	t1,t1,0
     924:	0901                	addi	s2,s2,0
     926:	0004                	.insn	2, 0x0004
     928:	0301                	addi	t1,t1,0
     92a:	0901                	addi	s2,s2,0
     92c:	0004                	.insn	2, 0x0004
     92e:	0301                	addi	t1,t1,0
     930:	0901                	addi	s2,s2,0
     932:	0004                	.insn	2, 0x0004
     934:	0301                	addi	t1,t1,0
     936:	0901                	addi	s2,s2,0
     938:	0004                	.insn	2, 0x0004
     93a:	0301                	addi	t1,t1,0
     93c:	0901                	addi	s2,s2,0
     93e:	0004                	.insn	2, 0x0004
     940:	0301                	addi	t1,t1,0
     942:	0901                	addi	s2,s2,0
     944:	0004                	.insn	2, 0x0004
     946:	0301                	addi	t1,t1,0
     948:	0901                	addi	s2,s2,0
     94a:	0004                	.insn	2, 0x0004
     94c:	0301                	addi	t1,t1,0
     94e:	0901                	addi	s2,s2,0
     950:	0004                	.insn	2, 0x0004
     952:	0301                	addi	t1,t1,0
     954:	0901                	addi	s2,s2,0
     956:	0004                	.insn	2, 0x0004
     958:	0301                	addi	t1,t1,0
     95a:	0901                	addi	s2,s2,0
     95c:	0004                	.insn	2, 0x0004
     95e:	0301                	addi	t1,t1,0
     960:	0901                	addi	s2,s2,0
     962:	0004                	.insn	2, 0x0004
     964:	0301                	addi	t1,t1,0
     966:	0901                	addi	s2,s2,0
     968:	0004                	.insn	2, 0x0004
     96a:	0301                	addi	t1,t1,0
     96c:	0901                	addi	s2,s2,0
     96e:	0004                	.insn	2, 0x0004
     970:	0301                	addi	t1,t1,0
     972:	0901                	addi	s2,s2,0
     974:	0004                	.insn	2, 0x0004
     976:	0301                	addi	t1,t1,0
     978:	0905                	addi	s2,s2,1
     97a:	0004                	.insn	2, 0x0004
     97c:	0301                	addi	t1,t1,0
     97e:	0901                	addi	s2,s2,0
     980:	0008                	.insn	2, 0x0008
     982:	0301                	addi	t1,t1,0
     984:	0905                	addi	s2,s2,1
     986:	0004                	.insn	2, 0x0004
     988:	0301                	addi	t1,t1,0
     98a:	00080903          	lb	s2,0(a6)
     98e:	0301                	addi	t1,t1,0
     990:	0901                	addi	s2,s2,0
     992:	0004                	.insn	2, 0x0004
     994:	0301                	addi	t1,t1,0
     996:	00040903          	lb	s2,0(s0)
     99a:	0301                	addi	t1,t1,0
     99c:	0902                	c.slli64	s2
     99e:	0004                	.insn	2, 0x0004
     9a0:	0301                	addi	t1,t1,0
     9a2:	0901                	addi	s2,s2,0
     9a4:	0002                	c.slli64	zero
     9a6:	0301                	addi	t1,t1,0
     9a8:	0904                	addi	s1,sp,144
     9aa:	0004                	.insn	2, 0x0004
     9ac:	0301                	addi	t1,t1,0
     9ae:	0901                	addi	s2,s2,0
     9b0:	0004                	.insn	2, 0x0004
     9b2:	0301                	addi	t1,t1,0
     9b4:	0901                	addi	s2,s2,0
     9b6:	0002                	c.slli64	zero
     9b8:	0301                	addi	t1,t1,0
     9ba:	0901                	addi	s2,s2,0
     9bc:	0002                	c.slli64	zero
     9be:	0301                	addi	t1,t1,0
     9c0:	0901                	addi	s2,s2,0
     9c2:	0004                	.insn	2, 0x0004
     9c4:	0301                	addi	t1,t1,0
     9c6:	0902                	c.slli64	s2
     9c8:	0002                	c.slli64	zero
     9ca:	0301                	addi	t1,t1,0
     9cc:	0904                	addi	s1,sp,144
     9ce:	0004                	.insn	2, 0x0004
     9d0:	0301                	addi	t1,t1,0
     9d2:	0902                	c.slli64	s2
     9d4:	0002                	c.slli64	zero
     9d6:	0301                	addi	t1,t1,0
     9d8:	0901                	addi	s2,s2,0
     9da:	0002                	c.slli64	zero
     9dc:	0301                	addi	t1,t1,0
     9de:	0901                	addi	s2,s2,0
     9e0:	0002                	c.slli64	zero
     9e2:	0301                	addi	t1,t1,0
     9e4:	0901                	addi	s2,s2,0
     9e6:	0002                	c.slli64	zero
     9e8:	0301                	addi	t1,t1,0
     9ea:	0901                	addi	s2,s2,0
     9ec:	0002                	c.slli64	zero
     9ee:	0301                	addi	t1,t1,0
     9f0:	0901                	addi	s2,s2,0
     9f2:	0002                	c.slli64	zero
     9f4:	0301                	addi	t1,t1,0
     9f6:	0901                	addi	s2,s2,0
     9f8:	0002                	c.slli64	zero
     9fa:	0301                	addi	t1,t1,0
     9fc:	0901                	addi	s2,s2,0
     9fe:	0002                	c.slli64	zero
     a00:	0301                	addi	t1,t1,0
     a02:	0901                	addi	s2,s2,0
     a04:	0002                	c.slli64	zero
     a06:	0301                	addi	t1,t1,0
     a08:	0901                	addi	s2,s2,0
     a0a:	0002                	c.slli64	zero
     a0c:	0301                	addi	t1,t1,0
     a0e:	0901                	addi	s2,s2,0
     a10:	0002                	c.slli64	zero
     a12:	0301                	addi	t1,t1,0
     a14:	0901                	addi	s2,s2,0
     a16:	0002                	c.slli64	zero
     a18:	0301                	addi	t1,t1,0
     a1a:	0901                	addi	s2,s2,0
     a1c:	0002                	c.slli64	zero
     a1e:	0301                	addi	t1,t1,0
     a20:	0901                	addi	s2,s2,0
     a22:	0002                	c.slli64	zero
     a24:	0301                	addi	t1,t1,0
     a26:	0901                	addi	s2,s2,0
     a28:	0002                	c.slli64	zero
     a2a:	0301                	addi	t1,t1,0
     a2c:	0901                	addi	s2,s2,0
     a2e:	0002                	c.slli64	zero
     a30:	0301                	addi	t1,t1,0
     a32:	0901                	addi	s2,s2,0
     a34:	0002                	c.slli64	zero
     a36:	0301                	addi	t1,t1,0
     a38:	0901                	addi	s2,s2,0
     a3a:	0002                	c.slli64	zero
     a3c:	0301                	addi	t1,t1,0
     a3e:	0901                	addi	s2,s2,0
     a40:	0002                	c.slli64	zero
     a42:	0301                	addi	t1,t1,0
     a44:	0901                	addi	s2,s2,0
     a46:	0002                	c.slli64	zero
     a48:	0301                	addi	t1,t1,0
     a4a:	0901                	addi	s2,s2,0
     a4c:	0002                	c.slli64	zero
     a4e:	0301                	addi	t1,t1,0
     a50:	0901                	addi	s2,s2,0
     a52:	0002                	c.slli64	zero
     a54:	0301                	addi	t1,t1,0
     a56:	0901                	addi	s2,s2,0
     a58:	0002                	c.slli64	zero
     a5a:	0301                	addi	t1,t1,0
     a5c:	0901                	addi	s2,s2,0
     a5e:	0002                	c.slli64	zero
     a60:	0301                	addi	t1,t1,0
     a62:	0901                	addi	s2,s2,0
     a64:	0002                	c.slli64	zero
     a66:	0301                	addi	t1,t1,0
     a68:	0901                	addi	s2,s2,0
     a6a:	0002                	c.slli64	zero
     a6c:	0301                	addi	t1,t1,0
     a6e:	0901                	addi	s2,s2,0
     a70:	0002                	c.slli64	zero
     a72:	0301                	addi	t1,t1,0
     a74:	0901                	addi	s2,s2,0
     a76:	0002                	c.slli64	zero
     a78:	0301                	addi	t1,t1,0
     a7a:	0901                	addi	s2,s2,0
     a7c:	0002                	c.slli64	zero
     a7e:	0301                	addi	t1,t1,0
     a80:	0901                	addi	s2,s2,0
     a82:	0002                	c.slli64	zero
     a84:	0301                	addi	t1,t1,0
     a86:	0901                	addi	s2,s2,0
     a88:	0002                	c.slli64	zero
     a8a:	0301                	addi	t1,t1,0
     a8c:	0902                	c.slli64	s2
     a8e:	0002                	c.slli64	zero
     a90:	0301                	addi	t1,t1,0
     a92:	0901                	addi	s2,s2,0
     a94:	0004                	.insn	2, 0x0004
     a96:	0301                	addi	t1,t1,0
     a98:	0901                	addi	s2,s2,0
     a9a:	0004                	.insn	2, 0x0004
     a9c:	0301                	addi	t1,t1,0
     a9e:	0901                	addi	s2,s2,0
     aa0:	0002                	c.slli64	zero
     aa2:	0301                	addi	t1,t1,0
     aa4:	0901                	addi	s2,s2,0
     aa6:	0004                	.insn	2, 0x0004
     aa8:	0301                	addi	t1,t1,0
     aaa:	00040903          	lb	s2,0(s0)
     aae:	0301                	addi	t1,t1,0
     ab0:	0901                	addi	s2,s2,0
     ab2:	0006                	c.slli	zero,0x1
     ab4:	0301                	addi	t1,t1,0
     ab6:	0902                	c.slli64	s2
     ab8:	0004                	.insn	2, 0x0004
     aba:	0301                	addi	t1,t1,0
     abc:	0901                	addi	s2,s2,0
     abe:	0002                	c.slli64	zero
     ac0:	0301                	addi	t1,t1,0
     ac2:	0901                	addi	s2,s2,0
     ac4:	0002                	c.slli64	zero
     ac6:	0301                	addi	t1,t1,0
     ac8:	0901                	addi	s2,s2,0
     aca:	0002                	c.slli64	zero
     acc:	0301                	addi	t1,t1,0
     ace:	0901                	addi	s2,s2,0
     ad0:	0002                	c.slli64	zero
     ad2:	0301                	addi	t1,t1,0
     ad4:	0901                	addi	s2,s2,0
     ad6:	0002                	c.slli64	zero
     ad8:	0301                	addi	t1,t1,0
     ada:	0901                	addi	s2,s2,0
     adc:	0002                	c.slli64	zero
     ade:	0301                	addi	t1,t1,0
     ae0:	0901                	addi	s2,s2,0
     ae2:	0002                	c.slli64	zero
     ae4:	0301                	addi	t1,t1,0
     ae6:	0901                	addi	s2,s2,0
     ae8:	0002                	c.slli64	zero
     aea:	0301                	addi	t1,t1,0
     aec:	0901                	addi	s2,s2,0
     aee:	0002                	c.slli64	zero
     af0:	0301                	addi	t1,t1,0
     af2:	0901                	addi	s2,s2,0
     af4:	0002                	c.slli64	zero
     af6:	0301                	addi	t1,t1,0
     af8:	0901                	addi	s2,s2,0
     afa:	0002                	c.slli64	zero
     afc:	0301                	addi	t1,t1,0
     afe:	0901                	addi	s2,s2,0
     b00:	0002                	c.slli64	zero
     b02:	0301                	addi	t1,t1,0
     b04:	0901                	addi	s2,s2,0
     b06:	0002                	c.slli64	zero
     b08:	0301                	addi	t1,t1,0
     b0a:	0901                	addi	s2,s2,0
     b0c:	0002                	c.slli64	zero
     b0e:	0301                	addi	t1,t1,0
     b10:	0901                	addi	s2,s2,0
     b12:	0002                	c.slli64	zero
     b14:	0301                	addi	t1,t1,0
     b16:	0901                	addi	s2,s2,0
     b18:	0002                	c.slli64	zero
     b1a:	0301                	addi	t1,t1,0
     b1c:	0901                	addi	s2,s2,0
     b1e:	0002                	c.slli64	zero
     b20:	0301                	addi	t1,t1,0
     b22:	0901                	addi	s2,s2,0
     b24:	0002                	c.slli64	zero
     b26:	0301                	addi	t1,t1,0
     b28:	0901                	addi	s2,s2,0
     b2a:	0002                	c.slli64	zero
     b2c:	0301                	addi	t1,t1,0
     b2e:	0901                	addi	s2,s2,0
     b30:	0002                	c.slli64	zero
     b32:	0301                	addi	t1,t1,0
     b34:	0901                	addi	s2,s2,0
     b36:	0002                	c.slli64	zero
     b38:	0301                	addi	t1,t1,0
     b3a:	0901                	addi	s2,s2,0
     b3c:	0002                	c.slli64	zero
     b3e:	0301                	addi	t1,t1,0
     b40:	0901                	addi	s2,s2,0
     b42:	0002                	c.slli64	zero
     b44:	0301                	addi	t1,t1,0
     b46:	0901                	addi	s2,s2,0
     b48:	0002                	c.slli64	zero
     b4a:	0301                	addi	t1,t1,0
     b4c:	0901                	addi	s2,s2,0
     b4e:	0002                	c.slli64	zero
     b50:	0301                	addi	t1,t1,0
     b52:	0901                	addi	s2,s2,0
     b54:	0002                	c.slli64	zero
     b56:	0301                	addi	t1,t1,0
     b58:	0901                	addi	s2,s2,0
     b5a:	0002                	c.slli64	zero
     b5c:	0301                	addi	t1,t1,0
     b5e:	0901                	addi	s2,s2,0
     b60:	0002                	c.slli64	zero
     b62:	0301                	addi	t1,t1,0
     b64:	0901                	addi	s2,s2,0
     b66:	0002                	c.slli64	zero
     b68:	0301                	addi	t1,t1,0
     b6a:	0901                	addi	s2,s2,0
     b6c:	0002                	c.slli64	zero
     b6e:	0301                	addi	t1,t1,0
     b70:	0902                	c.slli64	s2
     b72:	0002                	c.slli64	zero
     b74:	0301                	addi	t1,t1,0
     b76:	0901                	addi	s2,s2,0
     b78:	0002                	c.slli64	zero
     b7a:	0901                	addi	s2,s2,0
     b7c:	0004                	.insn	2, 0x0004
     b7e:	0100                	addi	s0,sp,128
     b80:	2a01                	sext.w	s4,s4
     b82:	0039                	c.nop	14
     b84:	0500                	addi	s0,sp,640
     b86:	0800                	addi	s0,sp,16
     b88:	6100                	ld	s0,0(a0)
     b8a:	0000                	unimp
     b8c:	0100                	addi	s0,sp,128
     b8e:	0101                	addi	sp,sp,0
     b90:	000d0efb          	.insn	4, 0x000d0efb
     b94:	0101                	addi	sp,sp,0
     b96:	0101                	addi	sp,sp,0
     b98:	0000                	unimp
     b9a:	0100                	addi	s0,sp,128
     b9c:	0000                	unimp
     b9e:	0101                	addi	sp,sp,0
     ba0:	1f01                	addi	t5,t5,-32
     ba2:	0006                	c.slli	zero,0x1
     ba4:	0000                	unimp
     ba6:	3800                	fld	fs0,48(s0)
     ba8:	0000                	unimp
     baa:	4200                	lw	s0,0(a2)
     bac:	0000                	unimp
     bae:	7100                	ld	s0,32(a0)
     bb0:	0000                	unimp
     bb2:	0800                	addi	s0,sp,16
     bb4:	0001                	nop
     bb6:	9c00                	.insn	2, 0x9c00
     bb8:	0000                	unimp
     bba:	0200                	addi	s0,sp,256
     bbc:	1f01                	addi	t5,t5,-32
     bbe:	0f02                	c.slli64	t5
     bc0:	fd09                	bnez	a0,ada <_start-0x7ffff526>
     bc2:	0000                	unimp
     bc4:	0100                	addi	s0,sp,128
     bc6:	00fd                	addi	ra,ra,31
     bc8:	0000                	unimp
     bca:	ca01                	beqz	a2,bda <_start-0x7ffff426>
     bcc:	0000                	unimp
     bce:	0200                	addi	s0,sp,256
     bd0:	000000db          	.insn	4, 0x00db
     bd4:	00013e03          	ld	t3,0(sp)
     bd8:	0400                	addi	s0,sp,512
     bda:	00000147          	fmsub.s	ft2,ft0,ft0,ft0,rne
     bde:	5004                	lw	s1,32(s0)
     be0:	0001                	nop
     be2:	0500                	addi	s0,sp,640
     be4:	00e5                	addi	ra,ra,25
     be6:	0000                	unimp
     be8:	5905                	li	s2,-31
     bea:	0001                	nop
     bec:	0000                	unimp
     bee:	0105                	addi	sp,sp,1
     bf0:	0900                	addi	s0,sp,144
     bf2:	3002                	fld	ft0,32(sp)
     bf4:	0002                	c.slli64	zero
     bf6:	0080                	addi	s0,sp,64
     bf8:	0000                	unimp
     bfa:	0300                	addi	s0,sp,384
     bfc:	01b1                	addi	gp,gp,12 # 80002854 <__global_pointer$+0xc>
     bfe:	0501                	addi	a0,a0,0
     c00:	09030303          	lb	t1,144(t1)
     c04:	0000                	unimp
     c06:	0501                	addi	a0,a0,0
     c08:	0402000b          	.insn	4, 0x0402000b
     c0c:	0601                	addi	a2,a2,0
     c0e:	097eed03          	lwu	s10,151(t4)
     c12:	0000                	unimp
     c14:	0501                	addi	a0,a0,0
     c16:	01930303          	lb	t1,25(t1)
     c1a:	0409                	addi	s0,s0,2
     c1c:	0100                	addi	s0,sp,128
     c1e:	0306                	slli	t1,t1,0x1
     c20:	7eea                	ld	t4,184(sp)
     c22:	0409                	addi	s0,s0,2
     c24:	0100                	addi	s0,sp,128
     c26:	00090103          	lb	sp,0(s2)
     c2a:	0100                	addi	s0,sp,128
     c2c:	0205                	addi	tp,tp,1 # 1 <_start-0x7fffffff>
     c2e:	00090203          	lb	tp,0(s2)
     c32:	0100                	addi	s0,sp,128
     c34:	0b05                	addi	s6,s6,1
     c36:	0200                	addi	s0,sp,256
     c38:	0104                	addi	s1,sp,128
     c3a:	0306                	slli	t1,t1,0x1
     c3c:	0900                	addi	s0,sp,144
     c3e:	0000                	unimp
     c40:	0501                	addi	a0,a0,0
     c42:	0009                	c.nop	2
     c44:	0402                	c.slli64	s0
     c46:	0601                	addi	a2,a2,0
     c48:	06090003          	lb	zero,96(s2)
     c4c:	0100                	addi	s0,sp,128
     c4e:	0b05                	addi	s6,s6,1
     c50:	0200                	addi	s0,sp,256
     c52:	0104                	addi	s1,sp,128
     c54:	0306                	slli	t1,t1,0x1
     c56:	0900                	addi	s0,sp,144
     c58:	0000                	unimp
     c5a:	0501                	addi	a0,a0,0
     c5c:	0009                	c.nop	2
     c5e:	0402                	c.slli64	s0
     c60:	0301                	addi	t1,t1,0
     c62:	0900                	addi	s0,sp,144
     c64:	0004                	.insn	2, 0x0004
     c66:	0501                	addi	a0,a0,0
     c68:	0602                	c.slli64	a2
     c6a:	06090103          	lb	sp,96(s2)
     c6e:	0100                	addi	s0,sp,128
     c70:	0c05                	addi	s8,s8,1
     c72:	0306                	slli	t1,t1,0x1
     c74:	0900                	addi	s0,sp,144
     c76:	0000                	unimp
     c78:	0501                	addi	a0,a0,0
     c7a:	a0030603          	lb	a2,-1536(t1)
     c7e:	0901                	addi	s2,s2,0
     c80:	0004                	.insn	2, 0x0004
     c82:	0501                	addi	a0,a0,0
     c84:	0601                	addi	a2,a2,0
     c86:	00090103          	lb	sp,0(s2)
     c8a:	0100                	addi	s0,sp,128
     c8c:	0305                	addi	t1,t1,1
     c8e:	0306                	slli	t1,t1,0x1
     c90:	01e2                	slli	gp,gp,0x18
     c92:	0409                	addi	s0,s0,2
     c94:	0100                	addi	s0,sp,128
     c96:	0505                	addi	a0,a0,1
     c98:	00090103          	lb	sp,0(s2)
     c9c:	0100                	addi	s0,sp,128
     c9e:	00090103          	lb	sp,0(s2)
     ca2:	0100                	addi	s0,sp,128
     ca4:	0605                	addi	a2,a2,1
     ca6:	0306                	slli	t1,t1,0x1
     ca8:	0900                	addi	s0,sp,144
     caa:	0000                	unimp
     cac:	0501                	addi	a0,a0,0
     cae:	030c                	addi	a1,sp,384
     cb0:	0900                	addi	s0,sp,144
     cb2:	0002                	c.slli64	zero
     cb4:	0501                	addi	a0,a0,0
     cb6:	0605                	addi	a2,a2,1
     cb8:	04090103          	lb	sp,64(s2)
     cbc:	0100                	addi	s0,sp,128
     cbe:	0c05                	addi	s8,s8,1
     cc0:	0306                	slli	t1,t1,0x1
     cc2:	0900                	addi	s0,sp,144
     cc4:	0000                	unimp
     cc6:	0501                	addi	a0,a0,0
     cc8:	09010303          	lb	t1,144(sp)
     ccc:	0006                	c.slli	zero,0x1
     cce:	0501                	addi	a0,a0,0
     cd0:	060d                	addi	a2,a2,3
     cd2:	097ed303          	lhu	t1,151(t4)
     cd6:	0002                	c.slli64	zero
     cd8:	0501                	addi	a0,a0,0
     cda:	062a                	slli	a2,a2,0xa
     cdc:	02090a03          	lb	s4,32(s2)
     ce0:	0100                	addi	s0,sp,128
     ce2:	0505                	addi	a0,a0,1
     ce4:	04091003          	lh	zero,64(s2)
     ce8:	0100                	addi	s0,sp,128
     cea:	0705                	addi	a4,a4,1
     cec:	0306                	slli	t1,t1,0x1
     cee:	0971                	addi	s2,s2,28
     cf0:	000a                	c.slli	zero,0x2
     cf2:	0501                	addi	a0,a0,0
     cf4:	060a                	slli	a2,a2,0x2
     cf6:	00090003          	lb	zero,0(s2)
     cfa:	0100                	addi	s0,sp,128
     cfc:	0705                	addi	a4,a4,1
     cfe:	0306                	slli	t1,t1,0x1
     d00:	0902                	c.slli64	s2
     d02:	0002                	c.slli64	zero
     d04:	0501                	addi	a0,a0,0
     d06:	0606                	slli	a2,a2,0x1
     d08:	09019e03          	lh	t3,144(gp) # 800028d8 <__global_pointer$+0x90>
     d0c:	0000                	unimp
     d0e:	0501                	addi	a0,a0,0
     d10:	030a                	slli	t1,t1,0x2
     d12:	7ee2                	ld	t4,56(sp)
     d14:	0209                	addi	tp,tp,2 # 2 <_start-0x7ffffffe>
     d16:	0100                	addi	s0,sp,128
     d18:	0705                	addi	a4,a4,1
     d1a:	0306                	slli	t1,t1,0x1
     d1c:	0901                	addi	s2,s2,0
     d1e:	0002                	c.slli64	zero
     d20:	0501                	addi	a0,a0,0
     d22:	0305                	addi	t1,t1,1
     d24:	019c                	addi	a5,sp,192
     d26:	0009                	c.nop	2
     d28:	0100                	addi	s0,sp,128
     d2a:	00090103          	lb	sp,0(s2)
     d2e:	0100                	addi	s0,sp,128
     d30:	0c05                	addi	s8,s8,1
     d32:	0306                	slli	t1,t1,0x1
     d34:	0900                	addi	s0,sp,144
     d36:	0000                	unimp
     d38:	0501                	addi	a0,a0,0
     d3a:	0605                	addi	a2,a2,1
     d3c:	04090103          	lb	sp,64(s2)
     d40:	0100                	addi	s0,sp,128
     d42:	0c05                	addi	s8,s8,1
     d44:	0306                	slli	t1,t1,0x1
     d46:	0900                	addi	s0,sp,144
     d48:	0000                	unimp
     d4a:	0501                	addi	a0,a0,0
     d4c:	062a                	slli	a2,a2,0xa
     d4e:	097ede03          	lhu	t3,151(t4)
     d52:	0006                	c.slli	zero,0x1
     d54:	0501                	addi	a0,a0,0
     d56:	0612                	slli	a2,a2,0x4
     d58:	00090003          	lb	zero,0(s2)
     d5c:	0100                	addi	s0,sp,128
     d5e:	1005                	c.nop	-31
     d60:	04090003          	lb	zero,64(s2)
     d64:	0100                	addi	s0,sp,128
     d66:	2a05                	addiw	s4,s4,1
     d68:	04090003          	lb	zero,64(s2)
     d6c:	0100                	addi	s0,sp,128
     d6e:	0505                	addi	a0,a0,1
     d70:	0306                	slli	t1,t1,0x1
     d72:	0906                	slli	s2,s2,0x1
     d74:	0004                	.insn	2, 0x0004
     d76:	0501                	addi	a0,a0,0
     d78:	0612                	slli	a2,a2,0x4
     d7a:	00090a03          	lb	s4,0(s2)
     d7e:	0100                	addi	s0,sp,128
     d80:	0805                	addi	a6,a6,1
     d82:	04097603          	.insn	4, 0x04097603
     d86:	0100                	addi	s0,sp,128
     d88:	0505                	addi	a0,a0,1
     d8a:	0306                	slli	t1,t1,0x1
     d8c:	00040903          	lb	s2,0(s0)
     d90:	0301                	addi	t1,t1,0
     d92:	0901                	addi	s2,s2,0
     d94:	0000                	unimp
     d96:	0301                	addi	t1,t1,0
     d98:	0901                	addi	s2,s2,0
     d9a:	0000                	unimp
     d9c:	0301                	addi	t1,t1,0
     d9e:	0901                	addi	s2,s2,0
     da0:	0000                	unimp
     da2:	0301                	addi	t1,t1,0
     da4:	0901                	addi	s2,s2,0
     da6:	0000                	unimp
     da8:	0301                	addi	t1,t1,0
     daa:	0901                	addi	s2,s2,0
     dac:	0000                	unimp
     dae:	0501                	addi	a0,a0,0
     db0:	7e03060f          	.insn	4, 0x7e03060f
     db4:	0009                	c.nop	2
     db6:	0100                	addi	s0,sp,128
     db8:	0805                	addi	a6,a6,1
     dba:	02097a03          	.insn	4, 0x02097a03
     dbe:	0100                	addi	s0,sp,128
     dc0:	0b05                	addi	s6,s6,1
     dc2:	02090503          	lb	a0,32(s2)
     dc6:	0100                	addi	s0,sp,128
     dc8:	0a05                	addi	s4,s4,1
     dca:	02097f03          	.insn	4, 0x02097f03
     dce:	0100                	addi	s0,sp,128
     dd0:	0b05                	addi	s6,s6,1
     dd2:	04090303          	lb	t1,64(s2)
     dd6:	0100                	addi	s0,sp,128
     dd8:	0505                	addi	a0,a0,1
     dda:	0306                	slli	t1,t1,0x1
     ddc:	00020903          	lb	s2,0(tp) # 0 <_start-0x80000000>
     de0:	0501                	addi	a0,a0,0
     de2:	00030613          	mv	a2,t1
     de6:	0809                	addi	a6,a6,2
     de8:	0100                	addi	s0,sp,128
     dea:	0505                	addi	a0,a0,1
     dec:	04090003          	lb	zero,64(s2)
     df0:	0100                	addi	s0,sp,128
     df2:	0105                	addi	sp,sp,1
     df4:	0900fb03          	.insn	4, 0x0900fb03
     df8:	000e                	c.slli	zero,0x3
     dfa:	0501                	addi	a0,a0,0
     dfc:	8e030607          	.insn	4, 0x8e030607
     e00:	097f 0004 0301 0901 	.insn	10, 0x090103010004097f
     e08:	0000 
     e0a:	0501                	addi	a0,a0,0
     e0c:	060c                	addi	a1,sp,768
     e0e:	00097f03          	.insn	4, 0x00097f03
     e12:	0100                	addi	s0,sp,128
     e14:	0705                	addi	a4,a4,1
     e16:	02090103          	lb	sp,32(s2)
     e1a:	0100                	addi	s0,sp,128
     e1c:	1305                	addi	t1,t1,-31
     e1e:	04097603          	.insn	4, 0x04097603
     e22:	0100                	addi	s0,sp,128
     e24:	0505                	addi	a0,a0,1
     e26:	0306                	slli	t1,t1,0x1
     e28:	0900                	addi	s0,sp,144
     e2a:	0002                	c.slli64	zero
     e2c:	0501                	addi	a0,a0,0
     e2e:	00030613          	mv	a2,t1
     e32:	0009                	c.nop	2
     e34:	0100                	addi	s0,sp,128
     e36:	0505                	addi	a0,a0,1
     e38:	04090003          	lb	zero,64(s2)
     e3c:	0100                	addi	s0,sp,128
     e3e:	0705                	addi	a4,a4,1
     e40:	0306                	slli	t1,t1,0x1
     e42:	00f6                	slli	ra,ra,0x1d
     e44:	0c09                	addi	s8,s8,2
     e46:	0100                	addi	s0,sp,128
     e48:	0505                	addi	a0,a0,1
     e4a:	00091a03          	lh	s4,0(s2)
     e4e:	0100                	addi	s0,sp,128
     e50:	00090103          	lb	sp,0(s2)
     e54:	0100                	addi	s0,sp,128
     e56:	0605                	addi	a2,a2,1
     e58:	0306                	slli	t1,t1,0x1
     e5a:	0900                	addi	s0,sp,144
     e5c:	0000                	unimp
     e5e:	0501                	addi	a0,a0,0
     e60:	030c                	addi	a1,sp,384
     e62:	0900                	addi	s0,sp,144
     e64:	0002                	c.slli64	zero
     e66:	0501                	addi	a0,a0,0
     e68:	0966030b          	.insn	4, 0x0966030b
     e6c:	0004                	.insn	2, 0x0004
     e6e:	0501                	addi	a0,a0,0
     e70:	030c                	addi	a1,sp,384
     e72:	091a                	slli	s2,s2,0x6
     e74:	0002                	c.slli64	zero
     e76:	0501                	addi	a0,a0,0
     e78:	0605                	addi	a2,a2,1
     e7a:	04090103          	lb	sp,64(s2)
     e7e:	0100                	addi	s0,sp,128
     e80:	0c05                	addi	s8,s8,1
     e82:	0306                	slli	t1,t1,0x1
     e84:	0900                	addi	s0,sp,144
     e86:	0000                	unimp
     e88:	0501                	addi	a0,a0,0
     e8a:	65030607          	.insn	4, 0x65030607
     e8e:	0609                	addi	a2,a2,2
     e90:	0100                	addi	s0,sp,128
     e92:	00090103          	lb	sp,0(s2)
     e96:	0100                	addi	s0,sp,128
     e98:	0305                	addi	t1,t1,1
     e9a:	0306                	slli	t1,t1,0x1
     e9c:	0000091b          	sext.w	s2,zero
     ea0:	0501                	addi	a0,a0,0
     ea2:	0609                	addi	a2,a2,2
     ea4:	097f8403          	lb	s0,151(t6)
     ea8:	0004                	.insn	2, 0x0004
     eaa:	0501                	addi	a0,a0,0
     eac:	00030613          	mv	a2,t1
     eb0:	0009                	c.nop	2
     eb2:	0100                	addi	s0,sp,128
     eb4:	0905                	addi	s2,s2,1
     eb6:	0306                	slli	t1,t1,0x1
     eb8:	0901                	addi	s2,s2,0
     eba:	0004                	.insn	2, 0x0004
     ebc:	0501                	addi	a0,a0,0
     ebe:	060e                	slli	a2,a2,0x3
     ec0:	00090003          	lb	zero,0(s2)
     ec4:	0100                	addi	s0,sp,128
     ec6:	0c05                	addi	s8,s8,1
     ec8:	04090103          	lb	sp,64(s2)
     ecc:	0100                	addi	s0,sp,128
     ece:	1305                	addi	t1,t1,-31
     ed0:	02096703          	lwu	a4,32(s2)
     ed4:	0100                	addi	s0,sp,128
     ed6:	1605                	addi	a2,a2,-31
     ed8:	02091903          	lh	s2,32(s2)
     edc:	0100                	addi	s0,sp,128
     ede:	0c05                	addi	s8,s8,1
     ee0:	04097f03          	.insn	4, 0x04097f03
     ee4:	0100                	addi	s0,sp,128
     ee6:	0905                	addi	s2,s2,1
     ee8:	0306                	slli	t1,t1,0x1
     eea:	0901                	addi	s2,s2,0
     eec:	0004                	.insn	2, 0x0004
     eee:	0501                	addi	a0,a0,0
     ef0:	060c                	addi	a1,sp,768
     ef2:	00090003          	lb	zero,0(s2)
     ef6:	0100                	addi	s0,sp,128
     ef8:	1d05                	addi	s10,s10,-31
     efa:	0306                	slli	t1,t1,0x1
     efc:	097d                	addi	s2,s2,31
     efe:	0004                	.insn	2, 0x0004
     f00:	0501                	addi	a0,a0,0
     f02:	061f 0103 0009      	.insn	6, 0x00090103061f
     f08:	0100                	addi	s0,sp,128
     f0a:	0e05                	addi	t3,t3,1
     f0c:	04090103          	lb	sp,64(s2)
     f10:	0100                	addi	s0,sp,128
     f12:	1f05                	addi	t5,t5,-31
     f14:	04097f03          	.insn	4, 0x04097f03
     f18:	0100                	addi	s0,sp,128
     f1a:	2405                	addiw	s0,s0,1
     f1c:	06090003          	lb	zero,96(s2)
     f20:	0100                	addi	s0,sp,128
     f22:	1605                	addi	a2,a2,-31
     f24:	04090203          	lb	tp,64(s2)
     f28:	0100                	addi	s0,sp,128
     f2a:	1d05                	addi	s10,s10,-31
     f2c:	04097d03          	.insn	4, 0x04097d03
     f30:	0100                	addi	s0,sp,128
     f32:	0705                	addi	a4,a4,1
     f34:	0306                	slli	t1,t1,0x1
     f36:	0900                	addi	s0,sp,144
     f38:	0002                	c.slli64	zero
     f3a:	0501                	addi	a0,a0,0
     f3c:	0309                	addi	t1,t1,2
     f3e:	0901                	addi	s2,s2,0
     f40:	0000                	unimp
     f42:	0501                	addi	a0,a0,0
     f44:	00030613          	mv	a2,t1
     f48:	0009                	c.nop	2
     f4a:	0100                	addi	s0,sp,128
     f4c:	0905                	addi	s2,s2,1
     f4e:	0306                	slli	t1,t1,0x1
     f50:	0901                	addi	s2,s2,0
     f52:	0004                	.insn	2, 0x0004
     f54:	0501                	addi	a0,a0,0
     f56:	060c                	addi	a1,sp,768
     f58:	00090003          	lb	zero,0(s2)
     f5c:	0100                	addi	s0,sp,128
     f5e:	0905                	addi	s2,s2,1
     f60:	0306                	slli	t1,t1,0x1
     f62:	0901                	addi	s2,s2,0
     f64:	0004                	.insn	2, 0x0004
     f66:	0501                	addi	a0,a0,0
     f68:	060c                	addi	a1,sp,768
     f6a:	00090003          	lb	zero,0(s2)
     f6e:	0100                	addi	s0,sp,128
     f70:	1305                	addi	t1,t1,-31
     f72:	04096703          	lwu	a4,64(s2)
     f76:	0100                	addi	s0,sp,128
     f78:	0705                	addi	a4,a4,1
     f7a:	0306                	slli	t1,t1,0x1
     f7c:	092c                	addi	a1,sp,152
     f7e:	0002                	c.slli64	zero
     f80:	0501                	addi	a0,a0,0
     f82:	060a                	slli	a2,a2,0x2
     f84:	00090003          	lb	zero,0(s2)
     f88:	0100                	addi	s0,sp,128
     f8a:	0f05                	addi	t5,t5,1
     f8c:	04090103          	lb	sp,64(s2)
     f90:	0100                	addi	s0,sp,128
     f92:	2605                	addiw	a2,a2,1
     f94:	02090003          	lb	zero,32(s2)
     f98:	0100                	addi	s0,sp,128
     f9a:	0705                	addi	a4,a4,1
     f9c:	0306                	slli	t1,t1,0x1
     f9e:	0004097b          	.insn	4, 0x0004097b
     fa2:	0301                	addi	t1,t1,0
     fa4:	0901                	addi	s2,s2,0
     fa6:	0000                	unimp
     fa8:	0501                	addi	a0,a0,0
     faa:	060e                	slli	a2,a2,0x3
     fac:	00096f03          	lwu	t5,0(s2)
     fb0:	0100                	addi	s0,sp,128
     fb2:	1305                	addi	t1,t1,-31
     fb4:	04096803          	lwu	a6,64(s2)
     fb8:	0100                	addi	s0,sp,128
     fba:	0705                	addi	a4,a4,1
     fbc:	02092903          	lw	s2,32(s2)
     fc0:	0100                	addi	s0,sp,128
     fc2:	0306                	slli	t1,t1,0x1
     fc4:	00c8                	addi	a0,sp,68
     fc6:	0209                	addi	tp,tp,2 # 2 <_start-0x7ffffffe>
     fc8:	0100                	addi	s0,sp,128
     fca:	0505                	addi	a0,a0,1
     fcc:	00091f03          	lh	t5,0(s2)
     fd0:	0100                	addi	s0,sp,128
     fd2:	00090103          	lb	sp,0(s2)
     fd6:	0100                	addi	s0,sp,128
     fd8:	0605                	addi	a2,a2,1
     fda:	0306                	slli	t1,t1,0x1
     fdc:	0900                	addi	s0,sp,144
     fde:	0000                	unimp
     fe0:	0501                	addi	a0,a0,0
     fe2:	030c                	addi	a1,sp,384
     fe4:	0900                	addi	s0,sp,144
     fe6:	0002                	c.slli64	zero
     fe8:	0501                	addi	a0,a0,0
     fea:	0605                	addi	a2,a2,1
     fec:	08090103          	lb	sp,128(s2)
     ff0:	0100                	addi	s0,sp,128
     ff2:	0c05                	addi	s8,s8,1
     ff4:	0306                	slli	t1,t1,0x1
     ff6:	0900                	addi	s0,sp,144
     ff8:	0000                	unimp
     ffa:	0501                	addi	a0,a0,0
     ffc:	60030607          	.insn	4, 0x60030607
    1000:	0609                	addi	a2,a2,2
    1002:	0100                	addi	s0,sp,128
    1004:	0305                	addi	t1,t1,1
    1006:	0306                	slli	t1,t1,0x1
    1008:	0921                	addi	s2,s2,8
    100a:	0000                	unimp
    100c:	0501                	addi	a0,a0,0
    100e:	8c030607          	.insn	4, 0x8c030607
    1012:	097f 0002 0501 060e 	.insn	10, 0x7903060e05010002097f
    101a:	7903 
    101c:	0009                	c.nop	2
    101e:	0100                	addi	s0,sp,128
    1020:	1105                	addi	sp,sp,-31
    1022:	04090703          	lb	a4,64(s2)
    1026:	0100                	addi	s0,sp,128
    1028:	0705                	addi	a4,a4,1
    102a:	0306                	slli	t1,t1,0x1
    102c:	0901                	addi	s2,s2,0
    102e:	0002                	c.slli64	zero
    1030:	0501                	addi	a0,a0,0
    1032:	60030613          	addi	a2,t1,1536
    1036:	0009                	c.nop	2
    1038:	0100                	addi	s0,sp,128
    103a:	1105                	addi	sp,sp,-31
    103c:	02091f03          	lh	t5,32(s2)
    1040:	0100                	addi	s0,sp,128
    1042:	0705                	addi	a4,a4,1
    1044:	02090103          	lb	sp,32(s2)
    1048:	0100                	addi	s0,sp,128
    104a:	0306                	slli	t1,t1,0x1
    104c:	00c0                	addi	s0,sp,68
    104e:	0209                	addi	tp,tp,2 # 2 <_start-0x7ffffffe>
    1050:	0100                	addi	s0,sp,128
    1052:	00090003          	lb	zero,0(s2)
    1056:	0100                	addi	s0,sp,128
    1058:	3305                	addiw	t1,t1,-31
    105a:	00090003          	lb	zero,0(s2)
    105e:	0100                	addi	s0,sp,128
    1060:	0705                	addi	a4,a4,1
    1062:	00090103          	lb	sp,0(s2)
    1066:	0100                	addi	s0,sp,128
    1068:	00090103          	lb	sp,0(s2)
    106c:	0100                	addi	s0,sp,128
    106e:	0505                	addi	a0,a0,1
    1070:	00092e03          	lw	t3,0(s2)
    1074:	0100                	addi	s0,sp,128
    1076:	00090103          	lb	sp,0(s2)
    107a:	0100                	addi	s0,sp,128
    107c:	0605                	addi	a2,a2,1
    107e:	0306                	slli	t1,t1,0x1
    1080:	0900                	addi	s0,sp,144
    1082:	0000                	unimp
    1084:	0501                	addi	a0,a0,0
    1086:	030c                	addi	a1,sp,384
    1088:	0900                	addi	s0,sp,144
    108a:	0002                	c.slli64	zero
    108c:	0501                	addi	a0,a0,0
    108e:	0605                	addi	a2,a2,1
    1090:	0c090103          	lb	sp,192(s2)
    1094:	0100                	addi	s0,sp,128
    1096:	0605                	addi	a2,a2,1
    1098:	0306                	slli	t1,t1,0x1
    109a:	0900                	addi	s0,sp,144
    109c:	0000                	unimp
    109e:	0501                	addi	a0,a0,0
    10a0:	030c                	addi	a1,sp,384
    10a2:	0900                	addi	s0,sp,144
    10a4:	0002                	c.slli64	zero
    10a6:	0501                	addi	a0,a0,0
    10a8:	51030607          	.insn	4, 0x51030607
    10ac:	0e09                	addi	t3,t3,2
    10ae:	0100                	addi	s0,sp,128
    10b0:	0505                	addi	a0,a0,1
    10b2:	00092d03          	lw	s10,0(s2)
    10b6:	0100                	addi	s0,sp,128
    10b8:	00090103          	lb	sp,0(s2)
    10bc:	0100                	addi	s0,sp,128
    10be:	0c05                	addi	s8,s8,1
    10c0:	0306                	slli	t1,t1,0x1
    10c2:	0900                	addi	s0,sp,144
    10c4:	0000                	unimp
    10c6:	0501                	addi	a0,a0,0
    10c8:	0605                	addi	a2,a2,1
    10ca:	04090103          	lb	sp,64(s2)
    10ce:	0100                	addi	s0,sp,128
    10d0:	0c05                	addi	s8,s8,1
    10d2:	0306                	slli	t1,t1,0x1
    10d4:	0900                	addi	s0,sp,144
    10d6:	0000                	unimp
    10d8:	0501                	addi	a0,a0,0
    10da:	56030607          	.insn	4, 0x56030607
    10de:	0609                	addi	a2,a2,2
    10e0:	0100                	addi	s0,sp,128
    10e2:	00090203          	lb	tp,0(s2)
    10e6:	0100                	addi	s0,sp,128
    10e8:	0305                	addi	t1,t1,1
    10ea:	097eea03          	lwu	s4,151(t4)
    10ee:	0000                	unimp
    10f0:	0501                	addi	a0,a0,0
    10f2:	0308                	addi	a0,sp,384
    10f4:	0902                	c.slli64	s2
    10f6:	0000                	unimp
    10f8:	0501                	addi	a0,a0,0
    10fa:	0305                	addi	t1,t1,1
    10fc:	0901                	addi	s2,s2,0
    10fe:	0000                	unimp
    1100:	0501                	addi	a0,a0,0
    1102:	060c                	addi	a1,sp,768
    1104:	00090003          	lb	zero,0(s2)
    1108:	0100                	addi	s0,sp,128
    110a:	0705                	addi	a4,a4,1
    110c:	0306                	slli	t1,t1,0x1
    110e:	0195                	addi	gp,gp,5 # 8000284d <__global_pointer$+0x5>
    1110:	0409                	addi	s0,s0,2
    1112:	0100                	addi	s0,sp,128
    1114:	0305                	addi	t1,t1,1
    1116:	097ed403          	lhu	s0,151(t4)
    111a:	0000                	unimp
    111c:	0301                	addi	t1,t1,0
    111e:	0901                	addi	s2,s2,0
    1120:	0000                	unimp
    1122:	0301                	addi	t1,t1,0
    1124:	0902                	c.slli64	s2
    1126:	0000                	unimp
    1128:	0501                	addi	a0,a0,0
    112a:	0305                	addi	t1,t1,1
    112c:	0902                	c.slli64	s2
    112e:	0000                	unimp
    1130:	0501                	addi	a0,a0,0
    1132:	00030617          	auipc	a2,0x30
    1136:	0009                	c.nop	2
    1138:	0100                	addi	s0,sp,128
    113a:	0d05                	addi	s10,s10,1
    113c:	08090003          	lb	zero,128(s2)
    1140:	0100                	addi	s0,sp,128
    1142:	1105                	addi	sp,sp,-31
    1144:	02090003          	lb	zero,32(s2)
    1148:	0100                	addi	s0,sp,128
    114a:	0505                	addi	a0,a0,1
    114c:	0306                	slli	t1,t1,0x1
    114e:	0901                	addi	s2,s2,0
    1150:	0002                	c.slli64	zero
    1152:	0501                	addi	a0,a0,0
    1154:	0608                	addi	a0,sp,768
    1156:	00090003          	lb	zero,0(s2)
    115a:	0100                	addi	s0,sp,128
    115c:	0505                	addi	a0,a0,1
    115e:	0306                	slli	t1,t1,0x1
    1160:	0902                	c.slli64	s2
    1162:	0004                	.insn	2, 0x0004
    1164:	0501                	addi	a0,a0,0
    1166:	0609                	addi	a2,a2,2 # 31134 <_start-0x7ffceecc>
    1168:	00090003          	lb	zero,0(s2)
    116c:	0100                	addi	s0,sp,128
    116e:	0306                	slli	t1,t1,0x1
    1170:	0004097b          	.insn	4, 0x0004097b
    1174:	0501                	addi	a0,a0,0
    1176:	09000303          	lb	t1,144(zero) # 90 <_start-0x7fffff70>
    117a:	0000                	unimp
    117c:	0501                	addi	a0,a0,0
    117e:	0305                	addi	t1,t1,1
    1180:	0902                	c.slli64	s2
    1182:	0000                	unimp
    1184:	0501                	addi	a0,a0,0
    1186:	0608                	addi	a0,sp,768
    1188:	02090103          	lb	sp,32(s2)
    118c:	0100                	addi	s0,sp,128
    118e:	0d05                	addi	s10,s10,1
    1190:	02097f03          	.insn	4, 0x02097f03
    1194:	0100                	addi	s0,sp,128
    1196:	1705                	addi	a4,a4,-31
    1198:	02090003          	lb	zero,32(s2)
    119c:	0100                	addi	s0,sp,128
    119e:	1105                	addi	sp,sp,-31
    11a0:	04090003          	lb	zero,64(s2)
    11a4:	0100                	addi	s0,sp,128
    11a6:	0505                	addi	a0,a0,1
    11a8:	0306                	slli	t1,t1,0x1
    11aa:	0901                	addi	s2,s2,0
    11ac:	0004                	.insn	2, 0x0004
    11ae:	0501                	addi	a0,a0,0
    11b0:	0608                	addi	a0,sp,768
    11b2:	00090003          	lb	zero,0(s2)
    11b6:	0100                	addi	s0,sp,128
    11b8:	1205                	addi	tp,tp,-31 # ffffffffffffffe1 <__global_pointer$+0xffffffff7fffd799>
    11ba:	0306                	slli	t1,t1,0x1
    11bc:	0905                	addi	s2,s2,1
    11be:	0004                	.insn	2, 0x0004
    11c0:	0501                	addi	a0,a0,0
    11c2:	0003060f          	.insn	4, 0x0003060f
    11c6:	0009                	c.nop	2
    11c8:	0100                	addi	s0,sp,128
    11ca:	1205                	addi	tp,tp,-31 # ffffffffffffffe1 <__global_pointer$+0xffffffff7fffd799>
    11cc:	08090003          	lb	zero,128(s2)
    11d0:	0100                	addi	s0,sp,128
    11d2:	0505                	addi	a0,a0,1
    11d4:	0306                	slli	t1,t1,0x1
    11d6:	0901                	addi	s2,s2,0
    11d8:	0004                	.insn	2, 0x0004
    11da:	0301                	addi	t1,t1,0
    11dc:	01c4                	addi	s1,sp,196
    11de:	0009                	c.nop	2
    11e0:	0100                	addi	s0,sp,128
    11e2:	00090103          	lb	sp,0(s2)
    11e6:	0100                	addi	s0,sp,128
    11e8:	0c05                	addi	s8,s8,1
    11ea:	0306                	slli	t1,t1,0x1
    11ec:	0900                	addi	s0,sp,144
    11ee:	0000                	unimp
    11f0:	0501                	addi	a0,a0,0
    11f2:	0605                	addi	a2,a2,1
    11f4:	04090103          	lb	sp,64(s2)
    11f8:	0100                	addi	s0,sp,128
    11fa:	0c05                	addi	s8,s8,1
    11fc:	0306                	slli	t1,t1,0x1
    11fe:	0900                	addi	s0,sp,144
    1200:	0000                	unimp
    1202:	0501                	addi	a0,a0,0
    1204:	7eb9030f          	.insn	4, 0x7eb9030f
    1208:	0209                	addi	tp,tp,2 # 2 <_start-0x7ffffffe>
    120a:	0100                	addi	s0,sp,128
    120c:	0c05                	addi	s8,s8,1
    120e:	0901c703          	lbu	a4,144(gp) # 800028d8 <__global_pointer$+0x90>
    1212:	0002                	c.slli64	zero
    1214:	0501                	addi	a0,a0,0
    1216:	0612                	slli	a2,a2,0x4
    1218:	097eb903          	ld	s2,151(t4)
    121c:	0004                	.insn	2, 0x0004
    121e:	0501                	addi	a0,a0,0
    1220:	0310                	addi	a2,sp,384
    1222:	00040903          	lb	s2,0(s0)
    1226:	0501                	addi	a0,a0,0
    1228:	01030633          	add	a2,t1,a6
    122c:	0a09                	addi	s4,s4,2
    122e:	0100                	addi	s0,sp,128
    1230:	0505                	addi	a0,a0,1
    1232:	0306                	slli	t1,t1,0x1
    1234:	01c1                	addi	gp,gp,16 # 80002858 <__global_pointer$+0x10>
    1236:	0409                	addi	s0,s0,2
    1238:	0100                	addi	s0,sp,128
    123a:	00090103          	lb	sp,0(s2)
    123e:	0100                	addi	s0,sp,128
    1240:	1505                	addi	a0,a0,-31
    1242:	0200                	addi	s0,sp,256
    1244:	0404                	addi	s1,sp,512
    1246:	0306                	slli	t1,t1,0x1
    1248:	7ebe                	ld	t4,488(sp)
    124a:	0009                	c.nop	2
    124c:	0100                	addi	s0,sp,128
    124e:	0c05                	addi	s8,s8,1
    1250:	0901c203          	lbu	tp,144(gp) # 800028d8 <__global_pointer$+0x90>
    1254:	0004                	.insn	2, 0x0004
    1256:	0501                	addi	a0,a0,0
    1258:	0605                	addi	a2,a2,1
    125a:	04090103          	lb	sp,64(s2)
    125e:	0100                	addi	s0,sp,128
    1260:	0c05                	addi	s8,s8,1
    1262:	0306                	slli	t1,t1,0x1
    1264:	0900                	addi	s0,sp,144
    1266:	0000                	unimp
    1268:	0501                	addi	a0,a0,0
    126a:	0310                	addi	a2,sp,384
    126c:	7ebc                	ld	a5,120(a3)
    126e:	0209                	addi	tp,tp,2 # 2 <_start-0x7ffffffe>
    1270:	0100                	addi	s0,sp,128
    1272:	0c05                	addi	s8,s8,1
    1274:	0901c403          	lbu	s0,144(gp) # 800028d8 <__global_pointer$+0x90>
    1278:	0002                	c.slli64	zero
    127a:	0501                	addi	a0,a0,0
    127c:	0610                	addi	a2,sp,768
    127e:	097ebc03          	ld	s8,151(t4)
    1282:	0004                	.insn	2, 0x0004
    1284:	0501                	addi	a0,a0,0
    1286:	0305                	addi	t1,t1,1
    1288:	0901                	addi	s2,s2,0
    128a:	0004                	.insn	2, 0x0004
    128c:	0501                	addi	a0,a0,0
    128e:	0003060f          	.insn	4, 0x0003060f
    1292:	0009                	c.nop	2
    1294:	0100                	addi	s0,sp,128
    1296:	3305                	addiw	t1,t1,-31
    1298:	02090003          	lb	zero,32(s2)
    129c:	0100                	addi	s0,sp,128
    129e:	0505                	addi	a0,a0,1
    12a0:	0306                	slli	t1,t1,0x1
    12a2:	01c1                	addi	gp,gp,16 # 80002858 <__global_pointer$+0x10>
    12a4:	0409                	addi	s0,s0,2
    12a6:	0100                	addi	s0,sp,128
    12a8:	00090103          	lb	sp,0(s2)
    12ac:	0100                	addi	s0,sp,128
    12ae:	1505                	addi	a0,a0,-31
    12b0:	0200                	addi	s0,sp,256
    12b2:	0404                	addi	s1,sp,512
    12b4:	0306                	slli	t1,t1,0x1
    12b6:	7ebe                	ld	t4,488(sp)
    12b8:	0009                	c.nop	2
    12ba:	0100                	addi	s0,sp,128
    12bc:	0705                	addi	a4,a4,1
    12be:	0306                	slli	t1,t1,0x1
    12c0:	00fc                	addi	a5,sp,76
    12c2:	0609                	addi	a2,a2,2
    12c4:	0100                	addi	s0,sp,128
    12c6:	0305                	addi	t1,t1,1
    12c8:	097f9303          	lh	t1,151(t6)
    12cc:	0000                	unimp
    12ce:	0501                	addi	a0,a0,0
    12d0:	0606                	slli	a2,a2,0x1
    12d2:	00090003          	lb	zero,0(s2)
    12d6:	0100                	addi	s0,sp,128
    12d8:	1105                	addi	sp,sp,-31
    12da:	0900c103          	lbu	sp,144(ra)
    12de:	0002                	c.slli64	zero
    12e0:	0501                	addi	a0,a0,0
    12e2:	0306                	slli	t1,t1,0x1
    12e4:	04097fbf 08050100 	.insn	8, 0x0805010004097fbf
    12ec:	0306                	slli	t1,t1,0x1
    12ee:	0902                	c.slli64	s2
    12f0:	0004                	.insn	2, 0x0004
    12f2:	0501                	addi	a0,a0,0
    12f4:	0003060b          	.insn	4, 0x0003060b
    12f8:	0009                	c.nop	2
    12fa:	0100                	addi	s0,sp,128
    12fc:	0505                	addi	a0,a0,1
    12fe:	0306                	slli	t1,t1,0x1
    1300:	0901                	addi	s2,s2,0
    1302:	0004                	.insn	2, 0x0004
    1304:	0501                	addi	a0,a0,0
    1306:	060c                	addi	a1,sp,768
    1308:	00090003          	lb	zero,0(s2)
    130c:	0100                	addi	s0,sp,128
    130e:	0705                	addi	a4,a4,1
    1310:	0306                	slli	t1,t1,0x1
    1312:	020900eb          	.insn	4, 0x020900eb
    1316:	0100                	addi	s0,sp,128
    1318:	0605                	addi	a2,a2,1
    131a:	0306                	slli	t1,t1,0x1
    131c:	00c5                	addi	ra,ra,17
    131e:	0009                	c.nop	2
    1320:	0100                	addi	s0,sp,128
    1322:	0a05                	addi	s4,s4,1
    1324:	097fbb03          	ld	s6,151(t6)
    1328:	0002                	c.slli64	zero
    132a:	0501                	addi	a0,a0,0
    132c:	0402000b          	.insn	4, 0x0402000b
    1330:	0301                	addi	t1,t1,0
    1332:	097f 0004 0501 0607 	.insn	10, 0x6703060705010004097f
    133a:	6703 
    133c:	0609                	addi	a2,a2,2
    133e:	0100                	addi	s0,sp,128
    1340:	0e05                	addi	t3,t3,1
    1342:	0306                	slli	t1,t1,0x1
    1344:	0966                	slli	s2,s2,0x19
    1346:	0000                	unimp
    1348:	0501                	addi	a0,a0,0
    134a:	030c                	addi	a1,sp,384
    134c:	091a                	slli	s2,s2,0x6
    134e:	0004                	.insn	2, 0x0004
    1350:	0501                	addi	a0,a0,0
    1352:	01030607          	.insn	4, 0x01030607
    1356:	0209                	addi	tp,tp,2 # 2 <_start-0x7ffffffe>
    1358:	0100                	addi	s0,sp,128
    135a:	1305                	addi	t1,t1,-31
    135c:	0306                	slli	t1,t1,0x1
    135e:	094d                	addi	s2,s2,19
    1360:	0000                	unimp
    1362:	0501                	addi	a0,a0,0
    1364:	09330307          	.insn	4, 0x09330307
    1368:	0002                	c.slli64	zero
    136a:	0501                	addi	a0,a0,0
    136c:	0305                	addi	t1,t1,1
    136e:	094d                	addi	s2,s2,19
    1370:	0002                	c.slli64	zero
    1372:	0501                	addi	a0,a0,0
    1374:	ea030607          	.insn	4, 0xea030607
    1378:	0900                	addi	s0,sp,144
    137a:	0002                	c.slli64	zero
    137c:	0501                	addi	a0,a0,0
    137e:	7eea0303          	lb	t1,2030(s4)
    1382:	0009                	c.nop	2
    1384:	0100                	addi	s0,sp,128
    1386:	0605                	addi	a2,a2,1
    1388:	0306                	slli	t1,t1,0x1
    138a:	0900                	addi	s0,sp,144
    138c:	0000                	unimp
    138e:	0301                	addi	t1,t1,0
    1390:	01bd                	addi	gp,gp,15 # 80002857 <__global_pointer$+0xf>
    1392:	0209                	addi	tp,tp,2 # 2 <_start-0x7ffffffe>
    1394:	0100                	addi	s0,sp,128
    1396:	1105                	addi	sp,sp,-31
    1398:	097f8e03          	lb	t3,151(t6)
    139c:	0002                	c.slli64	zero
    139e:	0501                	addi	a0,a0,0
    13a0:	0306                	slli	t1,t1,0x1
    13a2:	7fb5                	lui	t6,0xfffed
    13a4:	0409                	addi	s0,s0,2
    13a6:	0100                	addi	s0,sp,128
    13a8:	0805                	addi	a6,a6,1
    13aa:	0306                	slli	t1,t1,0x1
    13ac:	0902                	c.slli64	s2
    13ae:	0004                	.insn	2, 0x0004
    13b0:	0501                	addi	a0,a0,0
    13b2:	0003060b          	.insn	4, 0x0003060b
    13b6:	0009                	c.nop	2
    13b8:	0100                	addi	s0,sp,128
    13ba:	0505                	addi	a0,a0,1
    13bc:	0306                	slli	t1,t1,0x1
    13be:	00040903          	lb	s2,0(s0)
    13c2:	0501                	addi	a0,a0,0
    13c4:	000c                	.insn	2, 0x000c
    13c6:	0402                	c.slli64	s0
    13c8:	0601                	addi	a2,a2,0
    13ca:	00090003          	lb	zero,0(s2)
    13ce:	0100                	addi	s0,sp,128
    13d0:	04090003          	lb	zero,64(s2)
    13d4:	0100                	addi	s0,sp,128
    13d6:	0705                	addi	a4,a4,1
    13d8:	0306                	slli	t1,t1,0x1
    13da:	040900e3          	beqz	s2,1c1a <_start-0x7fffe3e6>
    13de:	0100                	addi	s0,sp,128
    13e0:	0e05                	addi	t3,t3,1
    13e2:	0306                	slli	t1,t1,0x1
    13e4:	0900                	addi	s0,sp,144
    13e6:	0000                	unimp
    13e8:	0501                	addi	a0,a0,0
    13ea:	000a                	c.slli	zero,0x2
    13ec:	0402                	c.slli64	s0
    13ee:	0301                	addi	t1,t1,0
    13f0:	0900                	addi	s0,sp,144
    13f2:	0002                	c.slli64	zero
    13f4:	0501                	addi	a0,a0,0
    13f6:	02030607          	.insn	4, 0x02030607
    13fa:	0209                	addi	tp,tp,2 # 2 <_start-0x7ffffffe>
    13fc:	0100                	addi	s0,sp,128
    13fe:	0a05                	addi	s4,s4,1
    1400:	0306                	slli	t1,t1,0x1
    1402:	0900                	addi	s0,sp,144
    1404:	0000                	unimp
    1406:	0501                	addi	a0,a0,0
    1408:	0015                	c.nop	5
    140a:	0402                	c.slli64	s0
    140c:	0301                	addi	t1,t1,0
    140e:	0900                	addi	s0,sp,144
    1410:	0004                	.insn	2, 0x0004
    1412:	0501                	addi	a0,a0,0
    1414:	0020                	addi	s0,sp,8
    1416:	0402                	c.slli64	s0
    1418:	0601                	addi	a2,a2,0
    141a:	08090303          	lb	t1,128(s2)
    141e:	0100                	addi	s0,sp,128
    1420:	1405                	addi	s0,s0,-31
    1422:	0200                	addi	s0,sp,256
    1424:	0104                	addi	s1,sp,128
    1426:	0306                	slli	t1,t1,0x1
    1428:	0900                	addi	s0,sp,144
    142a:	0000                	unimp
    142c:	0501                	addi	a0,a0,0
    142e:	0020                	addi	s0,sp,8
    1430:	0402                	c.slli64	s0
    1432:	0301                	addi	t1,t1,0
    1434:	0900                	addi	s0,sp,144
    1436:	0004                	.insn	2, 0x0004
    1438:	0501                	addi	a0,a0,0
    143a:	0609                	addi	a2,a2,2
    143c:	04097c03          	.insn	4, 0x04097c03
    1440:	0100                	addi	s0,sp,128
    1442:	0705                	addi	a4,a4,1
    1444:	00090103          	lb	sp,0(s2)
    1448:	0100                	addi	s0,sp,128
    144a:	0b05                	addi	s6,s6,1
    144c:	0306                	slli	t1,t1,0x1
    144e:	097f 0000 0501 0014 	.insn	10, 0x0402001405010000097f
    1456:	0402 
    1458:	0301                	addi	t1,t1,0
    145a:	0904                	addi	s1,sp,144
    145c:	0008                	.insn	2, 0x0008
    145e:	0501                	addi	a0,a0,0
    1460:	030a                	slli	t1,t1,0x2
    1462:	097d                	addi	s2,s2,31
    1464:	0004                	.insn	2, 0x0004
    1466:	0501                	addi	a0,a0,0
    1468:	0015                	c.nop	5
    146a:	0402                	c.slli64	s0
    146c:	0301                	addi	t1,t1,0
    146e:	0900                	addi	s0,sp,144
    1470:	0004                	.insn	2, 0x0004
    1472:	0501                	addi	a0,a0,0
    1474:	097f030b          	.insn	4, 0x097f030b
    1478:	0004                	.insn	2, 0x0004
    147a:	0501                	addi	a0,a0,0
    147c:	0014                	.insn	2, 0x0014
    147e:	0402                	c.slli64	s0
    1480:	0301                	addi	t1,t1,0
    1482:	0904                	addi	s1,sp,144
    1484:	0008                	.insn	2, 0x0008
    1486:	0501                	addi	a0,a0,0
    1488:	0015                	c.nop	5
    148a:	0402                	c.slli64	s0
    148c:	0301                	addi	t1,t1,0
    148e:	097d                	addi	s2,s2,31
    1490:	0004                	.insn	2, 0x0004
    1492:	0501                	addi	a0,a0,0
    1494:	0609                	addi	a2,a2,2
    1496:	04090103          	lb	sp,64(s2)
    149a:	0100                	addi	s0,sp,128
    149c:	0305                	addi	t1,t1,1
    149e:	09018a03          	lb	s4,144(gp) # 800028d8 <__global_pointer$+0x90>
    14a2:	0000                	unimp
    14a4:	0301                	addi	t1,t1,0
    14a6:	0901                	addi	s2,s2,0
    14a8:	0000                	unimp
    14aa:	0501                	addi	a0,a0,0
    14ac:	030e                	slli	t1,t1,0x3
    14ae:	0900                	addi	s0,sp,144
    14b0:	0000                	unimp
    14b2:	0501                	addi	a0,a0,0
    14b4:	7f03060f          	.insn	4, 0x7f03060f
    14b8:	0009                	c.nop	2
    14ba:	0100                	addi	s0,sp,128
    14bc:	0e05                	addi	t3,t3,1
    14be:	02090103          	lb	sp,32(s2)
    14c2:	0100                	addi	s0,sp,128
    14c4:	0505                	addi	a0,a0,1
    14c6:	0306                	slli	t1,t1,0x1
    14c8:	0901                	addi	s2,s2,0
    14ca:	0008                	.insn	2, 0x0008
    14cc:	0501                	addi	a0,a0,0
    14ce:	0606                	slli	a2,a2,0x1
    14d0:	00090003          	lb	zero,0(s2)
    14d4:	0100                	addi	s0,sp,128
    14d6:	0e05                	addi	t3,t3,1
    14d8:	0306                	slli	t1,t1,0x1
    14da:	097f 0002 0001 0402 	.insn	10, 0x0601040200010002097f
    14e2:	0601 
    14e4:	04090003          	lb	zero,64(s2)
    14e8:	0100                	addi	s0,sp,128
    14ea:	0c05                	addi	s8,s8,1
    14ec:	08090203          	lb	tp,128(s2)
    14f0:	0100                	addi	s0,sp,128
    14f2:	1405                	addi	s0,s0,-31
    14f4:	0200                	addi	s0,sp,256
    14f6:	0104                	addi	s1,sp,128
    14f8:	097ef303          	.insn	4, 0x097ef303
    14fc:	0002                	c.slli64	zero
    14fe:	0501                	addi	a0,a0,0
    1500:	8d030603          	lb	a2,-1840(t1)
    1504:	0901                	addi	s2,s2,0
    1506:	0004                	.insn	2, 0x0004
    1508:	0501                	addi	a0,a0,0
    150a:	0034                	addi	a3,sp,8
    150c:	0402                	c.slli64	s0
    150e:	0301                	addi	t1,t1,0
    1510:	00097ef3          	csrrci	t4,ustatus,18
    1514:	0100                	addi	s0,sp,128
    1516:	0605                	addi	a2,a2,1
    1518:	0306                	slli	t1,t1,0x1
    151a:	00d2                	slli	ra,ra,0x14
    151c:	0409                	addi	s0,s0,2
    151e:	0100                	addi	s0,sp,128
    1520:	0b05                	addi	s6,s6,1
    1522:	0306                	slli	t1,t1,0x1
    1524:	02097faf          	.insn	4, 0x02097faf
    1528:	0100                	addi	s0,sp,128
    152a:	0505                	addi	a0,a0,1
    152c:	0900d003          	lhu	zero,144(ra)
    1530:	0000                	unimp
    1532:	0301                	addi	t1,t1,0
    1534:	0901                	addi	s2,s2,0
    1536:	0000                	unimp
    1538:	0501                	addi	a0,a0,0
    153a:	060c                	addi	a1,sp,768
    153c:	00090003          	lb	zero,0(s2)
    1540:	0100                	addi	s0,sp,128
    1542:	0505                	addi	a0,a0,1
    1544:	0306                	slli	t1,t1,0x1
    1546:	0901                	addi	s2,s2,0
    1548:	0004                	.insn	2, 0x0004
    154a:	0501                	addi	a0,a0,0
    154c:	060c                	addi	a1,sp,768
    154e:	00090003          	lb	zero,0(s2)
    1552:	0100                	addi	s0,sp,128
    1554:	3e05                	addiw	t3,t3,-31
    1556:	0200                	addi	s0,sp,256
    1558:	0304                	addi	s1,sp,384
    155a:	097fad03          	lw	s10,151(t6) # fffffffffffed097 <__global_pointer$+0xffffffff7ffea84f>
    155e:	0002                	c.slli64	zero
    1560:	0501                	addi	a0,a0,0
    1562:	030c                	addi	a1,sp,384
    1564:	020900d3          	fadd.d	ft1,fs2,ft0,rne
    1568:	0100                	addi	s0,sp,128
    156a:	3e05                	addiw	t3,t3,-31
    156c:	0200                	addi	s0,sp,256
    156e:	0304                	addi	s1,sp,384
    1570:	0306                	slli	t1,t1,0x1
    1572:	7fad                	lui	t6,0xfffeb
    1574:	0409                	addi	s0,s0,2
    1576:	0100                	addi	s0,sp,128
    1578:	3405                	addiw	s0,s0,-31
    157a:	0200                	addi	s0,sp,256
    157c:	0104                	addi	s1,sp,128
    157e:	00090003          	lb	zero,0(s2)
    1582:	0100                	addi	s0,sp,128
    1584:	2005                	.insn	2, 0x2005
    1586:	0200                	addi	s0,sp,256
    1588:	0104                	addi	s1,sp,128
    158a:	04090203          	lb	tp,64(s2)
    158e:	0100                	addi	s0,sp,128
    1590:	1405                	addi	s0,s0,-31
    1592:	0200                	addi	s0,sp,256
    1594:	0104                	addi	s1,sp,128
    1596:	0306                	slli	t1,t1,0x1
    1598:	0900                	addi	s0,sp,144
    159a:	0000                	unimp
    159c:	0501                	addi	a0,a0,0
    159e:	0020                	addi	s0,sp,8
    15a0:	0402                	c.slli64	s0
    15a2:	0301                	addi	t1,t1,0
    15a4:	0900                	addi	s0,sp,144
    15a6:	0004                	.insn	2, 0x0004
    15a8:	0501                	addi	a0,a0,0
    15aa:	0032                	c.slli	zero,0xc
    15ac:	0402                	c.slli64	s0
    15ae:	0304                	addi	s1,sp,384
    15b0:	0900                	addi	s0,sp,144
    15b2:	0002                	c.slli64	zero
    15b4:	0501                	addi	a0,a0,0
    15b6:	0020                	addi	s0,sp,8
    15b8:	0402                	c.slli64	s0
    15ba:	0302                	c.slli64	t1
    15bc:	0900                	addi	s0,sp,144
    15be:	0002                	c.slli64	zero
    15c0:	0501                	addi	a0,a0,0
    15c2:	0609                	addi	a2,a2,2
    15c4:	04090103          	lb	sp,64(s2)
    15c8:	0100                	addi	s0,sp,128
    15ca:	0505                	addi	a0,a0,1
    15cc:	0900ce03          	lbu	t3,144(ra)
    15d0:	0000                	unimp
    15d2:	0301                	addi	t1,t1,0
    15d4:	0901                	addi	s2,s2,0
    15d6:	0000                	unimp
    15d8:	0501                	addi	a0,a0,0
    15da:	0606                	slli	a2,a2,0x1
    15dc:	00090003          	lb	zero,0(s2)
    15e0:	0100                	addi	s0,sp,128
    15e2:	0a05                	addi	s4,s4,1
    15e4:	097fb203          	ld	tp,151(t6) # fffffffffffeb097 <__global_pointer$+0xffffffff7ffe884f>
    15e8:	0002                	c.slli64	zero
    15ea:	0501                	addi	a0,a0,0
    15ec:	004d                	c.nop	19
    15ee:	0402                	c.slli64	s0
    15f0:	0305                	addi	t1,t1,1
    15f2:	097e                	slli	s2,s2,0x1f
    15f4:	0004                	.insn	2, 0x0004
    15f6:	0501                	addi	a0,a0,0
    15f8:	030c                	addi	a1,sp,384
    15fa:	00d0                	addi	a2,sp,68
    15fc:	0209                	addi	tp,tp,2 # 2 <_start-0x7ffffffe>
    15fe:	0100                	addi	s0,sp,128
    1600:	0505                	addi	a0,a0,1
    1602:	0306                	slli	t1,t1,0x1
    1604:	0901                	addi	s2,s2,0
    1606:	0004                	.insn	2, 0x0004
    1608:	0501                	addi	a0,a0,0
    160a:	060c                	addi	a1,sp,768
    160c:	00090003          	lb	zero,0(s2)
    1610:	0100                	addi	s0,sp,128
    1612:	0905                	addi	s2,s2,1
    1614:	0306                	slli	t1,t1,0x1
    1616:	7fb1                	lui	t6,0xfffec
    1618:	0809                	addi	a6,a6,2
    161a:	0100                	addi	s0,sp,128
    161c:	4d05                	li	s10,1
    161e:	0200                	addi	s0,sp,256
    1620:	0504                	addi	s1,sp,640
    1622:	00097e03          	.insn	4, 0x00097e03
    1626:	0100                	addi	s0,sp,128
    1628:	2005                	.insn	2, 0x2005
    162a:	0200                	addi	s0,sp,256
    162c:	0104                	addi	s1,sp,128
    162e:	00090003          	lb	zero,0(s2)
    1632:	0100                	addi	s0,sp,128
    1634:	1405                	addi	s0,s0,-31
    1636:	0200                	addi	s0,sp,256
    1638:	0104                	addi	s1,sp,128
    163a:	0306                	slli	t1,t1,0x1
    163c:	0900                	addi	s0,sp,144
    163e:	0000                	unimp
    1640:	0501                	addi	a0,a0,0
    1642:	0020                	addi	s0,sp,8
    1644:	0402                	c.slli64	s0
    1646:	0301                	addi	t1,t1,0
    1648:	0900                	addi	s0,sp,144
    164a:	0004                	.insn	2, 0x0004
    164c:	0501                	addi	a0,a0,0
    164e:	0609                	addi	a2,a2,2
    1650:	02090103          	lb	sp,32(s2)
    1654:	0100                	addi	s0,sp,128
    1656:	0505                	addi	a0,a0,1
    1658:	0900ce03          	lbu	t3,144(ra)
    165c:	0000                	unimp
    165e:	0301                	addi	t1,t1,0
    1660:	0901                	addi	s2,s2,0
    1662:	0000                	unimp
    1664:	0501                	addi	a0,a0,0
    1666:	060c                	addi	a1,sp,768
    1668:	00090003          	lb	zero,0(s2)
    166c:	0100                	addi	s0,sp,128
    166e:	0505                	addi	a0,a0,1
    1670:	0306                	slli	t1,t1,0x1
    1672:	0901                	addi	s2,s2,0
    1674:	0004                	.insn	2, 0x0004
    1676:	0501                	addi	a0,a0,0
    1678:	060c                	addi	a1,sp,768
    167a:	00090003          	lb	zero,0(s2)
    167e:	0100                	addi	s0,sp,128
    1680:	0a05                	addi	s4,s4,1
    1682:	097fb103          	ld	sp,151(t6) # fffffffffffec097 <__global_pointer$+0xffffffff7ffe984f>
    1686:	0002                	c.slli64	zero
    1688:	0501                	addi	a0,a0,0
    168a:	030c                	addi	a1,sp,384
    168c:	020900cf          	fnmadd.d	ft1,fs2,ft0,ft0,rne
    1690:	0100                	addi	s0,sp,128
    1692:	0905                	addi	s2,s2,1
    1694:	0306                	slli	t1,t1,0x1
    1696:	7fb1                	lui	t6,0xfffec
    1698:	0409                	addi	s0,s0,2
    169a:	0100                	addi	s0,sp,128
    169c:	4d05                	li	s10,1
    169e:	0200                	addi	s0,sp,256
    16a0:	0504                	addi	s1,sp,640
    16a2:	00097e03          	.insn	4, 0x00097e03
    16a6:	0100                	addi	s0,sp,128
    16a8:	2005                	.insn	2, 0x2005
    16aa:	0200                	addi	s0,sp,256
    16ac:	0104                	addi	s1,sp,128
    16ae:	00090003          	lb	zero,0(s2)
    16b2:	0100                	addi	s0,sp,128
    16b4:	1405                	addi	s0,s0,-31
    16b6:	0200                	addi	s0,sp,256
    16b8:	0104                	addi	s1,sp,128
    16ba:	0306                	slli	t1,t1,0x1
    16bc:	0900                	addi	s0,sp,144
    16be:	0000                	unimp
    16c0:	0501                	addi	a0,a0,0
    16c2:	0020                	addi	s0,sp,8
    16c4:	0402                	c.slli64	s0
    16c6:	0301                	addi	t1,t1,0
    16c8:	0900                	addi	s0,sp,144
    16ca:	0004                	.insn	2, 0x0004
    16cc:	0501                	addi	a0,a0,0
    16ce:	0014                	.insn	2, 0x0014
    16d0:	0402                	c.slli64	s0
    16d2:	0601                	addi	a2,a2,0
    16d4:	0a090403          	lb	s0,160(s2)
    16d8:	0100                	addi	s0,sp,128
    16da:	0605                	addi	a2,a2,1
    16dc:	0306                	slli	t1,t1,0x1
    16de:	00cc                	addi	a1,sp,68
    16e0:	0409                	addi	s0,s0,2
    16e2:	0100                	addi	s0,sp,128
    16e4:	0c05                	addi	s8,s8,1
    16e6:	02090003          	lb	zero,32(s2)
    16ea:	0100                	addi	s0,sp,128
    16ec:	0905                	addi	s2,s2,1
    16ee:	0306                	slli	t1,t1,0x1
    16f0:	7fb5                	lui	t6,0xfffed
    16f2:	0409                	addi	s0,s0,2
    16f4:	0100                	addi	s0,sp,128
    16f6:	0505                	addi	a0,a0,1
    16f8:	0900ca03          	lbu	s4,144(ra)
    16fc:	0000                	unimp
    16fe:	0301                	addi	t1,t1,0
    1700:	0901                	addi	s2,s2,0
    1702:	0000                	unimp
    1704:	0501                	addi	a0,a0,0
    1706:	060c                	addi	a1,sp,768
    1708:	00090003          	lb	zero,0(s2)
    170c:	0100                	addi	s0,sp,128
    170e:	0505                	addi	a0,a0,1
    1710:	0306                	slli	t1,t1,0x1
    1712:	0901                	addi	s2,s2,0
    1714:	0004                	.insn	2, 0x0004
    1716:	0501                	addi	a0,a0,0
    1718:	060c                	addi	a1,sp,768
    171a:	00090003          	lb	zero,0(s2)
    171e:	0100                	addi	s0,sp,128
    1720:	1e05                	addi	t3,t3,-31
    1722:	0200                	addi	s0,sp,256
    1724:	0204                	addi	s1,sp,256
    1726:	097fb303          	ld	t1,151(t6) # fffffffffffed097 <__global_pointer$+0xffffffff7ffea84f>
    172a:	0002                	c.slli64	zero
    172c:	0501                	addi	a0,a0,0
    172e:	030c                	addi	a1,sp,384
    1730:	00cd                	addi	ra,ra,19
    1732:	0209                	addi	tp,tp,2 # 2 <_start-0x7ffffffe>
    1734:	0100                	addi	s0,sp,128
    1736:	1e05                	addi	t3,t3,-31
    1738:	0200                	addi	s0,sp,256
    173a:	0204                	addi	s1,sp,256
    173c:	0306                	slli	t1,t1,0x1
    173e:	04097fb3          	.insn	4, 0x04097fb3
    1742:	0100                	addi	s0,sp,128
    1744:	1405                	addi	s0,s0,-31
    1746:	0200                	addi	s0,sp,256
    1748:	0104                	addi	s1,sp,128
    174a:	00090003          	lb	zero,0(s2)
    174e:	0100                	addi	s0,sp,128
    1750:	0e05                	addi	t3,t3,1
    1752:	0306                	slli	t1,t1,0x1
    1754:	00040977          	.insn	4, 0x00040977
    1758:	0501                	addi	a0,a0,0
    175a:	ac030603          	lb	a2,-1344(t1)
    175e:	097f 0002 0301 0901 	.insn	10, 0x090103010002097f
    1766:	0000 
    1768:	0301                	addi	t1,t1,0
    176a:	0901                	addi	s2,s2,0
    176c:	0000                	unimp
    176e:	0301                	addi	t1,t1,0
    1770:	0901                	addi	s2,s2,0
    1772:	0000                	unimp
    1774:	0301                	addi	t1,t1,0
    1776:	0901                	addi	s2,s2,0
    1778:	0000                	unimp
    177a:	0301                	addi	t1,t1,0
    177c:	0901                	addi	s2,s2,0
    177e:	0000                	unimp
    1780:	0301                	addi	t1,t1,0
    1782:	0902                	c.slli64	s2
    1784:	0000                	unimp
    1786:	0501                	addi	a0,a0,0
    1788:	0305                	addi	t1,t1,1
    178a:	0901                	addi	s2,s2,0
    178c:	0000                	unimp
    178e:	0501                	addi	a0,a0,0
    1790:	032a                	slli	t1,t1,0xa
    1792:	0900                	addi	s0,sp,144
    1794:	0000                	unimp
    1796:	0501                	addi	a0,a0,0
    1798:	0032                	c.slli	zero,0xc
    179a:	0402                	c.slli64	s0
    179c:	0604                	addi	s1,sp,768
    179e:	0900d103          	lhu	sp,144(ra)
    17a2:	0002                	c.slli64	zero
    17a4:	0501                	addi	a0,a0,0
    17a6:	0609                	addi	a2,a2,2
    17a8:	06090103          	lb	sp,96(s2)
    17ac:	0100                	addi	s0,sp,128
    17ae:	0505                	addi	a0,a0,1
    17b0:	0900ce03          	lbu	t3,144(ra)
    17b4:	0000                	unimp
    17b6:	0301                	addi	t1,t1,0
    17b8:	0901                	addi	s2,s2,0
    17ba:	0000                	unimp
    17bc:	0501                	addi	a0,a0,0
    17be:	0606                	slli	a2,a2,0x1
    17c0:	00090003          	lb	zero,0(s2)
    17c4:	0100                	addi	s0,sp,128
    17c6:	0a05                	addi	s4,s4,1
    17c8:	097fb203          	ld	tp,151(t6)
    17cc:	0004                	.insn	2, 0x0004
    17ce:	0501                	addi	a0,a0,0
    17d0:	004d                	c.nop	19
    17d2:	0402                	c.slli64	s0
    17d4:	0305                	addi	t1,t1,1
    17d6:	097e                	slli	s2,s2,0x1f
    17d8:	0002                	c.slli64	zero
    17da:	0501                	addi	a0,a0,0
    17dc:	030c                	addi	a1,sp,384
    17de:	00d0                	addi	a2,sp,68
    17e0:	0209                	addi	tp,tp,2 # 2 <_start-0x7ffffffe>
    17e2:	0100                	addi	s0,sp,128
    17e4:	0505                	addi	a0,a0,1
    17e6:	0306                	slli	t1,t1,0x1
    17e8:	0901                	addi	s2,s2,0
    17ea:	0004                	.insn	2, 0x0004
    17ec:	0501                	addi	a0,a0,0
    17ee:	060c                	addi	a1,sp,768
    17f0:	00090003          	lb	zero,0(s2)
    17f4:	0100                	addi	s0,sp,128
    17f6:	0905                	addi	s2,s2,1
    17f8:	0306                	slli	t1,t1,0x1
    17fa:	7fb1                	lui	t6,0xfffec
    17fc:	0609                	addi	a2,a2,2
    17fe:	0100                	addi	s0,sp,128
    1800:	4d05                	li	s10,1
    1802:	0200                	addi	s0,sp,256
    1804:	0504                	addi	s1,sp,640
    1806:	00097e03          	.insn	4, 0x00097e03
    180a:	0100                	addi	s0,sp,128
    180c:	2005                	.insn	2, 0x2005
    180e:	0200                	addi	s0,sp,256
    1810:	0104                	addi	s1,sp,128
    1812:	00090003          	lb	zero,0(s2)
    1816:	0100                	addi	s0,sp,128
    1818:	1405                	addi	s0,s0,-31
    181a:	0200                	addi	s0,sp,256
    181c:	0104                	addi	s1,sp,128
    181e:	0306                	slli	t1,t1,0x1
    1820:	0900                	addi	s0,sp,144
    1822:	0000                	unimp
    1824:	0501                	addi	a0,a0,0
    1826:	0020                	addi	s0,sp,8
    1828:	0402                	c.slli64	s0
    182a:	0301                	addi	t1,t1,0
    182c:	0900                	addi	s0,sp,144
    182e:	0004                	.insn	2, 0x0004
    1830:	0501                	addi	a0,a0,0
    1832:	62030607          	.insn	4, 0x62030607
    1836:	0409                	addi	s0,s0,2
    1838:	0100                	addi	s0,sp,128
    183a:	0a05                	addi	s4,s4,1
    183c:	0306                	slli	t1,t1,0x1
    183e:	0900                	addi	s0,sp,144
    1840:	0000                	unimp
    1842:	0501                	addi	a0,a0,0
    1844:	030e                	slli	t1,t1,0x3
    1846:	0975                	addi	s2,s2,29
    1848:	0008                	.insn	2, 0x0008
    184a:	0501                	addi	a0,a0,0
    184c:	030a                	slli	t1,t1,0x2
    184e:	0004090b          	.insn	4, 0x0004090b
    1852:	0501                	addi	a0,a0,0
    1854:	02030607          	.insn	4, 0x02030607
    1858:	0409                	addi	s0,s0,2
    185a:	0100                	addi	s0,sp,128
    185c:	1305                	addi	t1,t1,-31
    185e:	0306                	slli	t1,t1,0x1
    1860:	0000095b          	.insn	4, 0x095b
    1864:	0501                	addi	a0,a0,0
    1866:	09250307          	.insn	4, 0x09250307
    186a:	0002                	c.slli64	zero
    186c:	0601                	addi	a2,a2,0
    186e:	02091203          	lh	tp,32(s2)
    1872:	0100                	addi	s0,sp,128
    1874:	0505                	addi	a0,a0,1
    1876:	0900d903          	lhu	s2,144(ra)
    187a:	0000                	unimp
    187c:	0301                	addi	t1,t1,0
    187e:	0901                	addi	s2,s2,0
    1880:	0000                	unimp
    1882:	0501                	addi	a0,a0,0
    1884:	0606                	slli	a2,a2,0x1
    1886:	00090003          	lb	zero,0(s2)
    188a:	0100                	addi	s0,sp,128
    188c:	0c05                	addi	s8,s8,1
    188e:	02090003          	lb	zero,32(s2)
    1892:	0100                	addi	s0,sp,128
    1894:	0705                	addi	a4,a4,1
    1896:	097fa603          	lw	a2,151(t6) # fffffffffffec097 <__global_pointer$+0xffffffff7ffe984f>
    189a:	0002                	c.slli64	zero
    189c:	0501                	addi	a0,a0,0
    189e:	030c                	addi	a1,sp,384
    18a0:	00da                	slli	ra,ra,0x16
    18a2:	0209                	addi	tp,tp,2 # 2 <_start-0x7ffffffe>
    18a4:	0100                	addi	s0,sp,128
    18a6:	0505                	addi	a0,a0,1
    18a8:	0306                	slli	t1,t1,0x1
    18aa:	0901                	addi	s2,s2,0
    18ac:	0004                	.insn	2, 0x0004
    18ae:	0501                	addi	a0,a0,0
    18b0:	060c                	addi	a1,sp,768
    18b2:	00090003          	lb	zero,0(s2)
    18b6:	0100                	addi	s0,sp,128
    18b8:	0705                	addi	a4,a4,1
    18ba:	0306                	slli	t1,t1,0x1
    18bc:	7fa6                	ld	t6,104(sp)
    18be:	0609                	addi	a2,a2,2
    18c0:	0100                	addi	s0,sp,128
    18c2:	0305                	addi	t1,t1,1
    18c4:	0306                	slli	t1,t1,0x1
    18c6:	000900db          	.insn	4, 0x000900db
    18ca:	0100                	addi	s0,sp,128
    18cc:	0805                	addi	a6,a6,1
    18ce:	097eb303          	ld	t1,151(t4)
    18d2:	0002                	c.slli64	zero
    18d4:	0501                	addi	a0,a0,0
    18d6:	0605                	addi	a2,a2,1
    18d8:	04091d03          	lh	s10,64(s2)
    18dc:	0100                	addi	s0,sp,128
    18de:	0c05                	addi	s8,s8,1
    18e0:	0200                	addi	s0,sp,256
    18e2:	0104                	addi	s1,sp,128
    18e4:	0306                	slli	t1,t1,0x1
    18e6:	0900                	addi	s0,sp,144
    18e8:	0000                	unimp
    18ea:	0301                	addi	t1,t1,0
    18ec:	0900                	addi	s0,sp,144
    18ee:	0002                	c.slli64	zero
    18f0:	0501                	addi	a0,a0,0
    18f2:	0305                	addi	t1,t1,1
    18f4:	091d                	addi	s2,s2,7
    18f6:	0002                	c.slli64	zero
    18f8:	0501                	addi	a0,a0,0
    18fa:	0609                	addi	a2,a2,2
    18fc:	0900cd03          	lbu	s10,144(ra)
    1900:	0008                	.insn	2, 0x0008
    1902:	0501                	addi	a0,a0,0
    1904:	0305                	addi	t1,t1,1
    1906:	000900c3          	fmadd.s	ft1,fs2,ft0,ft0,rne
    190a:	0100                	addi	s0,sp,128
    190c:	00090103          	lb	sp,0(s2)
    1910:	0100                	addi	s0,sp,128
    1912:	0c05                	addi	s8,s8,1
    1914:	0306                	slli	t1,t1,0x1
    1916:	0900                	addi	s0,sp,144
    1918:	0000                	unimp
    191a:	0501                	addi	a0,a0,0
    191c:	0605                	addi	a2,a2,1
    191e:	08090103          	lb	sp,128(s2)
    1922:	0100                	addi	s0,sp,128
    1924:	0c05                	addi	s8,s8,1
    1926:	0306                	slli	t1,t1,0x1
    1928:	0900                	addi	s0,sp,144
    192a:	0000                	unimp
    192c:	0501                	addi	a0,a0,0
    192e:	7fbc030f          	.insn	4, 0x7fbc030f
    1932:	0209                	addi	tp,tp,2 # 2 <_start-0x7ffffffe>
    1934:	0100                	addi	s0,sp,128
    1936:	0d05                	addi	s10,s10,1
    1938:	04090003          	lb	zero,64(s2)
    193c:	0100                	addi	s0,sp,128
    193e:	0c05                	addi	s8,s8,1
    1940:	0900c403          	lbu	s0,144(ra)
    1944:	0002                	c.slli64	zero
    1946:	0501                	addi	a0,a0,0
    1948:	0609                	addi	a2,a2,2
    194a:	097fbc03          	ld	s8,151(t6)
    194e:	0004                	.insn	2, 0x0004
    1950:	0501                	addi	a0,a0,0
    1952:	060d                	addi	a2,a2,3
    1954:	00090003          	lb	zero,0(s2)
    1958:	0100                	addi	s0,sp,128
    195a:	0306                	slli	t1,t1,0x1
    195c:	7f98                	ld	a4,56(a5)
    195e:	0409                	addi	s0,s0,2
    1960:	0100                	addi	s0,sp,128
    1962:	0b05                	addi	s6,s6,1
    1964:	0200                	addi	s0,sp,256
    1966:	0104                	addi	s1,sp,128
    1968:	0306                	slli	t1,t1,0x1
    196a:	7ea5                	lui	t4,0xfffe9
    196c:	0009                	c.nop	2
    196e:	0100                	addi	s0,sp,128
    1970:	2a05                	addiw	s4,s4,1
    1972:	0901e503          	lwu	a0,144(gp) # 800028d8 <__global_pointer$+0x90>
    1976:	0006                	c.slli	zero,0x1
    1978:	0501                	addi	a0,a0,0
    197a:	0402000b          	.insn	4, 0x0402000b
    197e:	0301                	addi	t1,t1,0
    1980:	04097e9b          	.insn	4, 0x04097e9b
    1984:	0100                	addi	s0,sp,128
    1986:	0505                	addi	a0,a0,1
    1988:	0901f503          	.insn	4, 0x0901f503
    198c:	0004                	.insn	2, 0x0004
    198e:	0501                	addi	a0,a0,0
    1990:	ac030603          	lb	a2,-1344(t1)
    1994:	097f 0008 0501 032a 	.insn	10, 0x00c4032a05010008097f
    199c:	00c4 
    199e:	0009                	c.nop	2
    19a0:	0100                	addi	s0,sp,128
    19a2:	1205                	addi	tp,tp,-31 # ffffffffffffffe1 <__global_pointer$+0xffffffff7fffd799>
    19a4:	0306                	slli	t1,t1,0x1
    19a6:	0900                	addi	s0,sp,144
    19a8:	0000                	unimp
    19aa:	0501                	addi	a0,a0,0
    19ac:	0310                	addi	a2,sp,384
    19ae:	0900                	addi	s0,sp,144
    19b0:	0004                	.insn	2, 0x0004
    19b2:	0501                	addi	a0,a0,0
    19b4:	032a                	slli	t1,t1,0xa
    19b6:	0900                	addi	s0,sp,144
    19b8:	0004                	.insn	2, 0x0004
    19ba:	0501                	addi	a0,a0,0
    19bc:	01030607          	.insn	4, 0x01030607
    19c0:	0409                	addi	s0,s0,2
    19c2:	0100                	addi	s0,sp,128
    19c4:	0a05                	addi	s4,s4,1
    19c6:	0306                	slli	t1,t1,0x1
    19c8:	0900                	addi	s0,sp,144
    19ca:	0000                	unimp
    19cc:	0501                	addi	a0,a0,0
    19ce:	02030607          	.insn	4, 0x02030607
    19d2:	0209                	addi	tp,tp,2 # 2 <_start-0x7ffffffe>
    19d4:	0100                	addi	s0,sp,128
    19d6:	0a05                	addi	s4,s4,1
    19d8:	0306                	slli	t1,t1,0x1
    19da:	0900                	addi	s0,sp,144
    19dc:	0000                	unimp
    19de:	0501                	addi	a0,a0,0
    19e0:	01030607          	.insn	4, 0x01030607
    19e4:	0209                	addi	tp,tp,2 # 2 <_start-0x7ffffffe>
    19e6:	0100                	addi	s0,sp,128
    19e8:	0305                	addi	t1,t1,1
    19ea:	097faa03          	lw	s4,151(t6)
    19ee:	0000                	unimp
    19f0:	0301                	addi	t1,t1,0
    19f2:	7eea                	ld	t4,184(sp)
    19f4:	0009                	c.nop	2
    19f6:	0100                	addi	s0,sp,128
    19f8:	00090103          	lb	sp,0(s2)
    19fc:	0100                	addi	s0,sp,128
    19fe:	0205                	addi	tp,tp,1 # 1 <_start-0x7fffffff>
    1a00:	00090203          	lb	tp,0(s2)
    1a04:	0100                	addi	s0,sp,128
    1a06:	0905                	addi	s2,s2,1
    1a08:	0200                	addi	s0,sp,256
    1a0a:	0104                	addi	s1,sp,128
    1a0c:	00090003          	lb	zero,0(s2)
    1a10:	0100                	addi	s0,sp,128
    1a12:	0b05                	addi	s6,s6,1
    1a14:	0200                	addi	s0,sp,256
    1a16:	0104                	addi	s1,sp,128
    1a18:	0306                	slli	t1,t1,0x1
    1a1a:	0900                	addi	s0,sp,144
    1a1c:	0000                	unimp
    1a1e:	0501                	addi	a0,a0,0
    1a20:	0009                	c.nop	2
    1a22:	0402                	c.slli64	s0
    1a24:	0301                	addi	t1,t1,0
    1a26:	0900                	addi	s0,sp,144
    1a28:	0004                	.insn	2, 0x0004
    1a2a:	0501                	addi	a0,a0,0
    1a2c:	0602                	c.slli64	a2
    1a2e:	06090103          	lb	sp,96(s2)
    1a32:	0100                	addi	s0,sp,128
    1a34:	0c05                	addi	s8,s8,1
    1a36:	0306                	slli	t1,t1,0x1
    1a38:	0900                	addi	s0,sp,144
    1a3a:	0000                	unimp
    1a3c:	0501                	addi	a0,a0,0
    1a3e:	a0030603          	lb	a2,-1536(t1)
    1a42:	0901                	addi	s2,s2,0
    1a44:	0004                	.insn	2, 0x0004
    1a46:	0501                	addi	a0,a0,0
    1a48:	032a                	slli	t1,t1,0xa
    1a4a:	00c4                	addi	s1,sp,68
    1a4c:	0009                	c.nop	2
    1a4e:	0100                	addi	s0,sp,128
    1a50:	1205                	addi	tp,tp,-31 # ffffffffffffffe1 <__global_pointer$+0xffffffff7fffd799>
    1a52:	0306                	slli	t1,t1,0x1
    1a54:	0900                	addi	s0,sp,144
    1a56:	0000                	unimp
    1a58:	0501                	addi	a0,a0,0
    1a5a:	0310                	addi	a2,sp,384
    1a5c:	0900                	addi	s0,sp,144
    1a5e:	0004                	.insn	2, 0x0004
    1a60:	0501                	addi	a0,a0,0
    1a62:	032a                	slli	t1,t1,0xa
    1a64:	0900                	addi	s0,sp,144
    1a66:	0004                	.insn	2, 0x0004
    1a68:	0501                	addi	a0,a0,0
    1a6a:	0605                	addi	a2,a2,1
    1a6c:	04090603          	lb	a2,64(s2)
    1a70:	0100                	addi	s0,sp,128
    1a72:	1205                	addi	tp,tp,-31 # ffffffffffffffe1 <__global_pointer$+0xffffffff7fffd799>
    1a74:	0306                	slli	t1,t1,0x1
    1a76:	090a                	slli	s2,s2,0x2
    1a78:	0000                	unimp
    1a7a:	0501                	addi	a0,a0,0
    1a7c:	0308                	addi	a0,sp,384
    1a7e:	0976                	slli	s2,s2,0x1d
    1a80:	0004                	.insn	2, 0x0004
    1a82:	0501                	addi	a0,a0,0
    1a84:	0605                	addi	a2,a2,1
    1a86:	04090303          	lb	t1,64(s2)
    1a8a:	0100                	addi	s0,sp,128
    1a8c:	00090103          	lb	sp,0(s2)
    1a90:	0100                	addi	s0,sp,128
    1a92:	00090103          	lb	sp,0(s2)
    1a96:	0100                	addi	s0,sp,128
    1a98:	00090103          	lb	sp,0(s2)
    1a9c:	0100                	addi	s0,sp,128
    1a9e:	00090103          	lb	sp,0(s2)
    1aa2:	0100                	addi	s0,sp,128
    1aa4:	00090103          	lb	sp,0(s2)
    1aa8:	0100                	addi	s0,sp,128
    1aaa:	0f05                	addi	t5,t5,1
    1aac:	0306                	slli	t1,t1,0x1
    1aae:	097e                	slli	s2,s2,0x1f
    1ab0:	0000                	unimp
    1ab2:	0501                	addi	a0,a0,0
    1ab4:	0305                	addi	t1,t1,1
    1ab6:	0904                	addi	s1,sp,144
    1ab8:	0002                	c.slli64	zero
    1aba:	0501                	addi	a0,a0,0
    1abc:	0308                	addi	a0,sp,384
    1abe:	0976                	slli	s2,s2,0x1d
    1ac0:	0008                	.insn	2, 0x0008
    1ac2:	0501                	addi	a0,a0,0
    1ac4:	0905030b          	.insn	4, 0x0905030b
    1ac8:	0002                	c.slli64	zero
    1aca:	0501                	addi	a0,a0,0
    1acc:	030a                	slli	t1,t1,0x2
    1ace:	097f 0002 0501 030b 	.insn	10, 0x0903030b05010002097f
    1ad6:	0903 
    1ad8:	0004                	.insn	2, 0x0004
    1ada:	0501                	addi	a0,a0,0
    1adc:	0605                	addi	a2,a2,1
    1ade:	02090303          	lb	t1,32(s2)
    1ae2:	0100                	addi	s0,sp,128
    1ae4:	1305                	addi	t1,t1,-31
    1ae6:	0306                	slli	t1,t1,0x1
    1ae8:	0900                	addi	s0,sp,144
    1aea:	0000                	unimp
    1aec:	0501                	addi	a0,a0,0
    1aee:	0305                	addi	t1,t1,1
    1af0:	0900                	addi	s0,sp,144
    1af2:	0004                	.insn	2, 0x0004
    1af4:	0501                	addi	a0,a0,0
    1af6:	030d                	addi	t1,t1,3
    1af8:	0966                	slli	s2,s2,0x19
    1afa:	0004                	.insn	2, 0x0004
    1afc:	0501                	addi	a0,a0,0
    1afe:	0305                	addi	t1,t1,1
    1b00:	091a                	slli	s2,s2,0x6
    1b02:	0004                	.insn	2, 0x0004
    1b04:	0501                	addi	a0,a0,0
    1b06:	09030607          	.insn	4, 0x09030607
    1b0a:	0a09                	addi	s4,s4,2
    1b0c:	0100                	addi	s0,sp,128
    1b0e:	00090103          	lb	sp,0(s2)
    1b12:	0100                	addi	s0,sp,128
    1b14:	0c05                	addi	s8,s8,1
    1b16:	0306                	slli	t1,t1,0x1
    1b18:	097f 0000 0501 0307 	.insn	10, 0x0901030705010000097f
    1b20:	0901 
    1b22:	0002                	c.slli64	zero
    1b24:	0501                	addi	a0,a0,0
    1b26:	09760313          	addi	t1,a2,151
    1b2a:	0004                	.insn	2, 0x0004
    1b2c:	0501                	addi	a0,a0,0
    1b2e:	0605                	addi	a2,a2,1
    1b30:	02090003          	lb	zero,32(s2)
    1b34:	0100                	addi	s0,sp,128
    1b36:	1305                	addi	t1,t1,-31
    1b38:	0306                	slli	t1,t1,0x1
    1b3a:	0900                	addi	s0,sp,144
    1b3c:	0008                	.insn	2, 0x0008
    1b3e:	0501                	addi	a0,a0,0
    1b40:	0305                	addi	t1,t1,1
    1b42:	0900                	addi	s0,sp,144
    1b44:	0004                	.insn	2, 0x0004
    1b46:	0501                	addi	a0,a0,0
    1b48:	0009                	c.nop	2
    1b4a:	0402                	c.slli64	s0
    1b4c:	0601                	addi	a2,a2,0
    1b4e:	097e8b03          	lb	s6,151(t4) # fffffffffffe9097 <__global_pointer$+0xffffffff7ffe684f>
    1b52:	0004                	.insn	2, 0x0004
    1b54:	0501                	addi	a0,a0,0
    1b56:	0402000b          	.insn	4, 0x0402000b
    1b5a:	0601                	addi	a2,a2,0
    1b5c:	00090003          	lb	zero,0(s2)
    1b60:	0100                	addi	s0,sp,128
    1b62:	0905                	addi	s2,s2,1
    1b64:	0200                	addi	s0,sp,256
    1b66:	0104                	addi	s1,sp,128
    1b68:	04090003          	lb	zero,64(s2)
    1b6c:	0100                	addi	s0,sp,128
    1b6e:	0205                	addi	tp,tp,1 # 1 <_start-0x7fffffff>
    1b70:	0306                	slli	t1,t1,0x1
    1b72:	0901                	addi	s2,s2,0
    1b74:	0006                	c.slli	zero,0x1
    1b76:	0501                	addi	a0,a0,0
    1b78:	060c                	addi	a1,sp,768
    1b7a:	00090003          	lb	zero,0(s2)
    1b7e:	0100                	addi	s0,sp,128
    1b80:	0b05                	addi	s6,s6,1
    1b82:	0902eb03          	lwu	s6,144(t0)
    1b86:	0004                	.insn	2, 0x0004
    1b88:	0501                	addi	a0,a0,0
    1b8a:	030c                	addi	a1,sp,384
    1b8c:	7d95                	lui	s11,0xfffe5
    1b8e:	0209                	addi	tp,tp,2 # 2 <_start-0x7ffffffe>
    1b90:	0100                	addi	s0,sp,128
    1b92:	0305                	addi	t1,t1,1
    1b94:	0306                	slli	t1,t1,0x1
    1b96:	01a0                	addi	s0,sp,200
    1b98:	0409                	addi	s0,s0,2
    1b9a:	0100                	addi	s0,sp,128
    1b9c:	0705                	addi	a4,a4,1
    1b9e:	0901cb03          	lbu	s6,144(gp) # 800028d8 <__global_pointer$+0x90>
    1ba2:	0000                	unimp
    1ba4:	0301                	addi	t1,t1,0
    1ba6:	0901                	addi	s2,s2,0
    1ba8:	0000                	unimp
    1baa:	0501                	addi	a0,a0,0
    1bac:	7eb40303          	lb	t1,2027(s0)
    1bb0:	0009                	c.nop	2
    1bb2:	0100                	addi	s0,sp,128
    1bb4:	2a05                	addiw	s4,s4,1
    1bb6:	0900c403          	lbu	s0,144(ra)
    1bba:	0000                	unimp
    1bbc:	0501                	addi	a0,a0,0
    1bbe:	0612                	slli	a2,a2,0x4
    1bc0:	00090003          	lb	zero,0(s2)
    1bc4:	0100                	addi	s0,sp,128
    1bc6:	1005                	c.nop	-31
    1bc8:	04090003          	lb	zero,64(s2)
    1bcc:	0100                	addi	s0,sp,128
    1bce:	2a05                	addiw	s4,s4,1
    1bd0:	04090003          	lb	zero,64(s2)
    1bd4:	0100                	addi	s0,sp,128
    1bd6:	0705                	addi	a4,a4,1
    1bd8:	0306                	slli	t1,t1,0x1
    1bda:	0901                	addi	s2,s2,0
    1bdc:	0004                	.insn	2, 0x0004
    1bde:	0501                	addi	a0,a0,0
    1be0:	060a                	slli	a2,a2,0x2
    1be2:	00090003          	lb	zero,0(s2)
    1be6:	0100                	addi	s0,sp,128
    1be8:	0705                	addi	a4,a4,1
    1bea:	0306                	slli	t1,t1,0x1
    1bec:	0902                	c.slli64	s2
    1bee:	0004                	.insn	2, 0x0004
    1bf0:	0501                	addi	a0,a0,0
    1bf2:	060a                	slli	a2,a2,0x2
    1bf4:	00090003          	lb	zero,0(s2)
    1bf8:	0100                	addi	s0,sp,128
    1bfa:	0705                	addi	a4,a4,1
    1bfc:	0306                	slli	t1,t1,0x1
    1bfe:	0901                	addi	s2,s2,0
    1c00:	0002                	c.slli64	zero
    1c02:	0501                	addi	a0,a0,0
    1c04:	7faa0303          	lb	t1,2042(s4)
    1c08:	0009                	c.nop	2
    1c0a:	0100                	addi	s0,sp,128
    1c0c:	097eea03          	lwu	s4,151(t4)
    1c10:	0000                	unimp
    1c12:	0301                	addi	t1,t1,0
    1c14:	0901                	addi	s2,s2,0
    1c16:	0000                	unimp
    1c18:	0501                	addi	a0,a0,0
    1c1a:	0302                	c.slli64	t1
    1c1c:	0902                	c.slli64	s2
    1c1e:	0000                	unimp
    1c20:	0501                	addi	a0,a0,0
    1c22:	0009                	c.nop	2
    1c24:	0402                	c.slli64	s0
    1c26:	0301                	addi	t1,t1,0
    1c28:	0900                	addi	s0,sp,144
    1c2a:	0000                	unimp
    1c2c:	0501                	addi	a0,a0,0
    1c2e:	0402000b          	.insn	4, 0x0402000b
    1c32:	0601                	addi	a2,a2,0
    1c34:	00090003          	lb	zero,0(s2)
    1c38:	0100                	addi	s0,sp,128
    1c3a:	0905                	addi	s2,s2,1
    1c3c:	0200                	addi	s0,sp,256
    1c3e:	0104                	addi	s1,sp,128
    1c40:	04090003          	lb	zero,64(s2)
    1c44:	0100                	addi	s0,sp,128
    1c46:	0205                	addi	tp,tp,1 # 1 <_start-0x7fffffff>
    1c48:	0306                	slli	t1,t1,0x1
    1c4a:	0901                	addi	s2,s2,0
    1c4c:	0006                	c.slli	zero,0x1
    1c4e:	0501                	addi	a0,a0,0
    1c50:	060c                	addi	a1,sp,768
    1c52:	00090003          	lb	zero,0(s2)
    1c56:	0100                	addi	s0,sp,128
    1c58:	0305                	addi	t1,t1,1
    1c5a:	0306                	slli	t1,t1,0x1
    1c5c:	01a0                	addi	s0,sp,200
    1c5e:	0409                	addi	s0,s0,2
    1c60:	0100                	addi	s0,sp,128
    1c62:	2a05                	addiw	s4,s4,1
    1c64:	0900c403          	lbu	s0,144(ra)
    1c68:	0000                	unimp
    1c6a:	0501                	addi	a0,a0,0
    1c6c:	0612                	slli	a2,a2,0x4
    1c6e:	00090003          	lb	zero,0(s2)
    1c72:	0100                	addi	s0,sp,128
    1c74:	1005                	c.nop	-31
    1c76:	04090003          	lb	zero,64(s2)
    1c7a:	0100                	addi	s0,sp,128
    1c7c:	2a05                	addiw	s4,s4,1
    1c7e:	04090003          	lb	zero,64(s2)
    1c82:	0100                	addi	s0,sp,128
    1c84:	0505                	addi	a0,a0,1
    1c86:	0306                	slli	t1,t1,0x1
    1c88:	0906                	slli	s2,s2,0x1
    1c8a:	0004                	.insn	2, 0x0004
    1c8c:	0501                	addi	a0,a0,0
    1c8e:	0608                	addi	a0,sp,768
    1c90:	00090003          	lb	zero,0(s2)
    1c94:	0100                	addi	s0,sp,128
    1c96:	0505                	addi	a0,a0,1
    1c98:	0306                	slli	t1,t1,0x1
    1c9a:	00040903          	lb	s2,0(s0)
    1c9e:	0301                	addi	t1,t1,0
    1ca0:	0901                	addi	s2,s2,0
    1ca2:	0000                	unimp
    1ca4:	0301                	addi	t1,t1,0
    1ca6:	0901                	addi	s2,s2,0
    1ca8:	0000                	unimp
    1caa:	0301                	addi	t1,t1,0
    1cac:	0901                	addi	s2,s2,0
    1cae:	0000                	unimp
    1cb0:	0301                	addi	t1,t1,0
    1cb2:	0901                	addi	s2,s2,0
    1cb4:	0000                	unimp
    1cb6:	0301                	addi	t1,t1,0
    1cb8:	0901                	addi	s2,s2,0
    1cba:	0000                	unimp
    1cbc:	0501                	addi	a0,a0,0
    1cbe:	7e03060f          	.insn	4, 0x7e03060f
    1cc2:	0009                	c.nop	2
    1cc4:	0100                	addi	s0,sp,128
    1cc6:	1205                	addi	tp,tp,-31 # ffffffffffffffe1 <__global_pointer$+0xffffffff7fffd799>
    1cc8:	02090403          	lb	s0,32(s2)
    1ccc:	0100                	addi	s0,sp,128
    1cce:	0805                	addi	a6,a6,1
    1cd0:	04097603          	.insn	4, 0x04097603
    1cd4:	0100                	addi	s0,sp,128
    1cd6:	0b05                	addi	s6,s6,1
    1cd8:	02090503          	lb	a0,32(s2)
    1cdc:	0100                	addi	s0,sp,128
    1cde:	0a05                	addi	s4,s4,1
    1ce0:	02097f03          	.insn	4, 0x02097f03
    1ce4:	0100                	addi	s0,sp,128
    1ce6:	0b05                	addi	s6,s6,1
    1ce8:	04090303          	lb	t1,64(s2)
    1cec:	0100                	addi	s0,sp,128
    1cee:	0905                	addi	s2,s2,1
    1cf0:	0200                	addi	s0,sp,256
    1cf2:	0104                	addi	s1,sp,128
    1cf4:	0306                	slli	t1,t1,0x1
    1cf6:	7e8e                	ld	t4,224(sp)
    1cf8:	0409                	addi	s0,s0,2
    1cfa:	0100                	addi	s0,sp,128
    1cfc:	0b05                	addi	s6,s6,1
    1cfe:	0200                	addi	s0,sp,256
    1d00:	0104                	addi	s1,sp,128
    1d02:	0306                	slli	t1,t1,0x1
    1d04:	0900                	addi	s0,sp,144
    1d06:	0000                	unimp
    1d08:	0501                	addi	a0,a0,0
    1d0a:	0009                	c.nop	2
    1d0c:	0402                	c.slli64	s0
    1d0e:	0301                	addi	t1,t1,0
    1d10:	0900                	addi	s0,sp,144
    1d12:	0004                	.insn	2, 0x0004
    1d14:	0501                	addi	a0,a0,0
    1d16:	0602                	c.slli64	a2
    1d18:	06090103          	lb	sp,96(s2)
    1d1c:	0100                	addi	s0,sp,128
    1d1e:	0c05                	addi	s8,s8,1
    1d20:	0306                	slli	t1,t1,0x1
    1d22:	0900                	addi	s0,sp,144
    1d24:	0000                	unimp
    1d26:	0501                	addi	a0,a0,0
    1d28:	02eb030b          	.insn	4, 0x02eb030b
    1d2c:	0409                	addi	s0,s0,2
    1d2e:	0100                	addi	s0,sp,128
    1d30:	0c05                	addi	s8,s8,1
    1d32:	097d9503          	lh	a0,151(s11) # fffffffffffe5097 <__global_pointer$+0xffffffff7ffe284f>
    1d36:	0002                	c.slli64	zero
    1d38:	0501                	addi	a0,a0,0
    1d3a:	a0030603          	lb	a2,-1536(t1)
    1d3e:	0901                	addi	s2,s2,0
    1d40:	0004                	.insn	2, 0x0004
    1d42:	0501                	addi	a0,a0,0
    1d44:	01cb0307          	.insn	4, 0x01cb0307
    1d48:	0009                	c.nop	2
    1d4a:	0100                	addi	s0,sp,128
    1d4c:	00090103          	lb	sp,0(s2)
    1d50:	0100                	addi	s0,sp,128
    1d52:	0905                	addi	s2,s2,1
    1d54:	097f9f03          	lh	t5,151(t6)
    1d58:	0006                	c.slli	zero,0x1
    1d5a:	0501                	addi	a0,a0,0
    1d5c:	00030613          	mv	a2,t1
    1d60:	0009                	c.nop	2
    1d62:	0100                	addi	s0,sp,128
    1d64:	0905                	addi	s2,s2,1
    1d66:	0306                	slli	t1,t1,0x1
    1d68:	0901                	addi	s2,s2,0
    1d6a:	0004                	.insn	2, 0x0004
    1d6c:	0501                	addi	a0,a0,0
    1d6e:	060e                	slli	a2,a2,0x3
    1d70:	00090003          	lb	zero,0(s2)
    1d74:	0100                	addi	s0,sp,128
    1d76:	0c05                	addi	s8,s8,1
    1d78:	04090103          	lb	sp,64(s2)
    1d7c:	0100                	addi	s0,sp,128
    1d7e:	1305                	addi	t1,t1,-31
    1d80:	02096703          	lwu	a4,32(s2)
    1d84:	0100                	addi	s0,sp,128
    1d86:	1605                	addi	a2,a2,-31
    1d88:	02091903          	lh	s2,32(s2)
    1d8c:	0100                	addi	s0,sp,128
    1d8e:	0c05                	addi	s8,s8,1
    1d90:	04097f03          	.insn	4, 0x04097f03
    1d94:	0100                	addi	s0,sp,128
    1d96:	0905                	addi	s2,s2,1
    1d98:	0306                	slli	t1,t1,0x1
    1d9a:	0901                	addi	s2,s2,0
    1d9c:	0004                	.insn	2, 0x0004
    1d9e:	0501                	addi	a0,a0,0
    1da0:	060c                	addi	a1,sp,768
    1da2:	00090003          	lb	zero,0(s2)
    1da6:	0100                	addi	s0,sp,128
    1da8:	1d05                	addi	s10,s10,-31
    1daa:	0306                	slli	t1,t1,0x1
    1dac:	097d                	addi	s2,s2,31
    1dae:	0004                	.insn	2, 0x0004
    1db0:	0501                	addi	a0,a0,0
    1db2:	061f 0103 0009      	.insn	6, 0x00090103061f
    1db8:	0100                	addi	s0,sp,128
    1dba:	0e05                	addi	t3,t3,1
    1dbc:	04090103          	lb	sp,64(s2)
    1dc0:	0100                	addi	s0,sp,128
    1dc2:	1f05                	addi	t5,t5,-31
    1dc4:	04097f03          	.insn	4, 0x04097f03
    1dc8:	0100                	addi	s0,sp,128
    1dca:	2405                	addiw	s0,s0,1
    1dcc:	06090003          	lb	zero,96(s2)
    1dd0:	0100                	addi	s0,sp,128
    1dd2:	1605                	addi	a2,a2,-31
    1dd4:	02090203          	lb	tp,32(s2)
    1dd8:	0100                	addi	s0,sp,128
    1dda:	1d05                	addi	s10,s10,-31
    1ddc:	04097d03          	.insn	4, 0x04097d03
    1de0:	0100                	addi	s0,sp,128
    1de2:	0705                	addi	a4,a4,1
    1de4:	0306                	slli	t1,t1,0x1
    1de6:	0900                	addi	s0,sp,144
    1de8:	0002                	c.slli64	zero
    1dea:	0501                	addi	a0,a0,0
    1dec:	0309                	addi	t1,t1,2
    1dee:	0901                	addi	s2,s2,0
    1df0:	0000                	unimp
    1df2:	0501                	addi	a0,a0,0
    1df4:	00030613          	mv	a2,t1
    1df8:	0009                	c.nop	2
    1dfa:	0100                	addi	s0,sp,128
    1dfc:	0905                	addi	s2,s2,1
    1dfe:	0306                	slli	t1,t1,0x1
    1e00:	0901                	addi	s2,s2,0
    1e02:	0004                	.insn	2, 0x0004
    1e04:	0501                	addi	a0,a0,0
    1e06:	060c                	addi	a1,sp,768
    1e08:	00090003          	lb	zero,0(s2)
    1e0c:	0100                	addi	s0,sp,128
    1e0e:	0905                	addi	s2,s2,1
    1e10:	0306                	slli	t1,t1,0x1
    1e12:	0901                	addi	s2,s2,0
    1e14:	0004                	.insn	2, 0x0004
    1e16:	0501                	addi	a0,a0,0
    1e18:	060c                	addi	a1,sp,768
    1e1a:	00090003          	lb	zero,0(s2)
    1e1e:	0100                	addi	s0,sp,128
    1e20:	1305                	addi	t1,t1,-31
    1e22:	04096703          	lwu	a4,64(s2)
    1e26:	0100                	addi	s0,sp,128
    1e28:	0705                	addi	a4,a4,1
    1e2a:	0306                	slli	t1,t1,0x1
    1e2c:	092c                	addi	a1,sp,152
    1e2e:	0002                	c.slli64	zero
    1e30:	0501                	addi	a0,a0,0
    1e32:	060a                	slli	a2,a2,0x2
    1e34:	00090003          	lb	zero,0(s2)
    1e38:	0100                	addi	s0,sp,128
    1e3a:	0f05                	addi	t5,t5,1
    1e3c:	04090103          	lb	sp,64(s2)
    1e40:	0100                	addi	s0,sp,128
    1e42:	2605                	addiw	a2,a2,1
    1e44:	02090003          	lb	zero,32(s2)
    1e48:	0100                	addi	s0,sp,128
    1e4a:	0705                	addi	a4,a4,1
    1e4c:	0306                	slli	t1,t1,0x1
    1e4e:	0004097b          	.insn	4, 0x0004097b
    1e52:	0301                	addi	t1,t1,0
    1e54:	0901                	addi	s2,s2,0
    1e56:	0000                	unimp
    1e58:	0501                	addi	a0,a0,0
    1e5a:	060e                	slli	a2,a2,0x3
    1e5c:	00096f03          	lwu	t5,0(s2)
    1e60:	0100                	addi	s0,sp,128
    1e62:	1305                	addi	t1,t1,-31
    1e64:	04096803          	lwu	a6,64(s2)
    1e68:	0100                	addi	s0,sp,128
    1e6a:	0705                	addi	a4,a4,1
    1e6c:	02092903          	lw	s2,32(s2)
    1e70:	0100                	addi	s0,sp,128
    1e72:	0306                	slli	t1,t1,0x1
    1e74:	0976                	slli	s2,s2,0x1d
    1e76:	0002                	c.slli64	zero
    1e78:	0501                	addi	a0,a0,0
    1e7a:	060e                	slli	a2,a2,0x3
    1e7c:	00097903          	.insn	4, 0x00097903
    1e80:	0100                	addi	s0,sp,128
    1e82:	1105                	addi	sp,sp,-31
    1e84:	04090703          	lb	a4,64(s2)
    1e88:	0100                	addi	s0,sp,128
    1e8a:	0705                	addi	a4,a4,1
    1e8c:	0306                	slli	t1,t1,0x1
    1e8e:	0901                	addi	s2,s2,0
    1e90:	0002                	c.slli64	zero
    1e92:	0501                	addi	a0,a0,0
    1e94:	60030613          	addi	a2,t1,1536
    1e98:	0009                	c.nop	2
    1e9a:	0100                	addi	s0,sp,128
    1e9c:	1105                	addi	sp,sp,-31
    1e9e:	02091f03          	lh	t5,32(s2)
    1ea2:	0100                	addi	s0,sp,128
    1ea4:	0705                	addi	a4,a4,1
    1ea6:	02090103          	lb	sp,32(s2)
    1eaa:	0100                	addi	s0,sp,128
    1eac:	0306                	slli	t1,t1,0x1
    1eae:	00020903          	lb	s2,0(tp) # 0 <_start-0x80000000>
    1eb2:	0501                	addi	a0,a0,0
    1eb4:	060a                	slli	a2,a2,0x2
    1eb6:	00090003          	lb	zero,0(s2)
    1eba:	0100                	addi	s0,sp,128
    1ebc:	0e05                	addi	t3,t3,1
    1ebe:	08097503          	.insn	4, 0x08097503
    1ec2:	0100                	addi	s0,sp,128
    1ec4:	0a05                	addi	s4,s4,1
    1ec6:	04090b03          	lb	s6,64(s2)
    1eca:	0100                	addi	s0,sp,128
    1ecc:	0705                	addi	a4,a4,1
    1ece:	0306                	slli	t1,t1,0x1
    1ed0:	0902                	c.slli64	s2
    1ed2:	0004                	.insn	2, 0x0004
    1ed4:	0501                	addi	a0,a0,0
    1ed6:	5b030613          	addi	a2,t1,1456
    1eda:	0009                	c.nop	2
    1edc:	0100                	addi	s0,sp,128
    1ede:	0705                	addi	a4,a4,1
    1ee0:	02092503          	lw	a0,32(s2)
    1ee4:	0100                	addi	s0,sp,128
    1ee6:	0505                	addi	a0,a0,1
    1ee8:	02095b03          	lhu	s6,32(s2)
    1eec:	0100                	addi	s0,sp,128
    1eee:	0705                	addi	a4,a4,1
    1ef0:	0306                	slli	t1,t1,0x1
    1ef2:	00ea                	slli	ra,ra,0x1a
    1ef4:	0209                	addi	tp,tp,2 # 2 <_start-0x7ffffffe>
    1ef6:	0100                	addi	s0,sp,128
    1ef8:	0305                	addi	t1,t1,1
    1efa:	097eea03          	lwu	s4,151(t4)
    1efe:	0000                	unimp
    1f00:	0501                	addi	a0,a0,0
    1f02:	0606                	slli	a2,a2,0x1
    1f04:	00090003          	lb	zero,0(s2)
    1f08:	0100                	addi	s0,sp,128
    1f0a:	1105                	addi	sp,sp,-31
    1f0c:	0900cb03          	lbu	s6,144(ra)
    1f10:	0002                	c.slli64	zero
    1f12:	0501                	addi	a0,a0,0
    1f14:	0306                	slli	t1,t1,0x1
    1f16:	7fb5                	lui	t6,0xfffed
    1f18:	0409                	addi	s0,s0,2
    1f1a:	0100                	addi	s0,sp,128
    1f1c:	0805                	addi	a6,a6,1
    1f1e:	0306                	slli	t1,t1,0x1
    1f20:	0902                	c.slli64	s2
    1f22:	0004                	.insn	2, 0x0004
    1f24:	0501                	addi	a0,a0,0
    1f26:	0003060b          	.insn	4, 0x0003060b
    1f2a:	0009                	c.nop	2
    1f2c:	0100                	addi	s0,sp,128
    1f2e:	0505                	addi	a0,a0,1
    1f30:	0306                	slli	t1,t1,0x1
    1f32:	00040903          	lb	s2,0(s0)
    1f36:	0501                	addi	a0,a0,0
    1f38:	000c                	.insn	2, 0x000c
    1f3a:	0402                	c.slli64	s0
    1f3c:	0601                	addi	a2,a2,0
    1f3e:	00090003          	lb	zero,0(s2)
    1f42:	0100                	addi	s0,sp,128
    1f44:	04090003          	lb	zero,64(s2)
    1f48:	0100                	addi	s0,sp,128
    1f4a:	0705                	addi	a4,a4,1
    1f4c:	0306                	slli	t1,t1,0x1
    1f4e:	02090193          	addi	gp,s2,32
    1f52:	0100                	addi	s0,sp,128
    1f54:	0305                	addi	t1,t1,1
    1f56:	097ed403          	lhu	s0,151(t4)
    1f5a:	0000                	unimp
    1f5c:	0301                	addi	t1,t1,0
    1f5e:	0901                	addi	s2,s2,0
    1f60:	0000                	unimp
    1f62:	0301                	addi	t1,t1,0
    1f64:	0902                	c.slli64	s2
    1f66:	0000                	unimp
    1f68:	0501                	addi	a0,a0,0
    1f6a:	0305                	addi	t1,t1,1
    1f6c:	0902                	c.slli64	s2
    1f6e:	0000                	unimp
    1f70:	0501                	addi	a0,a0,0
    1f72:	00030617          	auipc	a2,0x30
    1f76:	0009                	c.nop	2
    1f78:	0100                	addi	s0,sp,128
    1f7a:	0d05                	addi	s10,s10,1
    1f7c:	08090003          	lb	zero,128(s2)
    1f80:	0100                	addi	s0,sp,128
    1f82:	1105                	addi	sp,sp,-31
    1f84:	02090003          	lb	zero,32(s2)
    1f88:	0100                	addi	s0,sp,128
    1f8a:	0505                	addi	a0,a0,1
    1f8c:	0306                	slli	t1,t1,0x1
    1f8e:	0901                	addi	s2,s2,0
    1f90:	0002                	c.slli64	zero
    1f92:	0501                	addi	a0,a0,0
    1f94:	0608                	addi	a0,sp,768
    1f96:	00090003          	lb	zero,0(s2)
    1f9a:	0100                	addi	s0,sp,128
    1f9c:	0505                	addi	a0,a0,1
    1f9e:	0306                	slli	t1,t1,0x1
    1fa0:	0902                	c.slli64	s2
    1fa2:	0004                	.insn	2, 0x0004
    1fa4:	0501                	addi	a0,a0,0
    1fa6:	0609                	addi	a2,a2,2 # 31f74 <_start-0x7ffce08c>
    1fa8:	00090003          	lb	zero,0(s2)
    1fac:	0100                	addi	s0,sp,128
    1fae:	0306                	slli	t1,t1,0x1
    1fb0:	0004097b          	.insn	4, 0x0004097b
    1fb4:	0501                	addi	a0,a0,0
    1fb6:	09000303          	lb	t1,144(zero) # 90 <_start-0x7fffff70>
    1fba:	0000                	unimp
    1fbc:	0501                	addi	a0,a0,0
    1fbe:	0305                	addi	t1,t1,1
    1fc0:	0902                	c.slli64	s2
    1fc2:	0000                	unimp
    1fc4:	0501                	addi	a0,a0,0
    1fc6:	0608                	addi	a0,sp,768
    1fc8:	02090103          	lb	sp,32(s2)
    1fcc:	0100                	addi	s0,sp,128
    1fce:	0d05                	addi	s10,s10,1
    1fd0:	02097f03          	.insn	4, 0x02097f03
    1fd4:	0100                	addi	s0,sp,128
    1fd6:	1705                	addi	a4,a4,-31
    1fd8:	02090003          	lb	zero,32(s2)
    1fdc:	0100                	addi	s0,sp,128
    1fde:	1105                	addi	sp,sp,-31
    1fe0:	04090003          	lb	zero,64(s2)
    1fe4:	0100                	addi	s0,sp,128
    1fe6:	0505                	addi	a0,a0,1
    1fe8:	0306                	slli	t1,t1,0x1
    1fea:	0901                	addi	s2,s2,0
    1fec:	0004                	.insn	2, 0x0004
    1fee:	0501                	addi	a0,a0,0
    1ff0:	0608                	addi	a0,sp,768
    1ff2:	00090003          	lb	zero,0(s2)
    1ff6:	0100                	addi	s0,sp,128
    1ff8:	1205                	addi	tp,tp,-31 # ffffffffffffffe1 <__global_pointer$+0xffffffff7fffd799>
    1ffa:	0306                	slli	t1,t1,0x1
    1ffc:	0905                	addi	s2,s2,1
    1ffe:	0004                	.insn	2, 0x0004
    2000:	0501                	addi	a0,a0,0
    2002:	0402000b          	.insn	4, 0x0402000b
    2006:	0601                	addi	a2,a2,0
    2008:	097ec003          	lbu	zero,151(t4)
    200c:	0000                	unimp
    200e:	0501                	addi	a0,a0,0
    2010:	01c0030f          	.insn	4, 0x01c0030f
    2014:	0609                	addi	a2,a2,2
    2016:	0100                	addi	s0,sp,128
    2018:	0b05                	addi	s6,s6,1
    201a:	0200                	addi	s0,sp,256
    201c:	0104                	addi	s1,sp,128
    201e:	097ec003          	lbu	zero,151(t4)
    2022:	0008                	.insn	2, 0x0008
    2024:	0501                	addi	a0,a0,0
    2026:	0312                	slli	t1,t1,0x4
    2028:	01c0                	addi	s0,sp,196
    202a:	0409                	addi	s0,s0,2
    202c:	0100                	addi	s0,sp,128
    202e:	0905                	addi	s2,s2,1
    2030:	0200                	addi	s0,sp,256
    2032:	0104                	addi	s1,sp,128
    2034:	0306                	slli	t1,t1,0x1
    2036:	7ec0                	ld	s0,184(a3)
    2038:	0409                	addi	s0,s0,2
    203a:	0100                	addi	s0,sp,128
    203c:	0b05                	addi	s6,s6,1
    203e:	0200                	addi	s0,sp,256
    2040:	0104                	addi	s1,sp,128
    2042:	0306                	slli	t1,t1,0x1
    2044:	0900                	addi	s0,sp,144
    2046:	0000                	unimp
    2048:	0501                	addi	a0,a0,0
    204a:	0009                	c.nop	2
    204c:	0402                	c.slli64	s0
    204e:	0301                	addi	t1,t1,0
    2050:	0900                	addi	s0,sp,144
    2052:	0004                	.insn	2, 0x0004
    2054:	0501                	addi	a0,a0,0
    2056:	0602                	c.slli64	a2
    2058:	06090103          	lb	sp,96(s2)
    205c:	0100                	addi	s0,sp,128
    205e:	0c05                	addi	s8,s8,1
    2060:	0306                	slli	t1,t1,0x1
    2062:	0900                	addi	s0,sp,144
    2064:	0000                	unimp
    2066:	0501                	addi	a0,a0,0
    2068:	a0030603          	lb	a2,-1536(t1)
    206c:	0901                	addi	s2,s2,0
    206e:	0004                	.insn	2, 0x0004
    2070:	0501                	addi	a0,a0,0
    2072:	0312                	slli	t1,t1,0x4
    2074:	091f 0000 0501      	.insn	6, 0x05010000091f
    207a:	0003060f          	.insn	4, 0x0003060f
    207e:	0009                	c.nop	2
    2080:	0100                	addi	s0,sp,128
    2082:	1205                	addi	tp,tp,-31 # ffffffffffffffe1 <__global_pointer$+0xffffffff7fffd799>
    2084:	02090003          	lb	zero,32(s2)
    2088:	0100                	addi	s0,sp,128
    208a:	1005                	c.nop	-31
    208c:	0306                	slli	t1,t1,0x1
    208e:	00040903          	lb	s2,0(s0)
    2092:	0501                	addi	a0,a0,0
    2094:	0402000b          	.insn	4, 0x0402000b
    2098:	0601                	addi	a2,a2,0
    209a:	097ebd03          	ld	s10,151(t4)
    209e:	0002                	c.slli64	zero
    20a0:	0501                	addi	a0,a0,0
    20a2:	01c40333          	add	t1,s0,t3
    20a6:	0e09                	addi	t3,t3,2
    20a8:	0100                	addi	s0,sp,128
    20aa:	0b05                	addi	s6,s6,1
    20ac:	0200                	addi	s0,sp,256
    20ae:	0104                	addi	s1,sp,128
    20b0:	097ebc03          	ld	s8,151(t4)
    20b4:	0002                	c.slli64	zero
    20b6:	0501                	addi	a0,a0,0
    20b8:	0605                	addi	a2,a2,1
    20ba:	0901c403          	lbu	s0,144(gp) # 800028d8 <__global_pointer$+0x90>
    20be:	0004                	.insn	2, 0x0004
    20c0:	0501                	addi	a0,a0,0
    20c2:	0003060f          	.insn	4, 0x0003060f
    20c6:	0009                	c.nop	2
    20c8:	0100                	addi	s0,sp,128
    20ca:	3305                	addiw	t1,t1,-31
    20cc:	0200                	addi	s0,sp,256
    20ce:	0204                	addi	s1,sp,256
    20d0:	04090003          	lb	zero,64(s2)
    20d4:	0100                	addi	s0,sp,128
    20d6:	04090003          	lb	zero,64(s2)
    20da:	0100                	addi	s0,sp,128
    20dc:	0200                	addi	s0,sp,256
    20de:	0104                	addi	s1,sp,128
    20e0:	04090003          	lb	zero,64(s2)
    20e4:	0100                	addi	s0,sp,128
    20e6:	0305                	addi	t1,t1,1
    20e8:	0306                	slli	t1,t1,0x1
    20ea:	0004094f          	fnmadd.s	fs2,fs0,ft0,ft0,rne
    20ee:	0501                	addi	a0,a0,0
    20f0:	0015                	c.nop	5
    20f2:	0402                	c.slli64	s0
    20f4:	0604                	addi	s1,sp,768
    20f6:	00093103          	ld	sp,0(s2)
    20fa:	0100                	addi	s0,sp,128
    20fc:	0305                	addi	t1,t1,1
    20fe:	02094f03          	lbu	t5,32(s2)
    2102:	0100                	addi	s0,sp,128
    2104:	0306                	slli	t1,t1,0x1
    2106:	7eea                	ld	t4,184(sp)
    2108:	0409                	addi	s0,s0,2
    210a:	0100                	addi	s0,sp,128
    210c:	00090103          	lb	sp,0(s2)
    2110:	0100                	addi	s0,sp,128
    2112:	0205                	addi	tp,tp,1 # 1 <_start-0x7fffffff>
    2114:	00090203          	lb	tp,0(s2)
    2118:	0100                	addi	s0,sp,128
    211a:	0905                	addi	s2,s2,1
    211c:	0200                	addi	s0,sp,256
    211e:	0104                	addi	s1,sp,128
    2120:	00090003          	lb	zero,0(s2)
    2124:	0100                	addi	s0,sp,128
    2126:	0b05                	addi	s6,s6,1
    2128:	0200                	addi	s0,sp,256
    212a:	0104                	addi	s1,sp,128
    212c:	0306                	slli	t1,t1,0x1
    212e:	0900                	addi	s0,sp,144
    2130:	0000                	unimp
    2132:	0501                	addi	a0,a0,0
    2134:	0009                	c.nop	2
    2136:	0402                	c.slli64	s0
    2138:	0301                	addi	t1,t1,0
    213a:	0900                	addi	s0,sp,144
    213c:	0004                	.insn	2, 0x0004
    213e:	0501                	addi	a0,a0,0
    2140:	0602                	c.slli64	a2
    2142:	06090103          	lb	sp,96(s2)
    2146:	0100                	addi	s0,sp,128
    2148:	0c05                	addi	s8,s8,1
    214a:	0306                	slli	t1,t1,0x1
    214c:	0900                	addi	s0,sp,144
    214e:	0000                	unimp
    2150:	0501                	addi	a0,a0,0
    2152:	a0030603          	lb	a2,-1536(t1)
    2156:	0901                	addi	s2,s2,0
    2158:	0004                	.insn	2, 0x0004
    215a:	0501                	addi	a0,a0,0
    215c:	0310                	addi	a2,sp,384
    215e:	0922                	slli	s2,s2,0x8
    2160:	0000                	unimp
    2162:	0501                	addi	a0,a0,0
    2164:	00ee0307          	.insn	4, 0x00ee0307
    2168:	0809                	addi	a6,a6,2
    216a:	0100                	addi	s0,sp,128
    216c:	0e05                	addi	t3,t3,1
    216e:	0306                	slli	t1,t1,0x1
    2170:	0900                	addi	s0,sp,144
    2172:	0000                	unimp
    2174:	0501                	addi	a0,a0,0
    2176:	000a                	c.slli	zero,0x2
    2178:	0402                	c.slli64	s0
    217a:	0301                	addi	t1,t1,0
    217c:	0900                	addi	s0,sp,144
    217e:	0004                	.insn	2, 0x0004
    2180:	0501                	addi	a0,a0,0
    2182:	02030607          	.insn	4, 0x02030607
    2186:	0409                	addi	s0,s0,2
    2188:	0100                	addi	s0,sp,128
    218a:	0a05                	addi	s4,s4,1
    218c:	0306                	slli	t1,t1,0x1
    218e:	0900                	addi	s0,sp,144
    2190:	0000                	unimp
    2192:	0501                	addi	a0,a0,0
    2194:	0015                	c.nop	5
    2196:	0402                	c.slli64	s0
    2198:	0301                	addi	t1,t1,0
    219a:	0900                	addi	s0,sp,144
    219c:	0004                	.insn	2, 0x0004
    219e:	0501                	addi	a0,a0,0
    21a0:	0020                	addi	s0,sp,8
    21a2:	0402                	c.slli64	s0
    21a4:	0601                	addi	a2,a2,0
    21a6:	08090303          	lb	t1,128(s2)
    21aa:	0100                	addi	s0,sp,128
    21ac:	1405                	addi	s0,s0,-31
    21ae:	0200                	addi	s0,sp,256
    21b0:	0104                	addi	s1,sp,128
    21b2:	0306                	slli	t1,t1,0x1
    21b4:	0900                	addi	s0,sp,144
    21b6:	0000                	unimp
    21b8:	0501                	addi	a0,a0,0
    21ba:	0020                	addi	s0,sp,8
    21bc:	0402                	c.slli64	s0
    21be:	0301                	addi	t1,t1,0
    21c0:	0900                	addi	s0,sp,144
    21c2:	0004                	.insn	2, 0x0004
    21c4:	0501                	addi	a0,a0,0
    21c6:	0609                	addi	a2,a2,2
    21c8:	06097c03          	.insn	4, 0x06097c03
    21cc:	0100                	addi	s0,sp,128
    21ce:	0705                	addi	a4,a4,1
    21d0:	00090103          	lb	sp,0(s2)
    21d4:	0100                	addi	s0,sp,128
    21d6:	0b05                	addi	s6,s6,1
    21d8:	0306                	slli	t1,t1,0x1
    21da:	097f 0000 0501 0014 	.insn	10, 0x0402001405010000097f
    21e2:	0402 
    21e4:	0301                	addi	t1,t1,0
    21e6:	0904                	addi	s1,sp,144
    21e8:	0008                	.insn	2, 0x0008
    21ea:	0501                	addi	a0,a0,0
    21ec:	030a                	slli	t1,t1,0x2
    21ee:	097d                	addi	s2,s2,31
    21f0:	0004                	.insn	2, 0x0004
    21f2:	0501                	addi	a0,a0,0
    21f4:	0015                	c.nop	5
    21f6:	0402                	c.slli64	s0
    21f8:	0301                	addi	t1,t1,0
    21fa:	0900                	addi	s0,sp,144
    21fc:	0004                	.insn	2, 0x0004
    21fe:	0501                	addi	a0,a0,0
    2200:	097f030b          	.insn	4, 0x097f030b
    2204:	0004                	.insn	2, 0x0004
    2206:	0501                	addi	a0,a0,0
    2208:	0014                	.insn	2, 0x0014
    220a:	0402                	c.slli64	s0
    220c:	0301                	addi	t1,t1,0
    220e:	0904                	addi	s1,sp,144
    2210:	0008                	.insn	2, 0x0008
    2212:	0501                	addi	a0,a0,0
    2214:	0015                	c.nop	5
    2216:	0402                	c.slli64	s0
    2218:	0301                	addi	t1,t1,0
    221a:	097d                	addi	s2,s2,31
    221c:	0004                	.insn	2, 0x0004
    221e:	0501                	addi	a0,a0,0
    2220:	0609                	addi	a2,a2,2
    2222:	04090103          	lb	sp,64(s2)
    2226:	0100                	addi	s0,sp,128
    2228:	0305                	addi	t1,t1,1
    222a:	09018a03          	lb	s4,144(gp) # 800028d8 <__global_pointer$+0x90>
    222e:	0000                	unimp
    2230:	0301                	addi	t1,t1,0
    2232:	0901                	addi	s2,s2,0
    2234:	0000                	unimp
    2236:	0501                	addi	a0,a0,0
    2238:	030e                	slli	t1,t1,0x3
    223a:	0900                	addi	s0,sp,144
    223c:	0000                	unimp
    223e:	0501                	addi	a0,a0,0
    2240:	7f03060f          	.insn	4, 0x7f03060f
    2244:	0009                	c.nop	2
    2246:	0100                	addi	s0,sp,128
    2248:	0e05                	addi	t3,t3,1
    224a:	02090103          	lb	sp,32(s2)
    224e:	0100                	addi	s0,sp,128
    2250:	0505                	addi	a0,a0,1
    2252:	0306                	slli	t1,t1,0x1
    2254:	0901                	addi	s2,s2,0
    2256:	0008                	.insn	2, 0x0008
    2258:	0501                	addi	a0,a0,0
    225a:	0606                	slli	a2,a2,0x1
    225c:	00090003          	lb	zero,0(s2)
    2260:	0100                	addi	s0,sp,128
    2262:	0e05                	addi	t3,t3,1
    2264:	0306                	slli	t1,t1,0x1
    2266:	097f 0002 0001 0402 	.insn	10, 0x0601040200010002097f
    226e:	0601 
    2270:	04090003          	lb	zero,64(s2)
    2274:	0100                	addi	s0,sp,128
    2276:	0c05                	addi	s8,s8,1
    2278:	08090203          	lb	tp,128(s2)
    227c:	0100                	addi	s0,sp,128
    227e:	1405                	addi	s0,s0,-31
    2280:	0200                	addi	s0,sp,256
    2282:	0104                	addi	s1,sp,128
    2284:	097ef303          	.insn	4, 0x097ef303
    2288:	0004                	.insn	2, 0x0004
    228a:	0501                	addi	a0,a0,0
    228c:	8d030603          	lb	a2,-1840(t1)
    2290:	0901                	addi	s2,s2,0
    2292:	0004                	.insn	2, 0x0004
    2294:	0501                	addi	a0,a0,0
    2296:	0034                	addi	a3,sp,8
    2298:	0402                	c.slli64	s0
    229a:	0301                	addi	t1,t1,0
    229c:	00097ef3          	csrrci	t4,ustatus,18
    22a0:	0100                	addi	s0,sp,128
    22a2:	0b05                	addi	s6,s6,1
    22a4:	0200                	addi	s0,sp,256
    22a6:	0104                	addi	s1,sp,128
    22a8:	0306                	slli	t1,t1,0x1
    22aa:	7dcc                	ld	a1,184(a1)
    22ac:	0409                	addi	s0,s0,2
    22ae:	0100                	addi	s0,sp,128
    22b0:	0905                	addi	s2,s2,1
    22b2:	0200                	addi	s0,sp,256
    22b4:	0104                	addi	s1,sp,128
    22b6:	0306                	slli	t1,t1,0x1
    22b8:	0900                	addi	s0,sp,144
    22ba:	000a                	c.slli	zero,0x2
    22bc:	0501                	addi	a0,a0,0
    22be:	0402000b          	.insn	4, 0x0402000b
    22c2:	0601                	addi	a2,a2,0
    22c4:	00090003          	lb	zero,0(s2)
    22c8:	0100                	addi	s0,sp,128
    22ca:	0905                	addi	s2,s2,1
    22cc:	0200                	addi	s0,sp,256
    22ce:	0104                	addi	s1,sp,128
    22d0:	04090003          	lb	zero,64(s2)
    22d4:	0100                	addi	s0,sp,128
    22d6:	0205                	addi	tp,tp,1 # 1 <_start-0x7fffffff>
    22d8:	0306                	slli	t1,t1,0x1
    22da:	0901                	addi	s2,s2,0
    22dc:	0006                	c.slli	zero,0x1
    22de:	0501                	addi	a0,a0,0
    22e0:	060c                	addi	a1,sp,768
    22e2:	00090003          	lb	zero,0(s2)
    22e6:	0100                	addi	s0,sp,128
    22e8:	0305                	addi	t1,t1,1
    22ea:	0306                	slli	t1,t1,0x1
    22ec:	01a0                	addi	s0,sp,200
    22ee:	0409                	addi	s0,s0,2
    22f0:	0100                	addi	s0,sp,128
    22f2:	3e05                	addiw	t3,t3,-31
    22f4:	0200                	addi	s0,sp,256
    22f6:	0304                	addi	s1,sp,384
    22f8:	09019303          	lh	t1,144(gp) # 800028d8 <__global_pointer$+0x90>
    22fc:	0000                	unimp
    22fe:	0501                	addi	a0,a0,0
    2300:	0034                	addi	a3,sp,8
    2302:	0402                	c.slli64	s0
    2304:	0301                	addi	t1,t1,0
    2306:	0900                	addi	s0,sp,144
    2308:	0002                	c.slli64	zero
    230a:	0501                	addi	a0,a0,0
    230c:	0020                	addi	s0,sp,8
    230e:	0402                	c.slli64	s0
    2310:	0301                	addi	t1,t1,0
    2312:	0902                	c.slli64	s2
    2314:	0004                	.insn	2, 0x0004
    2316:	0501                	addi	a0,a0,0
    2318:	0014                	.insn	2, 0x0014
    231a:	0402                	c.slli64	s0
    231c:	0601                	addi	a2,a2,0
    231e:	00090003          	lb	zero,0(s2)
    2322:	0100                	addi	s0,sp,128
    2324:	2005                	.insn	2, 0x2005
    2326:	0200                	addi	s0,sp,256
    2328:	0104                	addi	s1,sp,128
    232a:	04090003          	lb	zero,64(s2)
    232e:	0100                	addi	s0,sp,128
    2330:	0b05                	addi	s6,s6,1
    2332:	0200                	addi	s0,sp,256
    2334:	0104                	addi	s1,sp,128
    2336:	097dca03          	lbu	s4,151(s11)
    233a:	0004                	.insn	2, 0x0004
    233c:	0501                	addi	a0,a0,0
    233e:	0032                	c.slli	zero,0xc
    2340:	0402                	c.slli64	s0
    2342:	0304                	addi	s1,sp,384
    2344:	02b6                	slli	t0,t0,0xd
    2346:	0609                	addi	a2,a2,2
    2348:	0100                	addi	s0,sp,128
    234a:	0b05                	addi	s6,s6,1
    234c:	0200                	addi	s0,sp,256
    234e:	0104                	addi	s1,sp,128
    2350:	097dca03          	lbu	s4,151(s11)
    2354:	0002                	c.slli64	zero
    2356:	0501                	addi	a0,a0,0
    2358:	0020                	addi	s0,sp,8
    235a:	0402                	c.slli64	s0
    235c:	0302                	c.slli64	t1
    235e:	02b6                	slli	t0,t0,0xd
    2360:	0409                	addi	s0,s0,2
    2362:	0100                	addi	s0,sp,128
    2364:	3205                	addiw	tp,tp,-31 # ffffffffffffffe1 <__global_pointer$+0xffffffff7fffd799>
    2366:	0200                	addi	s0,sp,256
    2368:	0404                	addi	s1,sp,512
    236a:	04090003          	lb	zero,64(s2)
    236e:	0100                	addi	s0,sp,128
    2370:	0905                	addi	s2,s2,1
    2372:	0200                	addi	s0,sp,256
    2374:	0104                	addi	s1,sp,128
    2376:	0306                	slli	t1,t1,0x1
    2378:	7dca                	ld	s11,176(sp)
    237a:	0809                	addi	a6,a6,2
    237c:	0100                	addi	s0,sp,128
    237e:	0b05                	addi	s6,s6,1
    2380:	0200                	addi	s0,sp,256
    2382:	0104                	addi	s1,sp,128
    2384:	0306                	slli	t1,t1,0x1
    2386:	0900                	addi	s0,sp,144
    2388:	0000                	unimp
    238a:	0501                	addi	a0,a0,0
    238c:	0009                	c.nop	2
    238e:	0402                	c.slli64	s0
    2390:	0301                	addi	t1,t1,0
    2392:	0900                	addi	s0,sp,144
    2394:	0004                	.insn	2, 0x0004
    2396:	0501                	addi	a0,a0,0
    2398:	0602                	c.slli64	a2
    239a:	06090103          	lb	sp,96(s2)
    239e:	0100                	addi	s0,sp,128
    23a0:	0c05                	addi	s8,s8,1
    23a2:	0306                	slli	t1,t1,0x1
    23a4:	0900                	addi	s0,sp,144
    23a6:	0000                	unimp
    23a8:	0501                	addi	a0,a0,0
    23aa:	a0030603          	lb	a2,-1536(t1)
    23ae:	0901                	addi	s2,s2,0
    23b0:	0004                	.insn	2, 0x0004
    23b2:	0501                	addi	a0,a0,0
    23b4:	0309                	addi	t1,t1,2
    23b6:	00090197          	auipc	gp,0x90
    23ba:	0100                	addi	s0,sp,128
    23bc:	1405                	addi	s0,s0,-31
    23be:	0200                	addi	s0,sp,256
    23c0:	0104                	addi	s1,sp,128
    23c2:	0306                	slli	t1,t1,0x1
    23c4:	097e                	slli	s2,s2,0x1f
    23c6:	0000                	unimp
    23c8:	0501                	addi	a0,a0,0
    23ca:	030a                	slli	t1,t1,0x2
    23cc:	0902                	c.slli64	s2
    23ce:	0004                	.insn	2, 0x0004
    23d0:	0501                	addi	a0,a0,0
    23d2:	004d                	c.nop	19
    23d4:	0402                	c.slli64	s0
    23d6:	0605                	addi	a2,a2,1
    23d8:	02097e03          	.insn	4, 0x02097e03
    23dc:	0100                	addi	s0,sp,128
    23de:	2005                	.insn	2, 0x2005
    23e0:	0200                	addi	s0,sp,256
    23e2:	0104                	addi	s1,sp,128
    23e4:	02090003          	lb	zero,32(s2)
    23e8:	0100                	addi	s0,sp,128
    23ea:	0200                	addi	s0,sp,256
    23ec:	0204                	addi	s1,sp,256
    23ee:	0306                	slli	t1,t1,0x1
    23f0:	0900                	addi	s0,sp,144
    23f2:	000a                	c.slli	zero,0x2
    23f4:	0501                	addi	a0,a0,0
    23f6:	71030607          	.insn	4, 0x71030607
    23fa:	0809                	addi	a6,a6,2
    23fc:	0100                	addi	s0,sp,128
    23fe:	0e05                	addi	t3,t3,1
    2400:	0306                	slli	t1,t1,0x1
    2402:	0966                	slli	s2,s2,0x19
    2404:	0000                	unimp
    2406:	0501                	addi	a0,a0,0
    2408:	030c                	addi	a1,sp,384
    240a:	091a                	slli	s2,s2,0x6
    240c:	0004                	.insn	2, 0x0004
    240e:	0501                	addi	a0,a0,0
    2410:	01030607          	.insn	4, 0x01030607
    2414:	0209                	addi	tp,tp,2 # 2 <_start-0x7ffffffe>
    2416:	0100                	addi	s0,sp,128
    2418:	1305                	addi	t1,t1,-31
    241a:	0306                	slli	t1,t1,0x1
    241c:	094d                	addi	s2,s2,19
    241e:	0000                	unimp
    2420:	0501                	addi	a0,a0,0
    2422:	09330307          	.insn	4, 0x09330307
    2426:	0002                	c.slli64	zero
    2428:	0601                	addi	a2,a2,0
    242a:	02091803          	lh	a6,32(s2)
    242e:	0100                	addi	s0,sp,128
    2430:	0305                	addi	t1,t1,1
    2432:	097f9303          	lh	t1,151(t6) # fffffffffffed097 <__global_pointer$+0xffffffff7ffea84f>
    2436:	0000                	unimp
    2438:	0501                	addi	a0,a0,0
    243a:	0606                	slli	a2,a2,0x1
    243c:	00090003          	lb	zero,0(s2)
    2440:	0100                	addi	s0,sp,128
    2442:	1105                	addi	sp,sp,-31
    2444:	0900c103          	lbu	sp,144(ra)
    2448:	0002                	c.slli64	zero
    244a:	0501                	addi	a0,a0,0
    244c:	0306                	slli	t1,t1,0x1
    244e:	04097fbf 08050100 	.insn	8, 0x0805010004097fbf
    2456:	0306                	slli	t1,t1,0x1
    2458:	0902                	c.slli64	s2
    245a:	0004                	.insn	2, 0x0004
    245c:	0501                	addi	a0,a0,0
    245e:	0003060b          	.insn	4, 0x0003060b
    2462:	0009                	c.nop	2
    2464:	0100                	addi	s0,sp,128
    2466:	0505                	addi	a0,a0,1
    2468:	0306                	slli	t1,t1,0x1
    246a:	0901                	addi	s2,s2,0
    246c:	0004                	.insn	2, 0x0004
    246e:	0501                	addi	a0,a0,0
    2470:	060c                	addi	a1,sp,768
    2472:	00090003          	lb	zero,0(s2)
    2476:	0100                	addi	s0,sp,128
    2478:	0705                	addi	a4,a4,1
    247a:	0306                	slli	t1,t1,0x1
    247c:	020900eb          	.insn	4, 0x020900eb
    2480:	0100                	addi	s0,sp,128
    2482:	0b05                	addi	s6,s6,1
    2484:	0200                	addi	s0,sp,256
    2486:	0104                	addi	s1,sp,128
    2488:	0306                	slli	t1,t1,0x1
    248a:	097f 0000 0501 030a 	.insn	10, 0x0901030a05010000097f
    2492:	0901 
    2494:	0004                	.insn	2, 0x0004
    2496:	0501                	addi	a0,a0,0
    2498:	0402000b          	.insn	4, 0x0402000b
    249c:	0301                	addi	t1,t1,0
    249e:	04097dbf 09050100 	.insn	8, 0x0905010004097dbf
    24a6:	0200                	addi	s0,sp,256
    24a8:	0104                	addi	s1,sp,128
    24aa:	0306                	slli	t1,t1,0x1
    24ac:	0900                	addi	s0,sp,144
    24ae:	000a                	c.slli	zero,0x2
    24b0:	0501                	addi	a0,a0,0
    24b2:	0402000b          	.insn	4, 0x0402000b
    24b6:	0601                	addi	a2,a2,0
    24b8:	00090003          	lb	zero,0(s2)
    24bc:	0100                	addi	s0,sp,128
    24be:	0905                	addi	s2,s2,1
    24c0:	0200                	addi	s0,sp,256
    24c2:	0104                	addi	s1,sp,128
    24c4:	04090003          	lb	zero,64(s2)
    24c8:	0100                	addi	s0,sp,128
    24ca:	0205                	addi	tp,tp,1 # 1 <_start-0x7fffffff>
    24cc:	0306                	slli	t1,t1,0x1
    24ce:	0901                	addi	s2,s2,0
    24d0:	0006                	c.slli	zero,0x1
    24d2:	0501                	addi	a0,a0,0
    24d4:	060c                	addi	a1,sp,768
    24d6:	00090003          	lb	zero,0(s2)
    24da:	0100                	addi	s0,sp,128
    24dc:	0305                	addi	t1,t1,1
    24de:	0306                	slli	t1,t1,0x1
    24e0:	01a0                	addi	s0,sp,200
    24e2:	0809                	addi	a6,a6,2
    24e4:	0100                	addi	s0,sp,128
    24e6:	0905                	addi	s2,s2,1
    24e8:	0901a203          	lw	tp,144(gp) # 92446 <_start-0x7ff6dbba>
    24ec:	0000                	unimp
    24ee:	0501                	addi	a0,a0,0
    24f0:	0003060f          	.insn	4, 0x0003060f
    24f4:	0009                	c.nop	2
    24f6:	0100                	addi	s0,sp,128
    24f8:	0d05                	addi	s10,s10,1
    24fa:	04090003          	lb	zero,64(s2)
    24fe:	0100                	addi	s0,sp,128
    2500:	0705                	addi	a4,a4,1
    2502:	0306                	slli	t1,t1,0x1
    2504:	0969                	addi	s2,s2,26
    2506:	0006                	c.slli	zero,0x1
    2508:	0501                	addi	a0,a0,0
    250a:	0402000b          	.insn	4, 0x0402000b
    250e:	0601                	addi	a2,a2,0
    2510:	097dd403          	lhu	s0,151(s11)
    2514:	0000                	unimp
    2516:	0501                	addi	a0,a0,0
    2518:	01930303          	lb	t1,25(t1)
    251c:	0409                	addi	s0,s0,2
    251e:	0100                	addi	s0,sp,128
    2520:	0b05                	addi	s6,s6,1
    2522:	0200                	addi	s0,sp,256
    2524:	0104                	addi	s1,sp,128
    2526:	097eed03          	lwu	s10,151(t4)
    252a:	0004                	.insn	2, 0x0004
    252c:	0501                	addi	a0,a0,0
    252e:	02ac0307          	.insn	4, 0x02ac0307
    2532:	0209                	addi	tp,tp,2 # 2 <_start-0x7ffffffe>
    2534:	0100                	addi	s0,sp,128
    2536:	0305                	addi	t1,t1,1
    2538:	0306                	slli	t1,t1,0x1
    253a:	02097ee7          	.insn	4, 0x02097ee7
    253e:	0100                	addi	s0,sp,128
    2540:	097eea03          	lwu	s4,151(t4)
    2544:	0000                	unimp
    2546:	0301                	addi	t1,t1,0
    2548:	0901                	addi	s2,s2,0
    254a:	0000                	unimp
    254c:	0501                	addi	a0,a0,0
    254e:	0302                	c.slli64	t1
    2550:	0902                	c.slli64	s2
    2552:	0000                	unimp
    2554:	0501                	addi	a0,a0,0
    2556:	0402000b          	.insn	4, 0x0402000b
    255a:	0601                	addi	a2,a2,0
    255c:	00090003          	lb	zero,0(s2)
    2560:	0100                	addi	s0,sp,128
    2562:	0905                	addi	s2,s2,1
    2564:	0200                	addi	s0,sp,256
    2566:	0104                	addi	s1,sp,128
    2568:	0306                	slli	t1,t1,0x1
    256a:	0900                	addi	s0,sp,144
    256c:	0004                	.insn	2, 0x0004
    256e:	0501                	addi	a0,a0,0
    2570:	0402000b          	.insn	4, 0x0402000b
    2574:	0601                	addi	a2,a2,0
    2576:	00090003          	lb	zero,0(s2)
    257a:	0100                	addi	s0,sp,128
    257c:	0905                	addi	s2,s2,1
    257e:	0200                	addi	s0,sp,256
    2580:	0104                	addi	s1,sp,128
    2582:	04090003          	lb	zero,64(s2)
    2586:	0100                	addi	s0,sp,128
    2588:	0205                	addi	tp,tp,1 # 1 <_start-0x7fffffff>
    258a:	0306                	slli	t1,t1,0x1
    258c:	0901                	addi	s2,s2,0
    258e:	0006                	c.slli	zero,0x1
    2590:	0501                	addi	a0,a0,0
    2592:	060c                	addi	a1,sp,768
    2594:	00090003          	lb	zero,0(s2)
    2598:	0100                	addi	s0,sp,128
    259a:	0305                	addi	t1,t1,1
    259c:	0306                	slli	t1,t1,0x1
    259e:	01a0                	addi	s0,sp,200
    25a0:	0409                	addi	s0,s0,2
    25a2:	0100                	addi	s0,sp,128
    25a4:	0705                	addi	a4,a4,1
    25a6:	09018c03          	lb	s8,144(gp) # 800028d8 <__global_pointer$+0x90>
    25aa:	0000                	unimp
    25ac:	0501                	addi	a0,a0,0
    25ae:	060a                	slli	a2,a2,0x2
    25b0:	097ef403          	.insn	4, 0x097ef403
    25b4:	0000                	unimp
    25b6:	0501                	addi	a0,a0,0
    25b8:	0301                	addi	t1,t1,0
    25ba:	020901cf          	fnmadd.d	ft3,fs2,ft0,ft0,rne
    25be:	0100                	addi	s0,sp,128
    25c0:	0b05                	addi	s6,s6,1
    25c2:	0200                	addi	s0,sp,256
    25c4:	0104                	addi	s1,sp,128
    25c6:	097d9003          	lh	zero,151(s11)
    25ca:	0006                	c.slli	zero,0x1
    25cc:	0501                	addi	a0,a0,0
    25ce:	0009                	c.nop	2
    25d0:	0402                	c.slli64	s0
    25d2:	0601                	addi	a2,a2,0
    25d4:	0a090003          	lb	zero,160(s2)
    25d8:	0100                	addi	s0,sp,128
    25da:	0b05                	addi	s6,s6,1
    25dc:	0200                	addi	s0,sp,256
    25de:	0104                	addi	s1,sp,128
    25e0:	0306                	slli	t1,t1,0x1
    25e2:	0900                	addi	s0,sp,144
    25e4:	0000                	unimp
    25e6:	0501                	addi	a0,a0,0
    25e8:	0009                	c.nop	2
    25ea:	0402                	c.slli64	s0
    25ec:	0301                	addi	t1,t1,0
    25ee:	0900                	addi	s0,sp,144
    25f0:	0004                	.insn	2, 0x0004
    25f2:	0501                	addi	a0,a0,0
    25f4:	0602                	c.slli64	a2
    25f6:	06090103          	lb	sp,96(s2)
    25fa:	0100                	addi	s0,sp,128
    25fc:	0c05                	addi	s8,s8,1
    25fe:	0306                	slli	t1,t1,0x1
    2600:	0900                	addi	s0,sp,144
    2602:	0000                	unimp
    2604:	0501                	addi	a0,a0,0
    2606:	0402000b          	.insn	4, 0x0402000b
    260a:	0301                	addi	t1,t1,0
    260c:	097f 0004 0501 030c 	.insn	10, 0x0901030c05010004097f
    2614:	0901 
    2616:	0004                	.insn	2, 0x0004
    2618:	0501                	addi	a0,a0,0
    261a:	a0030603          	lb	a2,-1536(t1)
    261e:	0901                	addi	s2,s2,0
    2620:	0004                	.insn	2, 0x0004
    2622:	0501                	addi	a0,a0,0
    2624:	01b70307          	.insn	4, 0x01b70307
    2628:	0009                	c.nop	2
    262a:	0100                	addi	s0,sp,128
    262c:	0305                	addi	t1,t1,1
    262e:	097ebb03          	ld	s6,151(t4)
    2632:	0000                	unimp
    2634:	0301                	addi	t1,t1,0
    2636:	7eea                	ld	t4,184(sp)
    2638:	0009                	c.nop	2
    263a:	0100                	addi	s0,sp,128
    263c:	00090103          	lb	sp,0(s2)
    2640:	0100                	addi	s0,sp,128
    2642:	0205                	addi	tp,tp,1 # 1 <_start-0x7fffffff>
    2644:	00090203          	lb	tp,0(s2)
    2648:	0100                	addi	s0,sp,128
    264a:	0b05                	addi	s6,s6,1
    264c:	0200                	addi	s0,sp,256
    264e:	0104                	addi	s1,sp,128
    2650:	0306                	slli	t1,t1,0x1
    2652:	0900                	addi	s0,sp,144
    2654:	0000                	unimp
    2656:	0501                	addi	a0,a0,0
    2658:	0009                	c.nop	2
    265a:	0402                	c.slli64	s0
    265c:	0601                	addi	a2,a2,0
    265e:	06090003          	lb	zero,96(s2)
    2662:	0100                	addi	s0,sp,128
    2664:	0b05                	addi	s6,s6,1
    2666:	0200                	addi	s0,sp,256
    2668:	0104                	addi	s1,sp,128
    266a:	0306                	slli	t1,t1,0x1
    266c:	0900                	addi	s0,sp,144
    266e:	0000                	unimp
    2670:	0501                	addi	a0,a0,0
    2672:	0009                	c.nop	2
    2674:	0402                	c.slli64	s0
    2676:	0301                	addi	t1,t1,0
    2678:	0900                	addi	s0,sp,144
    267a:	0004                	.insn	2, 0x0004
    267c:	0501                	addi	a0,a0,0
    267e:	0602                	c.slli64	a2
    2680:	06090103          	lb	sp,96(s2)
    2684:	0100                	addi	s0,sp,128
    2686:	0c05                	addi	s8,s8,1
    2688:	0306                	slli	t1,t1,0x1
    268a:	0900                	addi	s0,sp,144
    268c:	0000                	unimp
    268e:	0501                	addi	a0,a0,0
    2690:	a0030603          	lb	a2,-1536(t1)
    2694:	0901                	addi	s2,s2,0
    2696:	0008                	.insn	2, 0x0008
    2698:	0501                	addi	a0,a0,0
    269a:	01bc0307          	.insn	4, 0x01bc0307
    269e:	0009                	c.nop	2
    26a0:	0100                	addi	s0,sp,128
    26a2:	00090203          	lb	tp,0(s2)
    26a6:	0100                	addi	s0,sp,128
    26a8:	0305                	addi	t1,t1,1
    26aa:	097eea03          	lwu	s4,151(t4)
    26ae:	0000                	unimp
    26b0:	0501                	addi	a0,a0,0
    26b2:	0308                	addi	a0,sp,384
    26b4:	0902                	c.slli64	s2
    26b6:	0000                	unimp
    26b8:	0501                	addi	a0,a0,0
    26ba:	060c                	addi	a1,sp,768
    26bc:	097eb603          	ld	a2,151(t4)
    26c0:	0000                	unimp
    26c2:	0501                	addi	a0,a0,0
    26c4:	0605                	addi	a2,a2,1
    26c6:	0901cb03          	lbu	s6,144(gp) # 800028d8 <__global_pointer$+0x90>
    26ca:	0006                	c.slli	zero,0x1
    26cc:	0501                	addi	a0,a0,0
    26ce:	060c                	addi	a1,sp,768
    26d0:	00090003          	lb	zero,0(s2)
    26d4:	0100                	addi	s0,sp,128
    26d6:	0b05                	addi	s6,s6,1
    26d8:	0200                	addi	s0,sp,256
    26da:	0104                	addi	s1,sp,128
    26dc:	097eb403          	ld	s0,151(t4)
    26e0:	0006                	c.slli	zero,0x1
    26e2:	0501                	addi	a0,a0,0
    26e4:	0020                	addi	s0,sp,8
    26e6:	0402                	c.slli64	s0
    26e8:	0301                	addi	t1,t1,0
    26ea:	02b6                	slli	t0,t0,0xd
    26ec:	0609                	addi	a2,a2,2
    26ee:	0100                	addi	s0,sp,128
    26f0:	0b05                	addi	s6,s6,1
    26f2:	0200                	addi	s0,sp,256
    26f4:	0104                	addi	s1,sp,128
    26f6:	097dca03          	lbu	s4,151(s11)
    26fa:	0002                	c.slli64	zero
    26fc:	0501                	addi	a0,a0,0
    26fe:	0009                	c.nop	2
    2700:	0402                	c.slli64	s0
    2702:	0601                	addi	a2,a2,0
    2704:	04090003          	lb	zero,64(s2)
    2708:	0100                	addi	s0,sp,128
    270a:	0b05                	addi	s6,s6,1
    270c:	0200                	addi	s0,sp,256
    270e:	0104                	addi	s1,sp,128
    2710:	0306                	slli	t1,t1,0x1
    2712:	0900                	addi	s0,sp,144
    2714:	0000                	unimp
    2716:	0501                	addi	a0,a0,0
    2718:	0009                	c.nop	2
    271a:	0402                	c.slli64	s0
    271c:	0301                	addi	t1,t1,0
    271e:	0900                	addi	s0,sp,144
    2720:	0004                	.insn	2, 0x0004
    2722:	0501                	addi	a0,a0,0
    2724:	0602                	c.slli64	a2
    2726:	06090103          	lb	sp,96(s2)
    272a:	0100                	addi	s0,sp,128
    272c:	0c05                	addi	s8,s8,1
    272e:	0306                	slli	t1,t1,0x1
    2730:	0900                	addi	s0,sp,144
    2732:	0000                	unimp
    2734:	0501                	addi	a0,a0,0
    2736:	a0030603          	lb	a2,-1536(t1)
    273a:	0901                	addi	s2,s2,0
    273c:	0004                	.insn	2, 0x0004
    273e:	0501                	addi	a0,a0,0
    2740:	0309                	addi	t1,t1,2
    2742:	00090197          	auipc	gp,0x90
    2746:	0100                	addi	s0,sp,128
    2748:	1405                	addi	s0,s0,-31
    274a:	0200                	addi	s0,sp,256
    274c:	0104                	addi	s1,sp,128
    274e:	0306                	slli	t1,t1,0x1
    2750:	097e                	slli	s2,s2,0x1f
    2752:	0000                	unimp
    2754:	0501                	addi	a0,a0,0
    2756:	030a                	slli	t1,t1,0x2
    2758:	0902                	c.slli64	s2
    275a:	0004                	.insn	2, 0x0004
    275c:	0501                	addi	a0,a0,0
    275e:	004d                	c.nop	19
    2760:	0402                	c.slli64	s0
    2762:	0605                	addi	a2,a2,1
    2764:	02097e03          	.insn	4, 0x02097e03
    2768:	0100                	addi	s0,sp,128
    276a:	2005                	.insn	2, 0x2005
    276c:	0200                	addi	s0,sp,256
    276e:	0104                	addi	s1,sp,128
    2770:	00090003          	lb	zero,0(s2)
    2774:	0100                	addi	s0,sp,128
    2776:	1405                	addi	s0,s0,-31
    2778:	0200                	addi	s0,sp,256
    277a:	0104                	addi	s1,sp,128
    277c:	0c090403          	lb	s0,192(s2)
    2780:	0100                	addi	s0,sp,128
    2782:	0b05                	addi	s6,s6,1
    2784:	0200                	addi	s0,sp,256
    2786:	0104                	addi	s1,sp,128
    2788:	0306                	slli	t1,t1,0x1
    278a:	7dc6                	ld	s11,112(sp)
    278c:	0409                	addi	s0,s0,2
    278e:	0100                	addi	s0,sp,128
    2790:	0c05                	addi	s8,s8,1
    2792:	0a090103          	lb	sp,160(s2)
    2796:	0100                	addi	s0,sp,128
    2798:	0905                	addi	s2,s2,1
    279a:	0200                	addi	s0,sp,256
    279c:	0104                	addi	s1,sp,128
    279e:	0306                	slli	t1,t1,0x1
    27a0:	097f 0004 0501 000b 	.insn	10, 0x0402000b05010004097f
    27a8:	0402 
    27aa:	0601                	addi	a2,a2,0
    27ac:	00090003          	lb	zero,0(s2)
    27b0:	0100                	addi	s0,sp,128
    27b2:	0905                	addi	s2,s2,1
    27b4:	0200                	addi	s0,sp,256
    27b6:	0104                	addi	s1,sp,128
    27b8:	04090003          	lb	zero,64(s2)
    27bc:	0100                	addi	s0,sp,128
    27be:	0205                	addi	tp,tp,1 # 1 <_start-0x7fffffff>
    27c0:	0306                	slli	t1,t1,0x1
    27c2:	0901                	addi	s2,s2,0
    27c4:	0006                	c.slli	zero,0x1
    27c6:	0501                	addi	a0,a0,0
    27c8:	060c                	addi	a1,sp,768
    27ca:	00090003          	lb	zero,0(s2)
    27ce:	0100                	addi	s0,sp,128
    27d0:	0305                	addi	t1,t1,1
    27d2:	0306                	slli	t1,t1,0x1
    27d4:	01a0                	addi	s0,sp,200
    27d6:	0409                	addi	s0,s0,2
    27d8:	0100                	addi	s0,sp,128
    27da:	1e05                	addi	t3,t3,-31
    27dc:	0200                	addi	s0,sp,256
    27de:	0204                	addi	s1,sp,256
    27e0:	09019903          	lh	s2,144(gp) # 927d2 <_start-0x7ff6d82e>
    27e4:	0000                	unimp
    27e6:	0501                	addi	a0,a0,0
    27e8:	0014                	.insn	2, 0x0014
    27ea:	0402                	c.slli64	s0
    27ec:	0301                	addi	t1,t1,0
    27ee:	0900                	addi	s0,sp,144
    27f0:	0002                	c.slli64	zero
    27f2:	0501                	addi	a0,a0,0
    27f4:	060e                	slli	a2,a2,0x3
    27f6:	04097703          	.insn	4, 0x04097703
    27fa:	0100                	addi	s0,sp,128
    27fc:	0305                	addi	t1,t1,1
    27fe:	0306                	slli	t1,t1,0x1
    2800:	7fac                	ld	a1,120(a5)
    2802:	0209                	addi	tp,tp,2 # 2 <_start-0x7ffffffe>
    2804:	0100                	addi	s0,sp,128
    2806:	00090103          	lb	sp,0(s2)
    280a:	0100                	addi	s0,sp,128
    280c:	00090103          	lb	sp,0(s2)
    2810:	0100                	addi	s0,sp,128
    2812:	00090103          	lb	sp,0(s2)
    2816:	0100                	addi	s0,sp,128
    2818:	00090103          	lb	sp,0(s2)
    281c:	0100                	addi	s0,sp,128
    281e:	00090103          	lb	sp,0(s2)
    2822:	0100                	addi	s0,sp,128
    2824:	00090203          	lb	tp,0(s2)
    2828:	0100                	addi	s0,sp,128
    282a:	0505                	addi	a0,a0,1
    282c:	00090103          	lb	sp,0(s2)
    2830:	0100                	addi	s0,sp,128
    2832:	2a05                	addiw	s4,s4,1
    2834:	00090003          	lb	zero,0(s2)
    2838:	0100                	addi	s0,sp,128
    283a:	0805                	addi	a6,a6,1
    283c:	0306                	slli	t1,t1,0x1
    283e:	0956                	slli	s2,s2,0x15
    2840:	0002                	c.slli64	zero
    2842:	0501                	addi	a0,a0,0
    2844:	0605                	addi	a2,a2,1
    2846:	04091d03          	lh	s10,64(s2)
    284a:	0100                	addi	s0,sp,128
    284c:	0c05                	addi	s8,s8,1
    284e:	0200                	addi	s0,sp,256
    2850:	0104                	addi	s1,sp,128
    2852:	0306                	slli	t1,t1,0x1
    2854:	0900                	addi	s0,sp,144
    2856:	0000                	unimp
    2858:	0301                	addi	t1,t1,0
    285a:	0900                	addi	s0,sp,144
    285c:	0002                	c.slli64	zero
    285e:	0501                	addi	a0,a0,0
    2860:	0305                	addi	t1,t1,1
    2862:	091d                	addi	s2,s2,7
    2864:	0002                	c.slli64	zero
    2866:	0501                	addi	a0,a0,0
    2868:	0402000b          	.insn	4, 0x0402000b
    286c:	0301                	addi	t1,t1,0
    286e:	08097e8b          	.insn	4, 0x08097e8b
    2872:	0100                	addi	s0,sp,128
    2874:	0905                	addi	s2,s2,1
    2876:	0200                	addi	s0,sp,256
    2878:	0104                	addi	s1,sp,128
    287a:	0306                	slli	t1,t1,0x1
    287c:	0900                	addi	s0,sp,144
    287e:	000a                	c.slli	zero,0x2
    2880:	0501                	addi	a0,a0,0
    2882:	0402000b          	.insn	4, 0x0402000b
    2886:	0601                	addi	a2,a2,0
    2888:	00090003          	lb	zero,0(s2)
    288c:	0100                	addi	s0,sp,128
    288e:	0905                	addi	s2,s2,1
    2890:	0200                	addi	s0,sp,256
    2892:	0104                	addi	s1,sp,128
    2894:	04090003          	lb	zero,64(s2)
    2898:	0100                	addi	s0,sp,128
    289a:	0205                	addi	tp,tp,1 # 1 <_start-0x7fffffff>
    289c:	0306                	slli	t1,t1,0x1
    289e:	0901                	addi	s2,s2,0
    28a0:	0006                	c.slli	zero,0x1
    28a2:	0501                	addi	a0,a0,0
    28a4:	060c                	addi	a1,sp,768
    28a6:	00090003          	lb	zero,0(s2)
    28aa:	0100                	addi	s0,sp,128
    28ac:	0305                	addi	t1,t1,1
    28ae:	0306                	slli	t1,t1,0x1
    28b0:	01a0                	addi	s0,sp,200
    28b2:	0809                	addi	a6,a6,2
    28b4:	0100                	addi	s0,sp,128
    28b6:	0705                	addi	a4,a4,1
    28b8:	0901c603          	lbu	a2,144(gp) # 800028d8 <__global_pointer$+0x90>
    28bc:	0000                	unimp
    28be:	0501                	addi	a0,a0,0
    28c0:	060a                	slli	a2,a2,0x2
    28c2:	097eba03          	ld	s4,151(t4)
    28c6:	0000                	unimp
    28c8:	0501                	addi	a0,a0,0
    28ca:	0615                	addi	a2,a2,5
    28cc:	097ed603          	lhu	a2,151(t4)
    28d0:	0002                	c.slli64	zero
    28d2:	0501                	addi	a0,a0,0
    28d4:	09010303          	lb	t1,144(sp)
    28d8:	0000                	unimp
    28da:	0501                	addi	a0,a0,0
    28dc:	0302                	c.slli64	t1
    28de:	0901                	addi	s2,s2,0
    28e0:	0000                	unimp
    28e2:	0501                	addi	a0,a0,0
    28e4:	060c                	addi	a1,sp,768
    28e6:	00090003          	lb	zero,0(s2)
    28ea:	0100                	addi	s0,sp,128
    28ec:	0105                	addi	sp,sp,1
    28ee:	0a090103          	lb	sp,160(s2)
    28f2:	0100                	addi	s0,sp,128
    28f4:	1705                	addi	a4,a4,-31
    28f6:	0306                	slli	t1,t1,0x1
    28f8:	0902                	c.slli64	s2
    28fa:	0002                	c.slli64	zero
    28fc:	0501                	addi	a0,a0,0
    28fe:	09010303          	lb	t1,144(sp)
    2902:	0000                	unimp
    2904:	0301                	addi	t1,t1,0
    2906:	0901                	addi	s2,s2,0
    2908:	0000                	unimp
    290a:	0501                	addi	a0,a0,0
    290c:	0302                	c.slli64	t1
    290e:	0902                	c.slli64	s2
    2910:	0000                	unimp
    2912:	0501                	addi	a0,a0,0
    2914:	0402000b          	.insn	4, 0x0402000b
    2918:	0601                	addi	a2,a2,0
    291a:	00090003          	lb	zero,0(s2)
    291e:	0100                	addi	s0,sp,128
    2920:	0905                	addi	s2,s2,1
    2922:	0200                	addi	s0,sp,256
    2924:	0104                	addi	s1,sp,128
    2926:	0306                	slli	t1,t1,0x1
    2928:	0900                	addi	s0,sp,144
    292a:	000a                	c.slli	zero,0x2
    292c:	0501                	addi	a0,a0,0
    292e:	0402000b          	.insn	4, 0x0402000b
    2932:	0601                	addi	a2,a2,0
    2934:	00090003          	lb	zero,0(s2)
    2938:	0100                	addi	s0,sp,128
    293a:	0905                	addi	s2,s2,1
    293c:	0200                	addi	s0,sp,256
    293e:	0104                	addi	s1,sp,128
    2940:	04090003          	lb	zero,64(s2)
    2944:	0100                	addi	s0,sp,128
    2946:	0205                	addi	tp,tp,1 # 1 <_start-0x7fffffff>
    2948:	0306                	slli	t1,t1,0x1
    294a:	0901                	addi	s2,s2,0
    294c:	0006                	c.slli	zero,0x1
    294e:	0501                	addi	a0,a0,0
    2950:	060c                	addi	a1,sp,768
    2952:	00090003          	lb	zero,0(s2)
    2956:	0100                	addi	s0,sp,128
    2958:	0105                	addi	sp,sp,1
    295a:	04090103          	lb	sp,64(s2)
    295e:	0100                	addi	s0,sp,128
    2960:	1805                	addi	a6,a6,-31
    2962:	0306                	slli	t1,t1,0x1
    2964:	0902                	c.slli64	s2
    2966:	0002                	c.slli64	zero
    2968:	0501                	addi	a0,a0,0
    296a:	09010303          	lb	t1,144(sp)
    296e:	0000                	unimp
    2970:	0301                	addi	t1,t1,0
    2972:	0901                	addi	s2,s2,0
    2974:	0000                	unimp
    2976:	0501                	addi	a0,a0,0
    2978:	0302                	c.slli64	t1
    297a:	0902                	c.slli64	s2
    297c:	0000                	unimp
    297e:	0501                	addi	a0,a0,0
    2980:	0402000b          	.insn	4, 0x0402000b
    2984:	0601                	addi	a2,a2,0
    2986:	00090003          	lb	zero,0(s2)
    298a:	0100                	addi	s0,sp,128
    298c:	0905                	addi	s2,s2,1
    298e:	0200                	addi	s0,sp,256
    2990:	0104                	addi	s1,sp,128
    2992:	0306                	slli	t1,t1,0x1
    2994:	0900                	addi	s0,sp,144
    2996:	000a                	c.slli	zero,0x2
    2998:	0501                	addi	a0,a0,0
    299a:	0402000b          	.insn	4, 0x0402000b
    299e:	0601                	addi	a2,a2,0
    29a0:	00090003          	lb	zero,0(s2)
    29a4:	0100                	addi	s0,sp,128
    29a6:	0905                	addi	s2,s2,1
    29a8:	0200                	addi	s0,sp,256
    29aa:	0104                	addi	s1,sp,128
    29ac:	04090003          	lb	zero,64(s2)
    29b0:	0100                	addi	s0,sp,128
    29b2:	0205                	addi	tp,tp,1 # 1 <_start-0x7fffffff>
    29b4:	0306                	slli	t1,t1,0x1
    29b6:	0901                	addi	s2,s2,0
    29b8:	0004                	.insn	2, 0x0004
    29ba:	0501                	addi	a0,a0,0
    29bc:	0609                	addi	a2,a2,2
    29be:	00090003          	lb	zero,0(s2)
    29c2:	0100                	addi	s0,sp,128
    29c4:	0105                	addi	sp,sp,1
    29c6:	04090103          	lb	sp,64(s2)
    29ca:	0100                	addi	s0,sp,128
    29cc:	2205                	addiw	tp,tp,1 # 1 <_start-0x7fffffff>
    29ce:	0306                	slli	t1,t1,0x1
    29d0:	0902                	c.slli64	s2
    29d2:	0002                	c.slli64	zero
    29d4:	0501                	addi	a0,a0,0
    29d6:	0305                	addi	t1,t1,1
    29d8:	0901                	addi	s2,s2,0
    29da:	0000                	unimp
    29dc:	0501                	addi	a0,a0,0
    29de:	030c                	addi	a1,sp,384
    29e0:	0900                	addi	s0,sp,144
    29e2:	0000                	unimp
    29e4:	0501                	addi	a0,a0,0
    29e6:	0402000b          	.insn	4, 0x0402000b
    29ea:	0601                	addi	a2,a2,0
    29ec:	06097303          	.insn	4, 0x06097303
    29f0:	0100                	addi	s0,sp,128
    29f2:	0905                	addi	s2,s2,1
    29f4:	0306                	slli	t1,t1,0x1
    29f6:	090e                	slli	s2,s2,0x3
    29f8:	000a                	c.slli	zero,0x2
    29fa:	0501                	addi	a0,a0,0
    29fc:	0616                	slli	a2,a2,0x5
    29fe:	00090003          	lb	zero,0(s2)
    2a02:	0100                	addi	s0,sp,128
    2a04:	0305                	addi	t1,t1,1
    2a06:	0306                	slli	t1,t1,0x1
    2a08:	0002096f          	jal	s2,22a08 <_start-0x7ffdd5f8>
    2a0c:	0301                	addi	t1,t1,0
    2a0e:	0901                	addi	s2,s2,0
    2a10:	0000                	unimp
    2a12:	0501                	addi	a0,a0,0
    2a14:	0302                	c.slli64	t1
    2a16:	0902                	c.slli64	s2
    2a18:	0000                	unimp
    2a1a:	0501                	addi	a0,a0,0
    2a1c:	0009                	c.nop	2
    2a1e:	0402                	c.slli64	s0
    2a20:	0301                	addi	t1,t1,0
    2a22:	0900                	addi	s0,sp,144
    2a24:	0000                	unimp
    2a26:	0501                	addi	a0,a0,0
    2a28:	0402000b          	.insn	4, 0x0402000b
    2a2c:	0601                	addi	a2,a2,0
    2a2e:	00090003          	lb	zero,0(s2)
    2a32:	0100                	addi	s0,sp,128
    2a34:	0905                	addi	s2,s2,1
    2a36:	0200                	addi	s0,sp,256
    2a38:	0104                	addi	s1,sp,128
    2a3a:	04090003          	lb	zero,64(s2)
    2a3e:	0100                	addi	s0,sp,128
    2a40:	0205                	addi	tp,tp,1 # 1 <_start-0x7fffffff>
    2a42:	0306                	slli	t1,t1,0x1
    2a44:	0901                	addi	s2,s2,0
    2a46:	0006                	c.slli	zero,0x1
    2a48:	0501                	addi	a0,a0,0
    2a4a:	060c                	addi	a1,sp,768
    2a4c:	00090003          	lb	zero,0(s2)
    2a50:	0100                	addi	s0,sp,128
    2a52:	0306                	slli	t1,t1,0x1
    2a54:	090c                	addi	a1,sp,144
    2a56:	0004                	.insn	2, 0x0004
    2a58:	0501                	addi	a0,a0,0
    2a5a:	0601                	addi	a2,a2,0
    2a5c:	06090303          	lb	t1,96(s2)
    2a60:	0100                	addi	s0,sp,128
    2a62:	0306                	slli	t1,t1,0x1
    2a64:	091d                	addi	s2,s2,7
    2a66:	0002                	c.slli64	zero
    2a68:	0501                	addi	a0,a0,0
    2a6a:	09010303          	lb	t1,144(sp)
    2a6e:	0000                	unimp
    2a70:	0301                	addi	t1,t1,0
    2a72:	0908                	addi	a0,sp,144
    2a74:	0000                	unimp
    2a76:	0301                	addi	t1,t1,0
    2a78:	0900                	addi	s0,sp,144
    2a7a:	0000                	unimp
    2a7c:	0001                	nop
    2a7e:	0402                	c.slli64	s0
    2a80:	0301                	addi	t1,t1,0
    2a82:	0900                	addi	s0,sp,144
    2a84:	0000                	unimp
    2a86:	0001                	nop
    2a88:	0402                	c.slli64	s0
    2a8a:	0302                	c.slli64	t1
    2a8c:	0900                	addi	s0,sp,144
    2a8e:	0000                	unimp
    2a90:	0001                	nop
    2a92:	0402                	c.slli64	s0
    2a94:	0302                	c.slli64	t1
    2a96:	0900                	addi	s0,sp,144
    2a98:	0000                	unimp
    2a9a:	0001                	nop
    2a9c:	0402                	c.slli64	s0
    2a9e:	0302                	c.slli64	t1
    2aa0:	0900                	addi	s0,sp,144
    2aa2:	0000                	unimp
    2aa4:	0301                	addi	t1,t1,0
    2aa6:	0900                	addi	s0,sp,144
    2aa8:	0004                	.insn	2, 0x0004
    2aaa:	0301                	addi	t1,t1,0
    2aac:	0900                	addi	s0,sp,144
    2aae:	0000                	unimp
    2ab0:	0001                	nop
    2ab2:	0402                	c.slli64	s0
    2ab4:	00030603          	lb	a2,0(t1)
    2ab8:	0009                	c.nop	2
    2aba:	0100                	addi	s0,sp,128
    2abc:	0200                	addi	s0,sp,256
    2abe:	0204                	addi	s1,sp,256
    2ac0:	04090003          	lb	zero,64(s2)
    2ac4:	0100                	addi	s0,sp,128
    2ac6:	0200                	addi	s0,sp,256
    2ac8:	0504                	addi	s1,sp,640
    2aca:	0306                	slli	t1,t1,0x1
    2acc:	0900                	addi	s0,sp,144
    2ace:	0002                	c.slli64	zero
    2ad0:	0301                	addi	t1,t1,0
    2ad2:	0900                	addi	s0,sp,144
    2ad4:	0002                	c.slli64	zero
    2ad6:	0301                	addi	t1,t1,0
    2ad8:	0901                	addi	s2,s2,0
    2ada:	0000                	unimp
    2adc:	0301                	addi	t1,t1,0
    2ade:	0900                	addi	s0,sp,144
    2ae0:	0000                	unimp
    2ae2:	0001                	nop
    2ae4:	0402                	c.slli64	s0
    2ae6:	0301                	addi	t1,t1,0
    2ae8:	0900                	addi	s0,sp,144
    2aea:	0000                	unimp
    2aec:	0001                	nop
    2aee:	0402                	c.slli64	s0
    2af0:	0302                	c.slli64	t1
    2af2:	0900                	addi	s0,sp,144
    2af4:	0000                	unimp
    2af6:	0001                	nop
    2af8:	0402                	c.slli64	s0
    2afa:	0302                	c.slli64	t1
    2afc:	0900                	addi	s0,sp,144
    2afe:	0000                	unimp
    2b00:	0001                	nop
    2b02:	0402                	c.slli64	s0
    2b04:	0302                	c.slli64	t1
    2b06:	0900                	addi	s0,sp,144
    2b08:	0000                	unimp
    2b0a:	0301                	addi	t1,t1,0
    2b0c:	0900                	addi	s0,sp,144
    2b0e:	0004                	.insn	2, 0x0004
    2b10:	0301                	addi	t1,t1,0
    2b12:	0900                	addi	s0,sp,144
    2b14:	0000                	unimp
    2b16:	0001                	nop
    2b18:	0402                	c.slli64	s0
    2b1a:	0305                	addi	t1,t1,1
    2b1c:	0900                	addi	s0,sp,144
    2b1e:	0000                	unimp
    2b20:	0301                	addi	t1,t1,0
    2b22:	0900                	addi	s0,sp,144
    2b24:	0002                	c.slli64	zero
    2b26:	0501                	addi	a0,a0,0
    2b28:	0601                	addi	a2,a2,0
    2b2a:	00090303          	lb	t1,0(s2)
    2b2e:	0100                	addi	s0,sp,128
    2b30:	0305                	addi	t1,t1,1
    2b32:	0200                	addi	s0,sp,256
    2b34:	0304                	addi	s1,sp,384
    2b36:	0306                	slli	t1,t1,0x1
    2b38:	097c                	addi	a5,sp,156
    2b3a:	0002                	c.slli64	zero
    2b3c:	0301                	addi	t1,t1,0
    2b3e:	0900                	addi	s0,sp,144
    2b40:	000e                	c.slli	zero,0x3
    2b42:	0001                	nop
    2b44:	0402                	c.slli64	s0
    2b46:	0305                	addi	t1,t1,1
    2b48:	0900                	addi	s0,sp,144
    2b4a:	0000                	unimp
    2b4c:	0301                	addi	t1,t1,0
    2b4e:	0900                	addi	s0,sp,144
    2b50:	0002                	c.slli64	zero
    2b52:	0301                	addi	t1,t1,0
    2b54:	0901                	addi	s2,s2,0
    2b56:	0000                	unimp
    2b58:	0301                	addi	t1,t1,0
    2b5a:	0900                	addi	s0,sp,144
    2b5c:	0000                	unimp
    2b5e:	0001                	nop
    2b60:	0402                	c.slli64	s0
    2b62:	0301                	addi	t1,t1,0
    2b64:	0900                	addi	s0,sp,144
    2b66:	0000                	unimp
    2b68:	0001                	nop
    2b6a:	0402                	c.slli64	s0
    2b6c:	0302                	c.slli64	t1
    2b6e:	0900                	addi	s0,sp,144
    2b70:	0000                	unimp
    2b72:	0001                	nop
    2b74:	0402                	c.slli64	s0
    2b76:	0302                	c.slli64	t1
    2b78:	0900                	addi	s0,sp,144
    2b7a:	0000                	unimp
    2b7c:	0001                	nop
    2b7e:	0402                	c.slli64	s0
    2b80:	0302                	c.slli64	t1
    2b82:	0900                	addi	s0,sp,144
    2b84:	0000                	unimp
    2b86:	0301                	addi	t1,t1,0
    2b88:	0900                	addi	s0,sp,144
    2b8a:	0004                	.insn	2, 0x0004
    2b8c:	0301                	addi	t1,t1,0
    2b8e:	0900                	addi	s0,sp,144
    2b90:	0000                	unimp
    2b92:	0001                	nop
    2b94:	0402                	c.slli64	s0
    2b96:	09000303          	lb	t1,144(zero) # 90 <_start-0x7fffff70>
    2b9a:	0000                	unimp
    2b9c:	0301                	addi	t1,t1,0
    2b9e:	0900                	addi	s0,sp,144
    2ba0:	000e                	c.slli	zero,0x3
    2ba2:	0001                	nop
    2ba4:	0402                	c.slli64	s0
    2ba6:	0305                	addi	t1,t1,1
    2ba8:	0900                	addi	s0,sp,144
    2baa:	0000                	unimp
    2bac:	0301                	addi	t1,t1,0
    2bae:	0900                	addi	s0,sp,144
    2bb0:	0002                	c.slli64	zero
    2bb2:	0501                	addi	a0,a0,0
    2bb4:	0601                	addi	a2,a2,0
    2bb6:	00090303          	lb	t1,0(s2)
    2bba:	0100                	addi	s0,sp,128
    2bbc:	0306                	slli	t1,t1,0x1
    2bbe:	00020903          	lb	s2,0(tp) # 0 <_start-0x80000000>
    2bc2:	0501                	addi	a0,a0,0
    2bc4:	09010303          	lb	t1,144(sp)
    2bc8:	0000                	unimp
    2bca:	0501                	addi	a0,a0,0
    2bcc:	0612                	slli	a2,a2,0x4
    2bce:	00090003          	lb	zero,0(s2)
    2bd2:	0100                	addi	s0,sp,128
    2bd4:	1805                	addi	a6,a6,-31
    2bd6:	04090003          	lb	zero,64(s2)
    2bda:	0100                	addi	s0,sp,128
    2bdc:	0a05                	addi	s4,s4,1
    2bde:	04090003          	lb	zero,64(s2)
    2be2:	0100                	addi	s0,sp,128
    2be4:	0305                	addi	t1,t1,1
    2be6:	0306                	slli	t1,t1,0x1
    2be8:	0901                	addi	s2,s2,0
    2bea:	0008                	.insn	2, 0x0008
    2bec:	0501                	addi	a0,a0,0
    2bee:	0309                	addi	t1,t1,2
    2bf0:	0900                	addi	s0,sp,144
    2bf2:	0000                	unimp
    2bf4:	0501                	addi	a0,a0,0
    2bf6:	09000303          	lb	t1,144(zero) # 90 <_start-0x7fffff70>
    2bfa:	0000                	unimp
    2bfc:	0501                	addi	a0,a0,0
    2bfe:	0309                	addi	t1,t1,2
    2c00:	0900                	addi	s0,sp,144
    2c02:	0000                	unimp
    2c04:	0501                	addi	a0,a0,0
    2c06:	0301                	addi	t1,t1,0
    2c08:	0904                	addi	s1,sp,144
    2c0a:	0002                	c.slli64	zero
    2c0c:	0501                	addi	a0,a0,0
    2c0e:	09010303          	lb	t1,144(sp)
    2c12:	0000                	unimp
    2c14:	0301                	addi	t1,t1,0
    2c16:	097a                	slli	s2,s2,0x1e
    2c18:	0000                	unimp
    2c1a:	0501                	addi	a0,a0,0
    2c1c:	060a                	slli	a2,a2,0x2
    2c1e:	00090003          	lb	zero,0(s2)
    2c22:	0100                	addi	s0,sp,128
    2c24:	0305                	addi	t1,t1,1
    2c26:	0306                	slli	t1,t1,0x1
    2c28:	0901                	addi	s2,s2,0
    2c2a:	000e                	c.slli	zero,0x3
    2c2c:	0501                	addi	a0,a0,0
    2c2e:	0309                	addi	t1,t1,2
    2c30:	0900                	addi	s0,sp,144
    2c32:	0000                	unimp
    2c34:	0501                	addi	a0,a0,0
    2c36:	09000303          	lb	t1,144(zero) # 90 <_start-0x7fffff70>
    2c3a:	0000                	unimp
    2c3c:	0501                	addi	a0,a0,0
    2c3e:	0309                	addi	t1,t1,2
    2c40:	0900                	addi	s0,sp,144
    2c42:	0000                	unimp
    2c44:	0501                	addi	a0,a0,0
    2c46:	0301                	addi	t1,t1,0
    2c48:	0909                	addi	s2,s2,2
    2c4a:	0002                	c.slli64	zero
    2c4c:	0501                	addi	a0,a0,0
    2c4e:	09010303          	lb	t1,144(sp)
    2c52:	0000                	unimp
    2c54:	0501                	addi	a0,a0,0
    2c56:	0601                	addi	a2,a2,0
    2c58:	00097f03          	.insn	4, 0x00097f03
    2c5c:	0100                	addi	s0,sp,128
    2c5e:	0305                	addi	t1,t1,1
    2c60:	04090103          	lb	sp,64(s2)
    2c64:	0100                	addi	s0,sp,128
    2c66:	0105                	addi	sp,sp,1
    2c68:	0306                	slli	t1,t1,0x1
    2c6a:	0904                	addi	s1,sp,144
    2c6c:	0004                	.insn	2, 0x0004
    2c6e:	0501                	addi	a0,a0,0
    2c70:	09010303          	lb	t1,144(sp)
    2c74:	0000                	unimp
    2c76:	0301                	addi	t1,t1,0
    2c78:	0000097b          	.insn	4, 0x097b
    2c7c:	0301                	addi	t1,t1,0
    2c7e:	0975                	addi	s2,s2,29
    2c80:	0000                	unimp
    2c82:	0501                	addi	a0,a0,0
    2c84:	060a                	slli	a2,a2,0x2
    2c86:	00090003          	lb	zero,0(s2)
    2c8a:	0100                	addi	s0,sp,128
    2c8c:	0305                	addi	t1,t1,1
    2c8e:	0306                	slli	t1,t1,0x1
    2c90:	0901                	addi	s2,s2,0
    2c92:	000c                	.insn	2, 0x000c
    2c94:	0501                	addi	a0,a0,0
    2c96:	0309                	addi	t1,t1,2
    2c98:	0900                	addi	s0,sp,144
    2c9a:	0000                	unimp
    2c9c:	0501                	addi	a0,a0,0
    2c9e:	09000303          	lb	t1,144(zero) # 90 <_start-0x7fffff70>
    2ca2:	0000                	unimp
    2ca4:	0501                	addi	a0,a0,0
    2ca6:	0309                	addi	t1,t1,2
    2ca8:	0900                	addi	s0,sp,144
    2caa:	0000                	unimp
    2cac:	0501                	addi	a0,a0,0
    2cae:	0301                	addi	t1,t1,0
    2cb0:	00020913          	mv	s2,tp
    2cb4:	0501                	addi	a0,a0,0
    2cb6:	09040303          	lb	t1,144(s0)
    2cba:	0000                	unimp
    2cbc:	0501                	addi	a0,a0,0
    2cbe:	0305                	addi	t1,t1,1
    2cc0:	00097fb7          	lui	t6,0x97
    2cc4:	0100                	addi	s0,sp,128
    2cc6:	0c05                	addi	s8,s8,1
    2cc8:	00090003          	lb	zero,0(s2)
    2ccc:	0100                	addi	s0,sp,128
    2cce:	0b05                	addi	s6,s6,1
    2cd0:	0200                	addi	s0,sp,256
    2cd2:	0104                	addi	s1,sp,128
    2cd4:	0306                	slli	t1,t1,0x1
    2cd6:	00060973          	.insn	4, 0x00060973
    2cda:	0501                	addi	a0,a0,0
    2cdc:	0609                	addi	a2,a2,2
    2cde:	0a090e03          	lb	t3,160(s2)
    2ce2:	0100                	addi	s0,sp,128
    2ce4:	1605                	addi	a2,a2,-31
    2ce6:	0306                	slli	t1,t1,0x1
    2ce8:	0900                	addi	s0,sp,144
    2cea:	0000                	unimp
    2cec:	0501                	addi	a0,a0,0
    2cee:	6f030603          	lb	a2,1776(t1)
    2cf2:	0209                	addi	tp,tp,2 # 2 <_start-0x7ffffffe>
    2cf4:	0100                	addi	s0,sp,128
    2cf6:	00090103          	lb	sp,0(s2)
    2cfa:	0100                	addi	s0,sp,128
    2cfc:	0205                	addi	tp,tp,1 # 1 <_start-0x7fffffff>
    2cfe:	00090203          	lb	tp,0(s2)
    2d02:	0100                	addi	s0,sp,128
    2d04:	0905                	addi	s2,s2,1
    2d06:	0200                	addi	s0,sp,256
    2d08:	0104                	addi	s1,sp,128
    2d0a:	00090003          	lb	zero,0(s2)
    2d0e:	0100                	addi	s0,sp,128
    2d10:	0b05                	addi	s6,s6,1
    2d12:	0200                	addi	s0,sp,256
    2d14:	0104                	addi	s1,sp,128
    2d16:	0306                	slli	t1,t1,0x1
    2d18:	0900                	addi	s0,sp,144
    2d1a:	0000                	unimp
    2d1c:	0501                	addi	a0,a0,0
    2d1e:	0009                	c.nop	2
    2d20:	0402                	c.slli64	s0
    2d22:	0301                	addi	t1,t1,0
    2d24:	0900                	addi	s0,sp,144
    2d26:	0004                	.insn	2, 0x0004
    2d28:	0501                	addi	a0,a0,0
    2d2a:	0602                	c.slli64	a2
    2d2c:	06090103          	lb	sp,96(s2)
    2d30:	0100                	addi	s0,sp,128
    2d32:	0c05                	addi	s8,s8,1
    2d34:	0306                	slli	t1,t1,0x1
    2d36:	0900                	addi	s0,sp,144
    2d38:	0000                	unimp
    2d3a:	0601                	addi	a2,a2,0
    2d3c:	04090c03          	lb	s8,64(s2)
    2d40:	0100                	addi	s0,sp,128
    2d42:	0105                	addi	sp,sp,1
    2d44:	0306                	slli	t1,t1,0x1
    2d46:	00ca                	slli	ra,ra,0x12
    2d48:	0609                	addi	a2,a2,2
    2d4a:	0100                	addi	s0,sp,128
    2d4c:	0306                	slli	t1,t1,0x1
    2d4e:	0906                	slli	s2,s2,0x1
    2d50:	0002                	c.slli64	zero
    2d52:	0501                	addi	a0,a0,0
    2d54:	09010303          	lb	t1,144(sp)
    2d58:	0000                	unimp
    2d5a:	0301                	addi	t1,t1,0
    2d5c:	0978                	addi	a4,sp,156
    2d5e:	0000                	unimp
    2d60:	0501                	addi	a0,a0,0
    2d62:	0305                	addi	t1,t1,1
    2d64:	00097fb7          	lui	t6,0x97
    2d68:	0100                	addi	s0,sp,128
    2d6a:	0c05                	addi	s8,s8,1
    2d6c:	00090003          	lb	zero,0(s2)
    2d70:	0100                	addi	s0,sp,128
    2d72:	0b05                	addi	s6,s6,1
    2d74:	0200                	addi	s0,sp,256
    2d76:	0104                	addi	s1,sp,128
    2d78:	0306                	slli	t1,t1,0x1
    2d7a:	00060973          	.insn	4, 0x00060973
    2d7e:	0501                	addi	a0,a0,0
    2d80:	0609                	addi	a2,a2,2
    2d82:	0a090e03          	lb	t3,160(s2)
    2d86:	0100                	addi	s0,sp,128
    2d88:	1605                	addi	a2,a2,-31
    2d8a:	0306                	slli	t1,t1,0x1
    2d8c:	0900                	addi	s0,sp,144
    2d8e:	0000                	unimp
    2d90:	0501                	addi	a0,a0,0
    2d92:	6f030603          	lb	a2,1776(t1)
    2d96:	0209                	addi	tp,tp,2 # 2 <_start-0x7ffffffe>
    2d98:	0100                	addi	s0,sp,128
    2d9a:	00090103          	lb	sp,0(s2)
    2d9e:	0100                	addi	s0,sp,128
    2da0:	0205                	addi	tp,tp,1 # 1 <_start-0x7fffffff>
    2da2:	00090203          	lb	tp,0(s2)
    2da6:	0100                	addi	s0,sp,128
    2da8:	0905                	addi	s2,s2,1
    2daa:	0200                	addi	s0,sp,256
    2dac:	0104                	addi	s1,sp,128
    2dae:	00090003          	lb	zero,0(s2)
    2db2:	0100                	addi	s0,sp,128
    2db4:	0b05                	addi	s6,s6,1
    2db6:	0200                	addi	s0,sp,256
    2db8:	0104                	addi	s1,sp,128
    2dba:	0306                	slli	t1,t1,0x1
    2dbc:	0900                	addi	s0,sp,144
    2dbe:	0000                	unimp
    2dc0:	0501                	addi	a0,a0,0
    2dc2:	0009                	c.nop	2
    2dc4:	0402                	c.slli64	s0
    2dc6:	0301                	addi	t1,t1,0
    2dc8:	0900                	addi	s0,sp,144
    2dca:	0004                	.insn	2, 0x0004
    2dcc:	0501                	addi	a0,a0,0
    2dce:	0602                	c.slli64	a2
    2dd0:	06090103          	lb	sp,96(s2)
    2dd4:	0100                	addi	s0,sp,128
    2dd6:	0c05                	addi	s8,s8,1
    2dd8:	0306                	slli	t1,t1,0x1
    2dda:	0900                	addi	s0,sp,144
    2ddc:	0000                	unimp
    2dde:	0601                	addi	a2,a2,0
    2de0:	04090c03          	lb	s8,64(s2)
    2de4:	0100                	addi	s0,sp,128
    2de6:	0305                	addi	t1,t1,1
    2de8:	0900d203          	lhu	tp,144(ra)
    2dec:	0006                	c.slli	zero,0x1
    2dee:	0501                	addi	a0,a0,0
    2df0:	0601                	addi	a2,a2,0
    2df2:	00090103          	lb	sp,0(s2)
    2df6:	0100                	addi	s0,sp,128
    2df8:	0306                	slli	t1,t1,0x1
    2dfa:	00040903          	lb	s2,0(s0)
    2dfe:	0501                	addi	a0,a0,0
    2e00:	09030303          	lb	t1,144(t1)
    2e04:	0000                	unimp
    2e06:	0501                	addi	a0,a0,0
    2e08:	000e                	c.slli	zero,0x3
    2e0a:	0402                	c.slli64	s0
    2e0c:	0301                	addi	t1,t1,0
    2e0e:	0900                	addi	s0,sp,144
    2e10:	0000                	unimp
    2e12:	0501                	addi	a0,a0,0
    2e14:	0601                	addi	a2,a2,0
    2e16:	02090103          	lb	sp,32(s2)
    2e1a:	0100                	addi	s0,sp,128
    2e1c:	0e05                	addi	t3,t3,1
    2e1e:	0200                	addi	s0,sp,256
    2e20:	0104                	addi	s1,sp,128
    2e22:	0306                	slli	t1,t1,0x1
    2e24:	097f 0002 0001 0402 	.insn	10, 0x0301040200010002097f
    2e2c:	0301 
    2e2e:	0900                	addi	s0,sp,144
    2e30:	0000                	unimp
    2e32:	0501                	addi	a0,a0,0
    2e34:	0301                	addi	t1,t1,0
    2e36:	0002093f 03030501 	.insn	8, 0x030305010002093f
    2e3e:	0901                	addi	s2,s2,0
    2e40:	0000                	unimp
    2e42:	0301                	addi	t1,t1,0
    2e44:	0901                	addi	s2,s2,0
    2e46:	0000                	unimp
    2e48:	0301                	addi	t1,t1,0
    2e4a:	0901                	addi	s2,s2,0
    2e4c:	0000                	unimp
    2e4e:	0501                	addi	a0,a0,0
    2e50:	0011                	c.nop	4
    2e52:	0402                	c.slli64	s0
    2e54:	0301                	addi	t1,t1,0
    2e56:	0900                	addi	s0,sp,144
    2e58:	0000                	unimp
    2e5a:	0501                	addi	a0,a0,0
    2e5c:	0305                	addi	t1,t1,1
    2e5e:	0902                	c.slli64	s2
    2e60:	0000                	unimp
    2e62:	0501                	addi	a0,a0,0
    2e64:	0614                	addi	a3,sp,768
    2e66:	00090003          	lb	zero,0(s2)
    2e6a:	0100                	addi	s0,sp,128
    2e6c:	1b05                	addi	s6,s6,-31
    2e6e:	04090003          	lb	zero,64(s2)
    2e72:	0100                	addi	s0,sp,128
    2e74:	0105                	addi	sp,sp,1
    2e76:	02097b03          	.insn	4, 0x02097b03
    2e7a:	0100                	addi	s0,sp,128
    2e7c:	1405                	addi	s0,s0,-31
    2e7e:	02090503          	lb	a0,32(s2)
    2e82:	0100                	addi	s0,sp,128
    2e84:	1b05                	addi	s6,s6,-31
    2e86:	0200                	addi	s0,sp,256
    2e88:	0104                	addi	s1,sp,128
    2e8a:	02090003          	lb	zero,32(s2)
    2e8e:	0100                	addi	s0,sp,128
    2e90:	04090003          	lb	zero,64(s2)
    2e94:	0100                	addi	s0,sp,128
    2e96:	0200                	addi	s0,sp,256
    2e98:	0404                	addi	s1,sp,512
    2e9a:	08090003          	lb	zero,128(s2)
    2e9e:	0100                	addi	s0,sp,128
    2ea0:	0705                	addi	a4,a4,1
    2ea2:	02090103          	lb	sp,32(s2)
    2ea6:	0100                	addi	s0,sp,128
    2ea8:	0f05                	addi	t5,t5,1
    2eaa:	0200                	addi	s0,sp,256
    2eac:	0404                	addi	s1,sp,512
    2eae:	04097f03          	.insn	4, 0x04097f03
    2eb2:	0100                	addi	s0,sp,128
    2eb4:	0505                	addi	a0,a0,1
    2eb6:	0306                	slli	t1,t1,0x1
    2eb8:	0901                	addi	s2,s2,0
    2eba:	0004                	.insn	2, 0x0004
    2ebc:	0501                	addi	a0,a0,0
    2ebe:	0018                	.insn	2, 0x0018
    2ec0:	0402                	c.slli64	s0
    2ec2:	0302                	c.slli64	t1
    2ec4:	097d                	addi	s2,s2,31
    2ec6:	0000                	unimp
    2ec8:	0501                	addi	a0,a0,0
    2eca:	0011                	c.nop	4
    2ecc:	0402                	c.slli64	s0
    2ece:	0301                	addi	t1,t1,0
    2ed0:	0900                	addi	s0,sp,144
    2ed2:	0000                	unimp
    2ed4:	0501                	addi	a0,a0,0
    2ed6:	0305                	addi	t1,t1,1
    2ed8:	0902                	c.slli64	s2
    2eda:	0000                	unimp
    2edc:	0501                	addi	a0,a0,0
    2ede:	0614                	addi	a3,sp,768
    2ee0:	00090003          	lb	zero,0(s2)
    2ee4:	0100                	addi	s0,sp,128
    2ee6:	1b05                	addi	s6,s6,-31
    2ee8:	04090003          	lb	zero,64(s2)
    2eec:	0100                	addi	s0,sp,128
    2eee:	1405                	addi	s0,s0,-31
    2ef0:	02090003          	lb	zero,32(s2)
    2ef4:	0100                	addi	s0,sp,128
    2ef6:	1b05                	addi	s6,s6,-31
    2ef8:	0200                	addi	s0,sp,256
    2efa:	0204                	addi	s1,sp,256
    2efc:	02090003          	lb	zero,32(s2)
    2f00:	0100                	addi	s0,sp,128
    2f02:	04090003          	lb	zero,64(s2)
    2f06:	0100                	addi	s0,sp,128
    2f08:	0200                	addi	s0,sp,256
    2f0a:	0104                	addi	s1,sp,128
    2f0c:	04090003          	lb	zero,64(s2)
    2f10:	0100                	addi	s0,sp,128
    2f12:	0200                	addi	s0,sp,256
    2f14:	0404                	addi	s1,sp,512
    2f16:	04090003          	lb	zero,64(s2)
    2f1a:	0100                	addi	s0,sp,128
    2f1c:	0705                	addi	a4,a4,1
    2f1e:	02090103          	lb	sp,32(s2)
    2f22:	0100                	addi	s0,sp,128
    2f24:	0f05                	addi	t5,t5,1
    2f26:	0200                	addi	s0,sp,256
    2f28:	0404                	addi	s1,sp,512
    2f2a:	04097f03          	.insn	4, 0x04097f03
    2f2e:	0100                	addi	s0,sp,128
    2f30:	0505                	addi	a0,a0,1
    2f32:	0306                	slli	t1,t1,0x1
    2f34:	0901                	addi	s2,s2,0
    2f36:	0004                	.insn	2, 0x0004
    2f38:	0501                	addi	a0,a0,0
    2f3a:	0018                	.insn	2, 0x0018
    2f3c:	0402                	c.slli64	s0
    2f3e:	0302                	c.slli64	t1
    2f40:	097d                	addi	s2,s2,31
    2f42:	0000                	unimp
    2f44:	0501                	addi	a0,a0,0
    2f46:	0011                	c.nop	4
    2f48:	0402                	c.slli64	s0
    2f4a:	0301                	addi	t1,t1,0
    2f4c:	0900                	addi	s0,sp,144
    2f4e:	0000                	unimp
    2f50:	0501                	addi	a0,a0,0
    2f52:	0305                	addi	t1,t1,1
    2f54:	0902                	c.slli64	s2
    2f56:	0000                	unimp
    2f58:	0501                	addi	a0,a0,0
    2f5a:	0614                	addi	a3,sp,768
    2f5c:	00090003          	lb	zero,0(s2)
    2f60:	0100                	addi	s0,sp,128
    2f62:	1b05                	addi	s6,s6,-31
    2f64:	04090003          	lb	zero,64(s2)
    2f68:	0100                	addi	s0,sp,128
    2f6a:	1405                	addi	s0,s0,-31
    2f6c:	02090003          	lb	zero,32(s2)
    2f70:	0100                	addi	s0,sp,128
    2f72:	1b05                	addi	s6,s6,-31
    2f74:	0200                	addi	s0,sp,256
    2f76:	0204                	addi	s1,sp,256
    2f78:	02090003          	lb	zero,32(s2)
    2f7c:	0100                	addi	s0,sp,128
    2f7e:	04090003          	lb	zero,64(s2)
    2f82:	0100                	addi	s0,sp,128
    2f84:	0200                	addi	s0,sp,256
    2f86:	0104                	addi	s1,sp,128
    2f88:	04090003          	lb	zero,64(s2)
    2f8c:	0100                	addi	s0,sp,128
    2f8e:	0200                	addi	s0,sp,256
    2f90:	0404                	addi	s1,sp,512
    2f92:	04090003          	lb	zero,64(s2)
    2f96:	0100                	addi	s0,sp,128
    2f98:	0705                	addi	a4,a4,1
    2f9a:	02090103          	lb	sp,32(s2)
    2f9e:	0100                	addi	s0,sp,128
    2fa0:	0f05                	addi	t5,t5,1
    2fa2:	0200                	addi	s0,sp,256
    2fa4:	0404                	addi	s1,sp,512
    2fa6:	04097f03          	.insn	4, 0x04097f03
    2faa:	0100                	addi	s0,sp,128
    2fac:	0505                	addi	a0,a0,1
    2fae:	0306                	slli	t1,t1,0x1
    2fb0:	0901                	addi	s2,s2,0
    2fb2:	0004                	.insn	2, 0x0004
    2fb4:	0501                	addi	a0,a0,0
    2fb6:	0018                	.insn	2, 0x0018
    2fb8:	0402                	c.slli64	s0
    2fba:	0302                	c.slli64	t1
    2fbc:	097d                	addi	s2,s2,31
    2fbe:	0000                	unimp
    2fc0:	0501                	addi	a0,a0,0
    2fc2:	0011                	c.nop	4
    2fc4:	0402                	c.slli64	s0
    2fc6:	0301                	addi	t1,t1,0
    2fc8:	0900                	addi	s0,sp,144
    2fca:	0000                	unimp
    2fcc:	0501                	addi	a0,a0,0
    2fce:	0305                	addi	t1,t1,1
    2fd0:	0902                	c.slli64	s2
    2fd2:	0000                	unimp
    2fd4:	0501                	addi	a0,a0,0
    2fd6:	0614                	addi	a3,sp,768
    2fd8:	00090003          	lb	zero,0(s2)
    2fdc:	0100                	addi	s0,sp,128
    2fde:	1b05                	addi	s6,s6,-31
    2fe0:	04090003          	lb	zero,64(s2)
    2fe4:	0100                	addi	s0,sp,128
    2fe6:	1405                	addi	s0,s0,-31
    2fe8:	02090003          	lb	zero,32(s2)
    2fec:	0100                	addi	s0,sp,128
    2fee:	1b05                	addi	s6,s6,-31
    2ff0:	0200                	addi	s0,sp,256
    2ff2:	0204                	addi	s1,sp,256
    2ff4:	02090003          	lb	zero,32(s2)
    2ff8:	0100                	addi	s0,sp,128
    2ffa:	04090003          	lb	zero,64(s2)
    2ffe:	0100                	addi	s0,sp,128
    3000:	0200                	addi	s0,sp,256
    3002:	0104                	addi	s1,sp,128
    3004:	04090003          	lb	zero,64(s2)
    3008:	0100                	addi	s0,sp,128
    300a:	0200                	addi	s0,sp,256
    300c:	0404                	addi	s1,sp,512
    300e:	04090003          	lb	zero,64(s2)
    3012:	0100                	addi	s0,sp,128
    3014:	0705                	addi	a4,a4,1
    3016:	02090103          	lb	sp,32(s2)
    301a:	0100                	addi	s0,sp,128
    301c:	0f05                	addi	t5,t5,1
    301e:	0200                	addi	s0,sp,256
    3020:	0404                	addi	s1,sp,512
    3022:	04097f03          	.insn	4, 0x04097f03
    3026:	0100                	addi	s0,sp,128
    3028:	0505                	addi	a0,a0,1
    302a:	0306                	slli	t1,t1,0x1
    302c:	0901                	addi	s2,s2,0
    302e:	0004                	.insn	2, 0x0004
    3030:	0501                	addi	a0,a0,0
    3032:	0018                	.insn	2, 0x0018
    3034:	0402                	c.slli64	s0
    3036:	0302                	c.slli64	t1
    3038:	097d                	addi	s2,s2,31
    303a:	0000                	unimp
    303c:	0501                	addi	a0,a0,0
    303e:	0011                	c.nop	4
    3040:	0402                	c.slli64	s0
    3042:	0301                	addi	t1,t1,0
    3044:	0900                	addi	s0,sp,144
    3046:	0000                	unimp
    3048:	0501                	addi	a0,a0,0
    304a:	0305                	addi	t1,t1,1
    304c:	0902                	c.slli64	s2
    304e:	0000                	unimp
    3050:	0501                	addi	a0,a0,0
    3052:	0614                	addi	a3,sp,768
    3054:	00090003          	lb	zero,0(s2)
    3058:	0100                	addi	s0,sp,128
    305a:	1b05                	addi	s6,s6,-31
    305c:	04090003          	lb	zero,64(s2)
    3060:	0100                	addi	s0,sp,128
    3062:	1405                	addi	s0,s0,-31
    3064:	02090003          	lb	zero,32(s2)
    3068:	0100                	addi	s0,sp,128
    306a:	1b05                	addi	s6,s6,-31
    306c:	0200                	addi	s0,sp,256
    306e:	0204                	addi	s1,sp,256
    3070:	02090003          	lb	zero,32(s2)
    3074:	0100                	addi	s0,sp,128
    3076:	04090003          	lb	zero,64(s2)
    307a:	0100                	addi	s0,sp,128
    307c:	0200                	addi	s0,sp,256
    307e:	0104                	addi	s1,sp,128
    3080:	04090003          	lb	zero,64(s2)
    3084:	0100                	addi	s0,sp,128
    3086:	0200                	addi	s0,sp,256
    3088:	0404                	addi	s1,sp,512
    308a:	04090003          	lb	zero,64(s2)
    308e:	0100                	addi	s0,sp,128
    3090:	0705                	addi	a4,a4,1
    3092:	02090103          	lb	sp,32(s2)
    3096:	0100                	addi	s0,sp,128
    3098:	0f05                	addi	t5,t5,1
    309a:	0200                	addi	s0,sp,256
    309c:	0404                	addi	s1,sp,512
    309e:	04097f03          	.insn	4, 0x04097f03
    30a2:	0100                	addi	s0,sp,128
    30a4:	0505                	addi	a0,a0,1
    30a6:	0306                	slli	t1,t1,0x1
    30a8:	0901                	addi	s2,s2,0
    30aa:	0004                	.insn	2, 0x0004
    30ac:	0501                	addi	a0,a0,0
    30ae:	0018                	.insn	2, 0x0018
    30b0:	0402                	c.slli64	s0
    30b2:	0302                	c.slli64	t1
    30b4:	097d                	addi	s2,s2,31
    30b6:	0000                	unimp
    30b8:	0501                	addi	a0,a0,0
    30ba:	0011                	c.nop	4
    30bc:	0402                	c.slli64	s0
    30be:	0301                	addi	t1,t1,0
    30c0:	0900                	addi	s0,sp,144
    30c2:	0000                	unimp
    30c4:	0501                	addi	a0,a0,0
    30c6:	0305                	addi	t1,t1,1
    30c8:	0902                	c.slli64	s2
    30ca:	0000                	unimp
    30cc:	0501                	addi	a0,a0,0
    30ce:	0614                	addi	a3,sp,768
    30d0:	00090003          	lb	zero,0(s2)
    30d4:	0100                	addi	s0,sp,128
    30d6:	1b05                	addi	s6,s6,-31
    30d8:	04090003          	lb	zero,64(s2)
    30dc:	0100                	addi	s0,sp,128
    30de:	1405                	addi	s0,s0,-31
    30e0:	02090003          	lb	zero,32(s2)
    30e4:	0100                	addi	s0,sp,128
    30e6:	1b05                	addi	s6,s6,-31
    30e8:	0200                	addi	s0,sp,256
    30ea:	0204                	addi	s1,sp,256
    30ec:	02090003          	lb	zero,32(s2)
    30f0:	0100                	addi	s0,sp,128
    30f2:	04090003          	lb	zero,64(s2)
    30f6:	0100                	addi	s0,sp,128
    30f8:	0200                	addi	s0,sp,256
    30fa:	0104                	addi	s1,sp,128
    30fc:	04090003          	lb	zero,64(s2)
    3100:	0100                	addi	s0,sp,128
    3102:	0200                	addi	s0,sp,256
    3104:	0404                	addi	s1,sp,512
    3106:	04090003          	lb	zero,64(s2)
    310a:	0100                	addi	s0,sp,128
    310c:	0705                	addi	a4,a4,1
    310e:	02090103          	lb	sp,32(s2)
    3112:	0100                	addi	s0,sp,128
    3114:	0f05                	addi	t5,t5,1
    3116:	0200                	addi	s0,sp,256
    3118:	0404                	addi	s1,sp,512
    311a:	04097f03          	.insn	4, 0x04097f03
    311e:	0100                	addi	s0,sp,128
    3120:	0505                	addi	a0,a0,1
    3122:	0306                	slli	t1,t1,0x1
    3124:	0901                	addi	s2,s2,0
    3126:	0004                	.insn	2, 0x0004
    3128:	0501                	addi	a0,a0,0
    312a:	0018                	.insn	2, 0x0018
    312c:	0402                	c.slli64	s0
    312e:	0302                	c.slli64	t1
    3130:	097d                	addi	s2,s2,31
    3132:	0000                	unimp
    3134:	0501                	addi	a0,a0,0
    3136:	0011                	c.nop	4
    3138:	0402                	c.slli64	s0
    313a:	0301                	addi	t1,t1,0
    313c:	0900                	addi	s0,sp,144
    313e:	0000                	unimp
    3140:	0501                	addi	a0,a0,0
    3142:	0305                	addi	t1,t1,1
    3144:	0902                	c.slli64	s2
    3146:	0000                	unimp
    3148:	0501                	addi	a0,a0,0
    314a:	0614                	addi	a3,sp,768
    314c:	00090003          	lb	zero,0(s2)
    3150:	0100                	addi	s0,sp,128
    3152:	1b05                	addi	s6,s6,-31
    3154:	04090003          	lb	zero,64(s2)
    3158:	0100                	addi	s0,sp,128
    315a:	1405                	addi	s0,s0,-31
    315c:	02090003          	lb	zero,32(s2)
    3160:	0100                	addi	s0,sp,128
    3162:	1b05                	addi	s6,s6,-31
    3164:	0200                	addi	s0,sp,256
    3166:	0204                	addi	s1,sp,256
    3168:	02090003          	lb	zero,32(s2)
    316c:	0100                	addi	s0,sp,128
    316e:	04090003          	lb	zero,64(s2)
    3172:	0100                	addi	s0,sp,128
    3174:	0200                	addi	s0,sp,256
    3176:	0104                	addi	s1,sp,128
    3178:	04090003          	lb	zero,64(s2)
    317c:	0100                	addi	s0,sp,128
    317e:	0200                	addi	s0,sp,256
    3180:	0404                	addi	s1,sp,512
    3182:	04090003          	lb	zero,64(s2)
    3186:	0100                	addi	s0,sp,128
    3188:	0f05                	addi	t5,t5,1
    318a:	0200                	addi	s0,sp,256
    318c:	0404                	addi	s1,sp,512
    318e:	02090003          	lb	zero,32(s2)
    3192:	0100                	addi	s0,sp,128
    3194:	0505                	addi	a0,a0,1
    3196:	0306                	slli	t1,t1,0x1
    3198:	0901                	addi	s2,s2,0
    319a:	0004                	.insn	2, 0x0004
    319c:	0501                	addi	a0,a0,0
    319e:	0018                	.insn	2, 0x0018
    31a0:	0402                	c.slli64	s0
    31a2:	0302                	c.slli64	t1
    31a4:	097d                	addi	s2,s2,31
    31a6:	0000                	unimp
    31a8:	0501                	addi	a0,a0,0
    31aa:	0011                	c.nop	4
    31ac:	0402                	c.slli64	s0
    31ae:	0301                	addi	t1,t1,0
    31b0:	0900                	addi	s0,sp,144
    31b2:	0000                	unimp
    31b4:	0501                	addi	a0,a0,0
    31b6:	0305                	addi	t1,t1,1
    31b8:	0902                	c.slli64	s2
    31ba:	0000                	unimp
    31bc:	0501                	addi	a0,a0,0
    31be:	0003061b          	sext.w	a2,t1
    31c2:	0009                	c.nop	2
    31c4:	0100                	addi	s0,sp,128
    31c6:	1405                	addi	s0,s0,-31
    31c8:	02090003          	lb	zero,32(s2)
    31cc:	0100                	addi	s0,sp,128
    31ce:	1b05                	addi	s6,s6,-31
    31d0:	0200                	addi	s0,sp,256
    31d2:	0204                	addi	s1,sp,256
    31d4:	06090003          	lb	zero,96(s2)
    31d8:	0100                	addi	s0,sp,128
    31da:	04090003          	lb	zero,64(s2)
    31de:	0100                	addi	s0,sp,128
    31e0:	0200                	addi	s0,sp,256
    31e2:	0104                	addi	s1,sp,128
    31e4:	04090003          	lb	zero,64(s2)
    31e8:	0100                	addi	s0,sp,128
    31ea:	0200                	addi	s0,sp,256
    31ec:	0404                	addi	s1,sp,512
    31ee:	04090003          	lb	zero,64(s2)
    31f2:	0100                	addi	s0,sp,128
    31f4:	0705                	addi	a4,a4,1
    31f6:	02090103          	lb	sp,32(s2)
    31fa:	0100                	addi	s0,sp,128
    31fc:	0f05                	addi	t5,t5,1
    31fe:	0200                	addi	s0,sp,256
    3200:	0404                	addi	s1,sp,512
    3202:	04097f03          	.insn	4, 0x04097f03
    3206:	0100                	addi	s0,sp,128
    3208:	0505                	addi	a0,a0,1
    320a:	0306                	slli	t1,t1,0x1
    320c:	0901                	addi	s2,s2,0
    320e:	0004                	.insn	2, 0x0004
    3210:	0501                	addi	a0,a0,0
    3212:	0018                	.insn	2, 0x0018
    3214:	0402                	c.slli64	s0
    3216:	0302                	c.slli64	t1
    3218:	097d                	addi	s2,s2,31
    321a:	0000                	unimp
    321c:	0501                	addi	a0,a0,0
    321e:	0011                	c.nop	4
    3220:	0402                	c.slli64	s0
    3222:	0301                	addi	t1,t1,0
    3224:	0900                	addi	s0,sp,144
    3226:	0000                	unimp
    3228:	0501                	addi	a0,a0,0
    322a:	0305                	addi	t1,t1,1
    322c:	0902                	c.slli64	s2
    322e:	0000                	unimp
    3230:	0501                	addi	a0,a0,0
    3232:	0614                	addi	a3,sp,768
    3234:	00090003          	lb	zero,0(s2)
    3238:	0100                	addi	s0,sp,128
    323a:	1b05                	addi	s6,s6,-31
    323c:	04090003          	lb	zero,64(s2)
    3240:	0100                	addi	s0,sp,128
    3242:	1405                	addi	s0,s0,-31
    3244:	02090003          	lb	zero,32(s2)
    3248:	0100                	addi	s0,sp,128
    324a:	1b05                	addi	s6,s6,-31
    324c:	0200                	addi	s0,sp,256
    324e:	0204                	addi	s1,sp,256
    3250:	02090003          	lb	zero,32(s2)
    3254:	0100                	addi	s0,sp,128
    3256:	04090003          	lb	zero,64(s2)
    325a:	0100                	addi	s0,sp,128
    325c:	0200                	addi	s0,sp,256
    325e:	0104                	addi	s1,sp,128
    3260:	04090003          	lb	zero,64(s2)
    3264:	0100                	addi	s0,sp,128
    3266:	0200                	addi	s0,sp,256
    3268:	0404                	addi	s1,sp,512
    326a:	04090003          	lb	zero,64(s2)
    326e:	0100                	addi	s0,sp,128
    3270:	0705                	addi	a4,a4,1
    3272:	02090103          	lb	sp,32(s2)
    3276:	0100                	addi	s0,sp,128
    3278:	0f05                	addi	t5,t5,1
    327a:	0200                	addi	s0,sp,256
    327c:	0404                	addi	s1,sp,512
    327e:	04097f03          	.insn	4, 0x04097f03
    3282:	0100                	addi	s0,sp,128
    3284:	0505                	addi	a0,a0,1
    3286:	0306                	slli	t1,t1,0x1
    3288:	0901                	addi	s2,s2,0
    328a:	0004                	.insn	2, 0x0004
    328c:	0501                	addi	a0,a0,0
    328e:	0018                	.insn	2, 0x0018
    3290:	0402                	c.slli64	s0
    3292:	0302                	c.slli64	t1
    3294:	097d                	addi	s2,s2,31
    3296:	0000                	unimp
    3298:	0501                	addi	a0,a0,0
    329a:	0011                	c.nop	4
    329c:	0402                	c.slli64	s0
    329e:	0301                	addi	t1,t1,0
    32a0:	0900                	addi	s0,sp,144
    32a2:	0000                	unimp
    32a4:	0501                	addi	a0,a0,0
    32a6:	0305                	addi	t1,t1,1
    32a8:	0902                	c.slli64	s2
    32aa:	0000                	unimp
    32ac:	0501                	addi	a0,a0,0
    32ae:	0614                	addi	a3,sp,768
    32b0:	00090003          	lb	zero,0(s2)
    32b4:	0100                	addi	s0,sp,128
    32b6:	1b05                	addi	s6,s6,-31
    32b8:	04090003          	lb	zero,64(s2)
    32bc:	0100                	addi	s0,sp,128
    32be:	1405                	addi	s0,s0,-31
    32c0:	02090003          	lb	zero,32(s2)
    32c4:	0100                	addi	s0,sp,128
    32c6:	1b05                	addi	s6,s6,-31
    32c8:	0200                	addi	s0,sp,256
    32ca:	0204                	addi	s1,sp,256
    32cc:	02090003          	lb	zero,32(s2)
    32d0:	0100                	addi	s0,sp,128
    32d2:	04090003          	lb	zero,64(s2)
    32d6:	0100                	addi	s0,sp,128
    32d8:	0200                	addi	s0,sp,256
    32da:	0104                	addi	s1,sp,128
    32dc:	04090003          	lb	zero,64(s2)
    32e0:	0100                	addi	s0,sp,128
    32e2:	0200                	addi	s0,sp,256
    32e4:	0404                	addi	s1,sp,512
    32e6:	04090003          	lb	zero,64(s2)
    32ea:	0100                	addi	s0,sp,128
    32ec:	0705                	addi	a4,a4,1
    32ee:	02090103          	lb	sp,32(s2)
    32f2:	0100                	addi	s0,sp,128
    32f4:	0f05                	addi	t5,t5,1
    32f6:	0200                	addi	s0,sp,256
    32f8:	0404                	addi	s1,sp,512
    32fa:	04097f03          	.insn	4, 0x04097f03
    32fe:	0100                	addi	s0,sp,128
    3300:	0505                	addi	a0,a0,1
    3302:	0306                	slli	t1,t1,0x1
    3304:	0901                	addi	s2,s2,0
    3306:	0004                	.insn	2, 0x0004
    3308:	0501                	addi	a0,a0,0
    330a:	0018                	.insn	2, 0x0018
    330c:	0402                	c.slli64	s0
    330e:	0302                	c.slli64	t1
    3310:	097d                	addi	s2,s2,31
    3312:	0000                	unimp
    3314:	0501                	addi	a0,a0,0
    3316:	0011                	c.nop	4
    3318:	0402                	c.slli64	s0
    331a:	0301                	addi	t1,t1,0
    331c:	0900                	addi	s0,sp,144
    331e:	0000                	unimp
    3320:	0501                	addi	a0,a0,0
    3322:	0305                	addi	t1,t1,1
    3324:	0902                	c.slli64	s2
    3326:	0000                	unimp
    3328:	0501                	addi	a0,a0,0
    332a:	0614                	addi	a3,sp,768
    332c:	00090003          	lb	zero,0(s2)
    3330:	0100                	addi	s0,sp,128
    3332:	1b05                	addi	s6,s6,-31
    3334:	04090003          	lb	zero,64(s2)
    3338:	0100                	addi	s0,sp,128
    333a:	1405                	addi	s0,s0,-31
    333c:	02090003          	lb	zero,32(s2)
    3340:	0100                	addi	s0,sp,128
    3342:	1b05                	addi	s6,s6,-31
    3344:	0200                	addi	s0,sp,256
    3346:	0204                	addi	s1,sp,256
    3348:	02090003          	lb	zero,32(s2)
    334c:	0100                	addi	s0,sp,128
    334e:	04090003          	lb	zero,64(s2)
    3352:	0100                	addi	s0,sp,128
    3354:	0200                	addi	s0,sp,256
    3356:	0104                	addi	s1,sp,128
    3358:	04090003          	lb	zero,64(s2)
    335c:	0100                	addi	s0,sp,128
    335e:	0200                	addi	s0,sp,256
    3360:	0404                	addi	s1,sp,512
    3362:	04090003          	lb	zero,64(s2)
    3366:	0100                	addi	s0,sp,128
    3368:	0705                	addi	a4,a4,1
    336a:	02090103          	lb	sp,32(s2)
    336e:	0100                	addi	s0,sp,128
    3370:	0f05                	addi	t5,t5,1
    3372:	0200                	addi	s0,sp,256
    3374:	0404                	addi	s1,sp,512
    3376:	04097f03          	.insn	4, 0x04097f03
    337a:	0100                	addi	s0,sp,128
    337c:	0505                	addi	a0,a0,1
    337e:	0306                	slli	t1,t1,0x1
    3380:	0901                	addi	s2,s2,0
    3382:	0004                	.insn	2, 0x0004
    3384:	0501                	addi	a0,a0,0
    3386:	0018                	.insn	2, 0x0018
    3388:	0402                	c.slli64	s0
    338a:	0302                	c.slli64	t1
    338c:	097d                	addi	s2,s2,31
    338e:	0000                	unimp
    3390:	0501                	addi	a0,a0,0
    3392:	0011                	c.nop	4
    3394:	0402                	c.slli64	s0
    3396:	0301                	addi	t1,t1,0
    3398:	0900                	addi	s0,sp,144
    339a:	0000                	unimp
    339c:	0501                	addi	a0,a0,0
    339e:	0305                	addi	t1,t1,1
    33a0:	0902                	c.slli64	s2
    33a2:	0000                	unimp
    33a4:	0501                	addi	a0,a0,0
    33a6:	0614                	addi	a3,sp,768
    33a8:	00090003          	lb	zero,0(s2)
    33ac:	0100                	addi	s0,sp,128
    33ae:	1b05                	addi	s6,s6,-31
    33b0:	04090003          	lb	zero,64(s2)
    33b4:	0100                	addi	s0,sp,128
    33b6:	1405                	addi	s0,s0,-31
    33b8:	02090003          	lb	zero,32(s2)
    33bc:	0100                	addi	s0,sp,128
    33be:	1b05                	addi	s6,s6,-31
    33c0:	0200                	addi	s0,sp,256
    33c2:	0204                	addi	s1,sp,256
    33c4:	02090003          	lb	zero,32(s2)
    33c8:	0100                	addi	s0,sp,128
    33ca:	04090003          	lb	zero,64(s2)
    33ce:	0100                	addi	s0,sp,128
    33d0:	0200                	addi	s0,sp,256
    33d2:	0104                	addi	s1,sp,128
    33d4:	04090003          	lb	zero,64(s2)
    33d8:	0100                	addi	s0,sp,128
    33da:	0200                	addi	s0,sp,256
    33dc:	0404                	addi	s1,sp,512
    33de:	04090003          	lb	zero,64(s2)
    33e2:	0100                	addi	s0,sp,128
    33e4:	0705                	addi	a4,a4,1
    33e6:	02090103          	lb	sp,32(s2)
    33ea:	0100                	addi	s0,sp,128
    33ec:	0f05                	addi	t5,t5,1
    33ee:	0200                	addi	s0,sp,256
    33f0:	0404                	addi	s1,sp,512
    33f2:	04097f03          	.insn	4, 0x04097f03
    33f6:	0100                	addi	s0,sp,128
    33f8:	0505                	addi	a0,a0,1
    33fa:	0306                	slli	t1,t1,0x1
    33fc:	0901                	addi	s2,s2,0
    33fe:	0004                	.insn	2, 0x0004
    3400:	0501                	addi	a0,a0,0
    3402:	0018                	.insn	2, 0x0018
    3404:	0402                	c.slli64	s0
    3406:	0302                	c.slli64	t1
    3408:	097d                	addi	s2,s2,31
    340a:	0000                	unimp
    340c:	0501                	addi	a0,a0,0
    340e:	0011                	c.nop	4
    3410:	0402                	c.slli64	s0
    3412:	0301                	addi	t1,t1,0
    3414:	0900                	addi	s0,sp,144
    3416:	0000                	unimp
    3418:	0501                	addi	a0,a0,0
    341a:	0305                	addi	t1,t1,1
    341c:	0902                	c.slli64	s2
    341e:	0000                	unimp
    3420:	0501                	addi	a0,a0,0
    3422:	0614                	addi	a3,sp,768
    3424:	00090003          	lb	zero,0(s2)
    3428:	0100                	addi	s0,sp,128
    342a:	1b05                	addi	s6,s6,-31
    342c:	04090003          	lb	zero,64(s2)
    3430:	0100                	addi	s0,sp,128
    3432:	1405                	addi	s0,s0,-31
    3434:	02090003          	lb	zero,32(s2)
    3438:	0100                	addi	s0,sp,128
    343a:	1b05                	addi	s6,s6,-31
    343c:	0200                	addi	s0,sp,256
    343e:	0204                	addi	s1,sp,256
    3440:	02090003          	lb	zero,32(s2)
    3444:	0100                	addi	s0,sp,128
    3446:	04090003          	lb	zero,64(s2)
    344a:	0100                	addi	s0,sp,128
    344c:	0200                	addi	s0,sp,256
    344e:	0104                	addi	s1,sp,128
    3450:	04090003          	lb	zero,64(s2)
    3454:	0100                	addi	s0,sp,128
    3456:	0200                	addi	s0,sp,256
    3458:	0404                	addi	s1,sp,512
    345a:	04090003          	lb	zero,64(s2)
    345e:	0100                	addi	s0,sp,128
    3460:	0705                	addi	a4,a4,1
    3462:	02090103          	lb	sp,32(s2)
    3466:	0100                	addi	s0,sp,128
    3468:	0f05                	addi	t5,t5,1
    346a:	0200                	addi	s0,sp,256
    346c:	0404                	addi	s1,sp,512
    346e:	04097f03          	.insn	4, 0x04097f03
    3472:	0100                	addi	s0,sp,128
    3474:	0505                	addi	a0,a0,1
    3476:	0306                	slli	t1,t1,0x1
    3478:	0901                	addi	s2,s2,0
    347a:	0004                	.insn	2, 0x0004
    347c:	0501                	addi	a0,a0,0
    347e:	0018                	.insn	2, 0x0018
    3480:	0402                	c.slli64	s0
    3482:	0302                	c.slli64	t1
    3484:	097d                	addi	s2,s2,31
    3486:	0000                	unimp
    3488:	0501                	addi	a0,a0,0
    348a:	0011                	c.nop	4
    348c:	0402                	c.slli64	s0
    348e:	0301                	addi	t1,t1,0
    3490:	0900                	addi	s0,sp,144
    3492:	0000                	unimp
    3494:	0501                	addi	a0,a0,0
    3496:	0305                	addi	t1,t1,1
    3498:	0902                	c.slli64	s2
    349a:	0000                	unimp
    349c:	0501                	addi	a0,a0,0
    349e:	0614                	addi	a3,sp,768
    34a0:	00090003          	lb	zero,0(s2)
    34a4:	0100                	addi	s0,sp,128
    34a6:	1b05                	addi	s6,s6,-31
    34a8:	04090003          	lb	zero,64(s2)
    34ac:	0100                	addi	s0,sp,128
    34ae:	1405                	addi	s0,s0,-31
    34b0:	02090003          	lb	zero,32(s2)
    34b4:	0100                	addi	s0,sp,128
    34b6:	1b05                	addi	s6,s6,-31
    34b8:	0200                	addi	s0,sp,256
    34ba:	0204                	addi	s1,sp,256
    34bc:	02090003          	lb	zero,32(s2)
    34c0:	0100                	addi	s0,sp,128
    34c2:	04090003          	lb	zero,64(s2)
    34c6:	0100                	addi	s0,sp,128
    34c8:	0200                	addi	s0,sp,256
    34ca:	0104                	addi	s1,sp,128
    34cc:	04090003          	lb	zero,64(s2)
    34d0:	0100                	addi	s0,sp,128
    34d2:	0200                	addi	s0,sp,256
    34d4:	0404                	addi	s1,sp,512
    34d6:	04090003          	lb	zero,64(s2)
    34da:	0100                	addi	s0,sp,128
    34dc:	0705                	addi	a4,a4,1
    34de:	02090103          	lb	sp,32(s2)
    34e2:	0100                	addi	s0,sp,128
    34e4:	0f05                	addi	t5,t5,1
    34e6:	0200                	addi	s0,sp,256
    34e8:	0404                	addi	s1,sp,512
    34ea:	04097f03          	.insn	4, 0x04097f03
    34ee:	0100                	addi	s0,sp,128
    34f0:	0505                	addi	a0,a0,1
    34f2:	0306                	slli	t1,t1,0x1
    34f4:	0901                	addi	s2,s2,0
    34f6:	0004                	.insn	2, 0x0004
    34f8:	0501                	addi	a0,a0,0
    34fa:	0018                	.insn	2, 0x0018
    34fc:	0402                	c.slli64	s0
    34fe:	0302                	c.slli64	t1
    3500:	097d                	addi	s2,s2,31
    3502:	0000                	unimp
    3504:	0501                	addi	a0,a0,0
    3506:	0011                	c.nop	4
    3508:	0402                	c.slli64	s0
    350a:	0301                	addi	t1,t1,0
    350c:	0900                	addi	s0,sp,144
    350e:	0000                	unimp
    3510:	0501                	addi	a0,a0,0
    3512:	0305                	addi	t1,t1,1
    3514:	0902                	c.slli64	s2
    3516:	0000                	unimp
    3518:	0501                	addi	a0,a0,0
    351a:	0614                	addi	a3,sp,768
    351c:	00090003          	lb	zero,0(s2)
    3520:	0100                	addi	s0,sp,128
    3522:	1b05                	addi	s6,s6,-31
    3524:	04090003          	lb	zero,64(s2)
    3528:	0100                	addi	s0,sp,128
    352a:	1405                	addi	s0,s0,-31
    352c:	02090003          	lb	zero,32(s2)
    3530:	0100                	addi	s0,sp,128
    3532:	1b05                	addi	s6,s6,-31
    3534:	0200                	addi	s0,sp,256
    3536:	0204                	addi	s1,sp,256
    3538:	02090003          	lb	zero,32(s2)
    353c:	0100                	addi	s0,sp,128
    353e:	04090003          	lb	zero,64(s2)
    3542:	0100                	addi	s0,sp,128
    3544:	0200                	addi	s0,sp,256
    3546:	0104                	addi	s1,sp,128
    3548:	04090003          	lb	zero,64(s2)
    354c:	0100                	addi	s0,sp,128
    354e:	0200                	addi	s0,sp,256
    3550:	0404                	addi	s1,sp,512
    3552:	04090003          	lb	zero,64(s2)
    3556:	0100                	addi	s0,sp,128
    3558:	0f05                	addi	t5,t5,1
    355a:	0200                	addi	s0,sp,256
    355c:	0404                	addi	s1,sp,512
    355e:	02090003          	lb	zero,32(s2)
    3562:	0100                	addi	s0,sp,128
    3564:	0505                	addi	a0,a0,1
    3566:	0306                	slli	t1,t1,0x1
    3568:	0901                	addi	s2,s2,0
    356a:	0004                	.insn	2, 0x0004
    356c:	0501                	addi	a0,a0,0
    356e:	00030607          	.insn	4, 0x00030607
    3572:	0009                	c.nop	2
    3574:	0100                	addi	s0,sp,128
    3576:	1805                	addi	a6,a6,-31
    3578:	0200                	addi	s0,sp,256
    357a:	0204                	addi	s1,sp,256
    357c:	0306                	slli	t1,t1,0x1
    357e:	097d                	addi	s2,s2,31
    3580:	0004                	.insn	2, 0x0004
    3582:	0501                	addi	a0,a0,0
    3584:	0011                	c.nop	4
    3586:	0402                	c.slli64	s0
    3588:	0301                	addi	t1,t1,0
    358a:	0900                	addi	s0,sp,144
    358c:	0000                	unimp
    358e:	0501                	addi	a0,a0,0
    3590:	0305                	addi	t1,t1,1
    3592:	0902                	c.slli64	s2
    3594:	0000                	unimp
    3596:	0501                	addi	a0,a0,0
    3598:	0003061b          	sext.w	a2,t1
    359c:	0009                	c.nop	2
    359e:	0100                	addi	s0,sp,128
    35a0:	1405                	addi	s0,s0,-31
    35a2:	02090003          	lb	zero,32(s2)
    35a6:	0100                	addi	s0,sp,128
    35a8:	1b05                	addi	s6,s6,-31
    35aa:	0200                	addi	s0,sp,256
    35ac:	0204                	addi	s1,sp,256
    35ae:	02090003          	lb	zero,32(s2)
    35b2:	0100                	addi	s0,sp,128
    35b4:	04090003          	lb	zero,64(s2)
    35b8:	0100                	addi	s0,sp,128
    35ba:	0200                	addi	s0,sp,256
    35bc:	0104                	addi	s1,sp,128
    35be:	04090003          	lb	zero,64(s2)
    35c2:	0100                	addi	s0,sp,128
    35c4:	0200                	addi	s0,sp,256
    35c6:	0404                	addi	s1,sp,512
    35c8:	04090003          	lb	zero,64(s2)
    35cc:	0100                	addi	s0,sp,128
    35ce:	0b05                	addi	s6,s6,1
    35d0:	0200                	addi	s0,sp,256
    35d2:	0104                	addi	s1,sp,128
    35d4:	097ed603          	lhu	a2,151(t4)
    35d8:	0002                	c.slli64	zero
    35da:	0501                	addi	a0,a0,0
    35dc:	0402000f          	.insn	4, 0x0402000f
    35e0:	0304                	addi	s1,sp,384
    35e2:	01aa                	slli	gp,gp,0xa
    35e4:	0409                	addi	s0,s0,2
    35e6:	0100                	addi	s0,sp,128
    35e8:	0505                	addi	a0,a0,1
    35ea:	0306                	slli	t1,t1,0x1
    35ec:	0901                	addi	s2,s2,0
    35ee:	0004                	.insn	2, 0x0004
    35f0:	0501                	addi	a0,a0,0
    35f2:	0018                	.insn	2, 0x0018
    35f4:	0402                	c.slli64	s0
    35f6:	0302                	c.slli64	t1
    35f8:	097d                	addi	s2,s2,31
    35fa:	0000                	unimp
    35fc:	0501                	addi	a0,a0,0
    35fe:	0011                	c.nop	4
    3600:	0402                	c.slli64	s0
    3602:	0301                	addi	t1,t1,0
    3604:	0900                	addi	s0,sp,144
    3606:	0000                	unimp
    3608:	0501                	addi	a0,a0,0
    360a:	09050303          	lb	t1,144(a0)
    360e:	0000                	unimp
    3610:	0501                	addi	a0,a0,0
    3612:	0003060b          	.insn	4, 0x0003060b
    3616:	0009                	c.nop	2
    3618:	0100                	addi	s0,sp,128
    361a:	0305                	addi	t1,t1,1
    361c:	0306                	slli	t1,t1,0x1
    361e:	0902                	c.slli64	s2
    3620:	0004                	.insn	2, 0x0004
    3622:	0301                	addi	t1,t1,0
    3624:	00097fa7          	.insn	4, 0x00097fa7
    3628:	0100                	addi	s0,sp,128
    362a:	0505                	addi	a0,a0,1
    362c:	097fb703          	ld	a4,151(t6) # 97097 <_start-0x7ff68f69>
    3630:	0000                	unimp
    3632:	0501                	addi	a0,a0,0
    3634:	030c                	addi	a1,sp,384
    3636:	0900                	addi	s0,sp,144
    3638:	0000                	unimp
    363a:	0501                	addi	a0,a0,0
    363c:	0402000b          	.insn	4, 0x0402000b
    3640:	0601                	addi	a2,a2,0
    3642:	00097303          	.insn	4, 0x00097303
    3646:	0100                	addi	s0,sp,128
    3648:	0901ad03          	lw	s10,144(gp) # 800028d8 <__global_pointer$+0x90>
    364c:	0002                	c.slli64	zero
    364e:	0001                	nop
    3650:	0402                	c.slli64	s0
    3652:	0301                	addi	t1,t1,0
    3654:	02097ed3          	fadd.d	ft9,fs2,ft0
    3658:	0100                	addi	s0,sp,128
    365a:	0905                	addi	s2,s2,1
    365c:	0306                	slli	t1,t1,0x1
    365e:	090e                	slli	s2,s2,0x3
    3660:	0004                	.insn	2, 0x0004
    3662:	0501                	addi	a0,a0,0
    3664:	0616                	slli	a2,a2,0x5
    3666:	00090003          	lb	zero,0(s2)
    366a:	0100                	addi	s0,sp,128
    366c:	0305                	addi	t1,t1,1
    366e:	0306                	slli	t1,t1,0x1
    3670:	0002096f          	jal	s2,23670 <_start-0x7ffdc990>
    3674:	0301                	addi	t1,t1,0
    3676:	0901                	addi	s2,s2,0
    3678:	0000                	unimp
    367a:	0501                	addi	a0,a0,0
    367c:	0302                	c.slli64	t1
    367e:	0902                	c.slli64	s2
    3680:	0000                	unimp
    3682:	0501                	addi	a0,a0,0
    3684:	0009                	c.nop	2
    3686:	0402                	c.slli64	s0
    3688:	0301                	addi	t1,t1,0
    368a:	0900                	addi	s0,sp,144
    368c:	0000                	unimp
    368e:	0501                	addi	a0,a0,0
    3690:	0402000b          	.insn	4, 0x0402000b
    3694:	0601                	addi	a2,a2,0
    3696:	00090003          	lb	zero,0(s2)
    369a:	0100                	addi	s0,sp,128
    369c:	0905                	addi	s2,s2,1
    369e:	0200                	addi	s0,sp,256
    36a0:	0104                	addi	s1,sp,128
    36a2:	04090003          	lb	zero,64(s2)
    36a6:	0100                	addi	s0,sp,128
    36a8:	0205                	addi	tp,tp,1 # 1 <_start-0x7fffffff>
    36aa:	0306                	slli	t1,t1,0x1
    36ac:	0901                	addi	s2,s2,0
    36ae:	0006                	c.slli	zero,0x1
    36b0:	0501                	addi	a0,a0,0
    36b2:	060c                	addi	a1,sp,768
    36b4:	00090003          	lb	zero,0(s2)
    36b8:	0100                	addi	s0,sp,128
    36ba:	0306                	slli	t1,t1,0x1
    36bc:	090c                	addi	a1,sp,144
    36be:	0004                	.insn	2, 0x0004
    36c0:	0501                	addi	a0,a0,0
    36c2:	0601                	addi	a2,a2,0
    36c4:	0901a303          	lw	t1,144(gp) # 800028d8 <__global_pointer$+0x90>
    36c8:	0006                	c.slli	zero,0x1
    36ca:	0601                	addi	a2,a2,0
    36cc:	0901c303          	lbu	t1,144(gp) # 800028d8 <__global_pointer$+0x90>
    36d0:	0004                	.insn	2, 0x0004
    36d2:	0501                	addi	a0,a0,0
    36d4:	09010303          	lb	t1,144(sp)
    36d8:	0000                	unimp
    36da:	0301                	addi	t1,t1,0
    36dc:	0901                	addi	s2,s2,0
    36de:	0000                	unimp
    36e0:	0501                	addi	a0,a0,0
    36e2:	0601                	addi	a2,a2,0
    36e4:	00097e03          	.insn	4, 0x00097e03
    36e8:	0100                	addi	s0,sp,128
    36ea:	0305                	addi	t1,t1,1
    36ec:	02090203          	lb	tp,32(s2)
    36f0:	0100                	addi	s0,sp,128
    36f2:	0105                	addi	sp,sp,1
    36f4:	04097e03          	.insn	4, 0x04097e03
    36f8:	0100                	addi	s0,sp,128
    36fa:	0305                	addi	t1,t1,1
    36fc:	02090403          	lb	s0,32(s2)
    3700:	0100                	addi	s0,sp,128
    3702:	0105                	addi	sp,sp,1
    3704:	02097c03          	.insn	4, 0x02097c03
    3708:	0100                	addi	s0,sp,128
    370a:	02090003          	lb	zero,32(s2)
    370e:	0100                	addi	s0,sp,128
    3710:	0305                	addi	t1,t1,1
    3712:	0c090203          	lb	tp,192(s2)
    3716:	0100                	addi	s0,sp,128
    3718:	0306                	slli	t1,t1,0x1
    371a:	0902                	c.slli64	s2
    371c:	0002                	c.slli64	zero
    371e:	0301                	addi	t1,t1,0
    3720:	0902                	c.slli64	s2
    3722:	0004                	.insn	2, 0x0004
    3724:	0301                	addi	t1,t1,0
    3726:	0901                	addi	s2,s2,0
    3728:	0000                	unimp
    372a:	0501                	addi	a0,a0,0
    372c:	0601                	addi	a2,a2,0
    372e:	00090103          	lb	sp,0(s2)
    3732:	0100                	addi	s0,sp,128
    3734:	0306                	slli	t1,t1,0x1
    3736:	00080903          	lb	s2,0(a6)
    373a:	0501                	addi	a0,a0,0
    373c:	09010303          	lb	t1,144(sp)
    3740:	0000                	unimp
    3742:	0301                	addi	t1,t1,0
    3744:	0901                	addi	s2,s2,0
    3746:	0000                	unimp
    3748:	0501                	addi	a0,a0,0
    374a:	0601                	addi	a2,a2,0
    374c:	00097e03          	.insn	4, 0x00097e03
    3750:	0100                	addi	s0,sp,128
    3752:	0305                	addi	t1,t1,1
    3754:	02090303          	lb	t1,32(s2)
    3758:	0100                	addi	s0,sp,128
    375a:	0105                	addi	sp,sp,1
    375c:	04097d03          	.insn	4, 0x04097d03
    3760:	0100                	addi	s0,sp,128
    3762:	0905                	addi	s2,s2,1
    3764:	06090203          	lb	tp,96(s2)
    3768:	0100                	addi	s0,sp,128
    376a:	0305                	addi	t1,t1,1
    376c:	02090a03          	lb	s4,32(s2)
    3770:	0100                	addi	s0,sp,128
    3772:	0306                	slli	t1,t1,0x1
    3774:	00040977          	.insn	4, 0x00040977
    3778:	0501                	addi	a0,a0,0
    377a:	0601                	addi	a2,a2,0
    377c:	00097d03          	.insn	4, 0x00097d03
    3780:	0100                	addi	s0,sp,128
    3782:	02090003          	lb	zero,32(s2)
    3786:	0100                	addi	s0,sp,128
    3788:	0305                	addi	t1,t1,1
    378a:	0a090303          	lb	t1,160(s2)
    378e:	0100                	addi	s0,sp,128
    3790:	0306                	slli	t1,t1,0x1
    3792:	0902                	c.slli64	s2
    3794:	0002                	c.slli64	zero
    3796:	0301                	addi	t1,t1,0
    3798:	00000907          	.insn	4, 0x0907
    379c:	0301                	addi	t1,t1,0
    379e:	0901                	addi	s2,s2,0
    37a0:	0004                	.insn	2, 0x0004
    37a2:	0501                	addi	a0,a0,0
    37a4:	0608                	addi	a0,sp,768
    37a6:	02090003          	lb	zero,32(s2)
    37aa:	0100                	addi	s0,sp,128
    37ac:	0305                	addi	t1,t1,1
    37ae:	0306                	slli	t1,t1,0x1
    37b0:	0902                	c.slli64	s2
    37b2:	0004                	.insn	2, 0x0004
    37b4:	0301                	addi	t1,t1,0
    37b6:	0901                	addi	s2,s2,0
    37b8:	0000                	unimp
    37ba:	0501                	addi	a0,a0,0
    37bc:	0601                	addi	a2,a2,0
    37be:	00090103          	lb	sp,0(s2)
    37c2:	0100                	addi	s0,sp,128
    37c4:	0306                	slli	t1,t1,0x1
    37c6:	000a0903          	lb	s2,0(s4)
    37ca:	0501                	addi	a0,a0,0
    37cc:	062a                	slli	a2,a2,0xa
    37ce:	00090103          	lb	sp,0(s2)
    37d2:	0100                	addi	s0,sp,128
    37d4:	3105                	addiw	sp,sp,-31
    37d6:	08090003          	lb	zero,128(s2)
    37da:	0100                	addi	s0,sp,128
    37dc:	1b05                	addi	s6,s6,-31
    37de:	04090003          	lb	zero,64(s2)
    37e2:	0100                	addi	s0,sp,128
    37e4:	0305                	addi	t1,t1,1
    37e6:	0306                	slli	t1,t1,0x1
    37e8:	0900                	addi	s0,sp,144
    37ea:	0002                	c.slli64	zero
    37ec:	0501                	addi	a0,a0,0
    37ee:	0609                	addi	a2,a2,2
    37f0:	00090003          	lb	zero,0(s2)
    37f4:	0100                	addi	s0,sp,128
    37f6:	1d05                	addi	s10,s10,-31
    37f8:	02090803          	lb	a6,32(s2)
    37fc:	0100                	addi	s0,sp,128
    37fe:	0605                	addi	a2,a2,1
    3800:	04097803          	.insn	4, 0x04097803
    3804:	0100                	addi	s0,sp,128
    3806:	0e05                	addi	t3,t3,1
    3808:	0306                	slli	t1,t1,0x1
    380a:	0908                	addi	a0,sp,144
    380c:	0004                	.insn	2, 0x0004
    380e:	0501                	addi	a0,a0,0
    3810:	09010307          	.insn	4, 0x09010307
    3814:	0032                	c.slli	zero,0xc
    3816:	0501                	addi	a0,a0,0
    3818:	060e                	slli	a2,a2,0x3
    381a:	00090003          	lb	zero,0(s2)
    381e:	0100                	addi	s0,sp,128
    3820:	0c05                	addi	s8,s8,1
    3822:	06090003          	lb	zero,96(s2)
    3826:	0100                	addi	s0,sp,128
    3828:	0e05                	addi	t3,t3,1
    382a:	0306                	slli	t1,t1,0x1
    382c:	097f 0004 0501 0307 	.insn	10, 0x0901030705010004097f
    3834:	0901 
    3836:	000c                	.insn	2, 0x000c
    3838:	0501                	addi	a0,a0,0
    383a:	060e                	slli	a2,a2,0x3
    383c:	00090003          	lb	zero,0(s2)
    3840:	0100                	addi	s0,sp,128
    3842:	0905                	addi	s2,s2,1
    3844:	04090003          	lb	zero,64(s2)
    3848:	0100                	addi	s0,sp,128
    384a:	0c05                	addi	s8,s8,1
    384c:	04090003          	lb	zero,64(s2)
    3850:	0100                	addi	s0,sp,128
    3852:	0e05                	addi	t3,t3,1
    3854:	0306                	slli	t1,t1,0x1
    3856:	097f 0004 0501 0307 	.insn	10, 0x0901030705010004097f
    385e:	0901 
    3860:	0004                	.insn	2, 0x0004
    3862:	0501                	addi	a0,a0,0
    3864:	060e                	slli	a2,a2,0x3
    3866:	00090003          	lb	zero,0(s2)
    386a:	0100                	addi	s0,sp,128
    386c:	0905                	addi	s2,s2,1
    386e:	04090003          	lb	zero,64(s2)
    3872:	0100                	addi	s0,sp,128
    3874:	0c05                	addi	s8,s8,1
    3876:	04090003          	lb	zero,64(s2)
    387a:	0100                	addi	s0,sp,128
    387c:	0e05                	addi	t3,t3,1
    387e:	0306                	slli	t1,t1,0x1
    3880:	097f 0004 0501 0307 	.insn	10, 0x0901030705010004097f
    3888:	0901 
    388a:	0004                	.insn	2, 0x0004
    388c:	0501                	addi	a0,a0,0
    388e:	060e                	slli	a2,a2,0x3
    3890:	00090003          	lb	zero,0(s2)
    3894:	0100                	addi	s0,sp,128
    3896:	0905                	addi	s2,s2,1
    3898:	04090003          	lb	zero,64(s2)
    389c:	0100                	addi	s0,sp,128
    389e:	0c05                	addi	s8,s8,1
    38a0:	04090003          	lb	zero,64(s2)
    38a4:	0100                	addi	s0,sp,128
    38a6:	0e05                	addi	t3,t3,1
    38a8:	0306                	slli	t1,t1,0x1
    38aa:	097f 0004 0501 0307 	.insn	10, 0x0901030705010004097f
    38b2:	0901 
    38b4:	0004                	.insn	2, 0x0004
    38b6:	0501                	addi	a0,a0,0
    38b8:	060e                	slli	a2,a2,0x3
    38ba:	00090003          	lb	zero,0(s2)
    38be:	0100                	addi	s0,sp,128
    38c0:	0905                	addi	s2,s2,1
    38c2:	04090003          	lb	zero,64(s2)
    38c6:	0100                	addi	s0,sp,128
    38c8:	0c05                	addi	s8,s8,1
    38ca:	04090003          	lb	zero,64(s2)
    38ce:	0100                	addi	s0,sp,128
    38d0:	0e05                	addi	t3,t3,1
    38d2:	0306                	slli	t1,t1,0x1
    38d4:	097f 0004 0501 0307 	.insn	10, 0x0901030705010004097f
    38dc:	0901 
    38de:	0004                	.insn	2, 0x0004
    38e0:	0501                	addi	a0,a0,0
    38e2:	060e                	slli	a2,a2,0x3
    38e4:	00090003          	lb	zero,0(s2)
    38e8:	0100                	addi	s0,sp,128
    38ea:	0905                	addi	s2,s2,1
    38ec:	04090003          	lb	zero,64(s2)
    38f0:	0100                	addi	s0,sp,128
    38f2:	0c05                	addi	s8,s8,1
    38f4:	04090003          	lb	zero,64(s2)
    38f8:	0100                	addi	s0,sp,128
    38fa:	0e05                	addi	t3,t3,1
    38fc:	0306                	slli	t1,t1,0x1
    38fe:	097f 0004 0501 0307 	.insn	10, 0x0901030705010004097f
    3906:	0901 
    3908:	0004                	.insn	2, 0x0004
    390a:	0501                	addi	a0,a0,0
    390c:	060e                	slli	a2,a2,0x3
    390e:	00090003          	lb	zero,0(s2)
    3912:	0100                	addi	s0,sp,128
    3914:	0905                	addi	s2,s2,1
    3916:	04090003          	lb	zero,64(s2)
    391a:	0100                	addi	s0,sp,128
    391c:	0c05                	addi	s8,s8,1
    391e:	04090003          	lb	zero,64(s2)
    3922:	0100                	addi	s0,sp,128
    3924:	0e05                	addi	t3,t3,1
    3926:	0306                	slli	t1,t1,0x1
    3928:	097f 0004 0501 0307 	.insn	10, 0x0901030705010004097f
    3930:	0901 
    3932:	0004                	.insn	2, 0x0004
    3934:	0501                	addi	a0,a0,0
    3936:	060e                	slli	a2,a2,0x3
    3938:	00090003          	lb	zero,0(s2)
    393c:	0100                	addi	s0,sp,128
    393e:	0c05                	addi	s8,s8,1
    3940:	04090003          	lb	zero,64(s2)
    3944:	0100                	addi	s0,sp,128
    3946:	0e05                	addi	t3,t3,1
    3948:	0306                	slli	t1,t1,0x1
    394a:	097f 0004 0301 097b 	.insn	10, 0x0002097b03010004097f
    3952:	0002 
    3954:	0501                	addi	a0,a0,0
    3956:	0610                	addi	a2,sp,768
    3958:	04097f03          	.insn	4, 0x04097f03
    395c:	0100                	addi	s0,sp,128
    395e:	0705                	addi	a4,a4,1
    3960:	0306                	slli	t1,t1,0x1
    3962:	0902                	c.slli64	s2
    3964:	0002                	c.slli64	zero
    3966:	0501                	addi	a0,a0,0
    3968:	060e                	slli	a2,a2,0x3
    396a:	00090003          	lb	zero,0(s2)
    396e:	0100                	addi	s0,sp,128
    3970:	0905                	addi	s2,s2,1
    3972:	02090003          	lb	zero,32(s2)
    3976:	0100                	addi	s0,sp,128
    3978:	1005                	c.nop	-31
    397a:	02090003          	lb	zero,32(s2)
    397e:	0100                	addi	s0,sp,128
    3980:	0c05                	addi	s8,s8,1
    3982:	02090003          	lb	zero,32(s2)
    3986:	0100                	addi	s0,sp,128
    3988:	0e05                	addi	t3,t3,1
    398a:	0306                	slli	t1,t1,0x1
    398c:	097f 0004 0501 060b 	.insn	10, 0x0403060b05010004097f
    3994:	0403 
    3996:	0c09                	addi	s8,s8,2
    3998:	0100                	addi	s0,sp,128
    399a:	0705                	addi	a4,a4,1
    399c:	0306                	slli	t1,t1,0x1
    399e:	0902                	c.slli64	s2
    39a0:	0006                	c.slli	zero,0x1
    39a2:	0501                	addi	a0,a0,0
    39a4:	060e                	slli	a2,a2,0x3
    39a6:	00090003          	lb	zero,0(s2)
    39aa:	0100                	addi	s0,sp,128
    39ac:	0905                	addi	s2,s2,1
    39ae:	04090003          	lb	zero,64(s2)
    39b2:	0100                	addi	s0,sp,128
    39b4:	0c05                	addi	s8,s8,1
    39b6:	02090003          	lb	zero,32(s2)
    39ba:	0100                	addi	s0,sp,128
    39bc:	0e05                	addi	t3,t3,1
    39be:	0306                	slli	t1,t1,0x1
    39c0:	097f 0004 0501 0601 	.insn	10, 0x0403060105010004097f
    39c8:	0403 
    39ca:	0409                	addi	s0,s0,2
    39cc:	0100                	addi	s0,sp,128
    39ce:	0306                	slli	t1,t1,0x1
    39d0:	00040903          	lb	s2,0(s0)
    39d4:	0501                	addi	a0,a0,0
    39d6:	0619                	addi	a2,a2,6
    39d8:	00090103          	lb	sp,0(s2)
    39dc:	0100                	addi	s0,sp,128
    39de:	2005                	.insn	2, 0x2005
    39e0:	04090003          	lb	zero,64(s2)
    39e4:	0100                	addi	s0,sp,128
    39e6:	0305                	addi	t1,t1,1
    39e8:	0306                	slli	t1,t1,0x1
    39ea:	0900                	addi	s0,sp,144
    39ec:	0002                	c.slli64	zero
    39ee:	0501                	addi	a0,a0,0
    39f0:	061d                	addi	a2,a2,7
    39f2:	00090b03          	lb	s6,0(s2)
    39f6:	0100                	addi	s0,sp,128
    39f8:	0605                	addi	a2,a2,1
    39fa:	04097503          	.insn	4, 0x04097503
    39fe:	0100                	addi	s0,sp,128
    3a00:	0e05                	addi	t3,t3,1
    3a02:	0306                	slli	t1,t1,0x1
    3a04:	0004090b          	.insn	4, 0x0004090b
    3a08:	0501                	addi	a0,a0,0
    3a0a:	060c                	addi	a1,sp,768
    3a0c:	12090103          	lb	sp,288(s2)
    3a10:	0100                	addi	s0,sp,128
    3a12:	0705                	addi	a4,a4,1
    3a14:	0306                	slli	t1,t1,0x1
    3a16:	0900                	addi	s0,sp,144
    3a18:	0016                	c.slli	zero,0x5
    3a1a:	0501                	addi	a0,a0,0
    3a1c:	060c                	addi	a1,sp,768
    3a1e:	00090003          	lb	zero,0(s2)
    3a22:	0100                	addi	s0,sp,128
    3a24:	0e05                	addi	t3,t3,1
    3a26:	0306                	slli	t1,t1,0x1
    3a28:	097f 0004 0501 0307 	.insn	10, 0x0901030705010004097f
    3a30:	0901 
    3a32:	0008                	.insn	2, 0x0008
    3a34:	0501                	addi	a0,a0,0
    3a36:	060c                	addi	a1,sp,768
    3a38:	00090003          	lb	zero,0(s2)
    3a3c:	0100                	addi	s0,sp,128
    3a3e:	0e05                	addi	t3,t3,1
    3a40:	0306                	slli	t1,t1,0x1
    3a42:	097f 0004 0501 0307 	.insn	10, 0x0901030705010004097f
    3a4a:	0901 
    3a4c:	0006                	c.slli	zero,0x1
    3a4e:	0501                	addi	a0,a0,0
    3a50:	060c                	addi	a1,sp,768
    3a52:	00090003          	lb	zero,0(s2)
    3a56:	0100                	addi	s0,sp,128
    3a58:	0e05                	addi	t3,t3,1
    3a5a:	0306                	slli	t1,t1,0x1
    3a5c:	097f 0004 0501 0609 	.insn	10, 0x0103060905010004097f
    3a64:	0103 
    3a66:	0209                	addi	tp,tp,2 # 2 <_start-0x7ffffffe>
    3a68:	0100                	addi	s0,sp,128
    3a6a:	0705                	addi	a4,a4,1
    3a6c:	0306                	slli	t1,t1,0x1
    3a6e:	0900                	addi	s0,sp,144
    3a70:	0006                	c.slli	zero,0x1
    3a72:	0501                	addi	a0,a0,0
    3a74:	060c                	addi	a1,sp,768
    3a76:	00090003          	lb	zero,0(s2)
    3a7a:	0100                	addi	s0,sp,128
    3a7c:	0e05                	addi	t3,t3,1
    3a7e:	0306                	slli	t1,t1,0x1
    3a80:	097f 0004 0501 0307 	.insn	10, 0x0901030705010004097f
    3a88:	0901 
    3a8a:	0006                	c.slli	zero,0x1
    3a8c:	0501                	addi	a0,a0,0
    3a8e:	060c                	addi	a1,sp,768
    3a90:	00090003          	lb	zero,0(s2)
    3a94:	0100                	addi	s0,sp,128
    3a96:	0e05                	addi	t3,t3,1
    3a98:	0306                	slli	t1,t1,0x1
    3a9a:	097f 0004 0501 0307 	.insn	10, 0x0901030705010004097f
    3aa2:	0901 
    3aa4:	0006                	c.slli	zero,0x1
    3aa6:	0501                	addi	a0,a0,0
    3aa8:	060c                	addi	a1,sp,768
    3aaa:	00090003          	lb	zero,0(s2)
    3aae:	0100                	addi	s0,sp,128
    3ab0:	0e05                	addi	t3,t3,1
    3ab2:	0306                	slli	t1,t1,0x1
    3ab4:	097f 0004 0501 0609 	.insn	10, 0x0103060905010004097f
    3abc:	0103 
    3abe:	0209                	addi	tp,tp,2 # 2 <_start-0x7ffffffe>
    3ac0:	0100                	addi	s0,sp,128
    3ac2:	0705                	addi	a4,a4,1
    3ac4:	0306                	slli	t1,t1,0x1
    3ac6:	0900                	addi	s0,sp,144
    3ac8:	0008                	.insn	2, 0x0008
    3aca:	0501                	addi	a0,a0,0
    3acc:	060c                	addi	a1,sp,768
    3ace:	00090003          	lb	zero,0(s2)
    3ad2:	0100                	addi	s0,sp,128
    3ad4:	0905                	addi	s2,s2,1
    3ad6:	04090003          	lb	zero,64(s2)
    3ada:	0100                	addi	s0,sp,128
    3adc:	0e05                	addi	t3,t3,1
    3ade:	0306                	slli	t1,t1,0x1
    3ae0:	097f 0004 0501 0307 	.insn	10, 0x0901030705010004097f
    3ae8:	0901 
    3aea:	0042                	c.slli	zero,0x10
    3aec:	0501                	addi	a0,a0,0
    3aee:	060c                	addi	a1,sp,768
    3af0:	00090003          	lb	zero,0(s2)
    3af4:	0100                	addi	s0,sp,128
    3af6:	0e05                	addi	t3,t3,1
    3af8:	0306                	slli	t1,t1,0x1
    3afa:	097f 0002 0501 0307 	.insn	10, 0x0901030705010002097f
    3b02:	0901 
    3b04:	000e                	c.slli	zero,0x3
    3b06:	0501                	addi	a0,a0,0
    3b08:	060c                	addi	a1,sp,768
    3b0a:	00090003          	lb	zero,0(s2)
    3b0e:	0100                	addi	s0,sp,128
    3b10:	0e05                	addi	t3,t3,1
    3b12:	0306                	slli	t1,t1,0x1
    3b14:	097f 0004 0501 0609 	.insn	10, 0x0103060905010004097f
    3b1c:	0103 
    3b1e:	0009                	c.nop	2
    3b20:	0100                	addi	s0,sp,128
    3b22:	0e05                	addi	t3,t3,1
    3b24:	04097f03          	.insn	4, 0x04097f03
    3b28:	0100                	addi	s0,sp,128
    3b2a:	0705                	addi	a4,a4,1
    3b2c:	0306                	slli	t1,t1,0x1
    3b2e:	0901                	addi	s2,s2,0
    3b30:	0004                	.insn	2, 0x0004
    3b32:	0501                	addi	a0,a0,0
    3b34:	060c                	addi	a1,sp,768
    3b36:	00090003          	lb	zero,0(s2)
    3b3a:	0100                	addi	s0,sp,128
    3b3c:	0e05                	addi	t3,t3,1
    3b3e:	0306                	slli	t1,t1,0x1
    3b40:	097f 0004 0501 0609 	.insn	10, 0x0103060905010004097f
    3b48:	0103 
    3b4a:	0009                	c.nop	2
    3b4c:	0100                	addi	s0,sp,128
    3b4e:	0e05                	addi	t3,t3,1
    3b50:	04097f03          	.insn	4, 0x04097f03
    3b54:	0100                	addi	s0,sp,128
    3b56:	0705                	addi	a4,a4,1
    3b58:	0306                	slli	t1,t1,0x1
    3b5a:	0901                	addi	s2,s2,0
    3b5c:	0004                	.insn	2, 0x0004
    3b5e:	0501                	addi	a0,a0,0
    3b60:	060c                	addi	a1,sp,768
    3b62:	00090003          	lb	zero,0(s2)
    3b66:	0100                	addi	s0,sp,128
    3b68:	0e05                	addi	t3,t3,1
    3b6a:	0306                	slli	t1,t1,0x1
    3b6c:	097f 0004 0501 0609 	.insn	10, 0x0103060905010004097f
    3b74:	0103 
    3b76:	0009                	c.nop	2
    3b78:	0100                	addi	s0,sp,128
    3b7a:	0e05                	addi	t3,t3,1
    3b7c:	04097f03          	.insn	4, 0x04097f03
    3b80:	0100                	addi	s0,sp,128
    3b82:	0705                	addi	a4,a4,1
    3b84:	0306                	slli	t1,t1,0x1
    3b86:	0901                	addi	s2,s2,0
    3b88:	0004                	.insn	2, 0x0004
    3b8a:	0501                	addi	a0,a0,0
    3b8c:	060c                	addi	a1,sp,768
    3b8e:	00090003          	lb	zero,0(s2)
    3b92:	0100                	addi	s0,sp,128
    3b94:	0e05                	addi	t3,t3,1
    3b96:	0306                	slli	t1,t1,0x1
    3b98:	097f 0004 0501 0609 	.insn	10, 0x0103060905010004097f
    3ba0:	0103 
    3ba2:	0009                	c.nop	2
    3ba4:	0100                	addi	s0,sp,128
    3ba6:	0e05                	addi	t3,t3,1
    3ba8:	04097f03          	.insn	4, 0x04097f03
    3bac:	0100                	addi	s0,sp,128
    3bae:	0705                	addi	a4,a4,1
    3bb0:	0306                	slli	t1,t1,0x1
    3bb2:	0901                	addi	s2,s2,0
    3bb4:	0004                	.insn	2, 0x0004
    3bb6:	0501                	addi	a0,a0,0
    3bb8:	060c                	addi	a1,sp,768
    3bba:	00090003          	lb	zero,0(s2)
    3bbe:	0100                	addi	s0,sp,128
    3bc0:	0e05                	addi	t3,t3,1
    3bc2:	0306                	slli	t1,t1,0x1
    3bc4:	097f 0004 0501 0609 	.insn	10, 0x0103060905010004097f
    3bcc:	0103 
    3bce:	0009                	c.nop	2
    3bd0:	0100                	addi	s0,sp,128
    3bd2:	0e05                	addi	t3,t3,1
    3bd4:	04097f03          	.insn	4, 0x04097f03
    3bd8:	0100                	addi	s0,sp,128
    3bda:	0705                	addi	a4,a4,1
    3bdc:	0306                	slli	t1,t1,0x1
    3bde:	0901                	addi	s2,s2,0
    3be0:	0004                	.insn	2, 0x0004
    3be2:	0501                	addi	a0,a0,0
    3be4:	060c                	addi	a1,sp,768
    3be6:	00090003          	lb	zero,0(s2)
    3bea:	0100                	addi	s0,sp,128
    3bec:	0e05                	addi	t3,t3,1
    3bee:	0306                	slli	t1,t1,0x1
    3bf0:	097f 0004 0501 0609 	.insn	10, 0x0103060905010004097f
    3bf8:	0103 
    3bfa:	0009                	c.nop	2
    3bfc:	0100                	addi	s0,sp,128
    3bfe:	0e05                	addi	t3,t3,1
    3c00:	04097f03          	.insn	4, 0x04097f03
    3c04:	0100                	addi	s0,sp,128
    3c06:	0705                	addi	a4,a4,1
    3c08:	0306                	slli	t1,t1,0x1
    3c0a:	0901                	addi	s2,s2,0
    3c0c:	0004                	.insn	2, 0x0004
    3c0e:	0501                	addi	a0,a0,0
    3c10:	060c                	addi	a1,sp,768
    3c12:	00090003          	lb	zero,0(s2)
    3c16:	0100                	addi	s0,sp,128
    3c18:	0e05                	addi	t3,t3,1
    3c1a:	0306                	slli	t1,t1,0x1
    3c1c:	097f 0004 0501 0609 	.insn	10, 0x0103060905010004097f
    3c24:	0103 
    3c26:	0009                	c.nop	2
    3c28:	0100                	addi	s0,sp,128
    3c2a:	0e05                	addi	t3,t3,1
    3c2c:	04097f03          	.insn	4, 0x04097f03
    3c30:	0100                	addi	s0,sp,128
    3c32:	0705                	addi	a4,a4,1
    3c34:	0306                	slli	t1,t1,0x1
    3c36:	0901                	addi	s2,s2,0
    3c38:	0004                	.insn	2, 0x0004
    3c3a:	0501                	addi	a0,a0,0
    3c3c:	060c                	addi	a1,sp,768
    3c3e:	00090003          	lb	zero,0(s2)
    3c42:	0100                	addi	s0,sp,128
    3c44:	0e05                	addi	t3,t3,1
    3c46:	0306                	slli	t1,t1,0x1
    3c48:	097f 0004 0501 0609 	.insn	10, 0x0103060905010004097f
    3c50:	0103 
    3c52:	0009                	c.nop	2
    3c54:	0100                	addi	s0,sp,128
    3c56:	0e05                	addi	t3,t3,1
    3c58:	04097f03          	.insn	4, 0x04097f03
    3c5c:	0100                	addi	s0,sp,128
    3c5e:	0705                	addi	a4,a4,1
    3c60:	0306                	slli	t1,t1,0x1
    3c62:	0901                	addi	s2,s2,0
    3c64:	0004                	.insn	2, 0x0004
    3c66:	0501                	addi	a0,a0,0
    3c68:	060c                	addi	a1,sp,768
    3c6a:	00090003          	lb	zero,0(s2)
    3c6e:	0100                	addi	s0,sp,128
    3c70:	0e05                	addi	t3,t3,1
    3c72:	0306                	slli	t1,t1,0x1
    3c74:	097f 0004 0501 0609 	.insn	10, 0x0103060905010004097f
    3c7c:	0103 
    3c7e:	0009                	c.nop	2
    3c80:	0100                	addi	s0,sp,128
    3c82:	0e05                	addi	t3,t3,1
    3c84:	04097f03          	.insn	4, 0x04097f03
    3c88:	0100                	addi	s0,sp,128
    3c8a:	0705                	addi	a4,a4,1
    3c8c:	0306                	slli	t1,t1,0x1
    3c8e:	0901                	addi	s2,s2,0
    3c90:	0004                	.insn	2, 0x0004
    3c92:	0501                	addi	a0,a0,0
    3c94:	060c                	addi	a1,sp,768
    3c96:	00090003          	lb	zero,0(s2)
    3c9a:	0100                	addi	s0,sp,128
    3c9c:	0e05                	addi	t3,t3,1
    3c9e:	0306                	slli	t1,t1,0x1
    3ca0:	097f 0004 0501 0609 	.insn	10, 0x0103060905010004097f
    3ca8:	0103 
    3caa:	0009                	c.nop	2
    3cac:	0100                	addi	s0,sp,128
    3cae:	0e05                	addi	t3,t3,1
    3cb0:	04097f03          	.insn	4, 0x04097f03
    3cb4:	0100                	addi	s0,sp,128
    3cb6:	0705                	addi	a4,a4,1
    3cb8:	0306                	slli	t1,t1,0x1
    3cba:	0901                	addi	s2,s2,0
    3cbc:	0004                	.insn	2, 0x0004
    3cbe:	0501                	addi	a0,a0,0
    3cc0:	060c                	addi	a1,sp,768
    3cc2:	00090003          	lb	zero,0(s2)
    3cc6:	0100                	addi	s0,sp,128
    3cc8:	0e05                	addi	t3,t3,1
    3cca:	0306                	slli	t1,t1,0x1
    3ccc:	097f 0004 0501 0609 	.insn	10, 0x0103060905010004097f
    3cd4:	0103 
    3cd6:	0009                	c.nop	2
    3cd8:	0100                	addi	s0,sp,128
    3cda:	0e05                	addi	t3,t3,1
    3cdc:	04097f03          	.insn	4, 0x04097f03
    3ce0:	0100                	addi	s0,sp,128
    3ce2:	0705                	addi	a4,a4,1
    3ce4:	0306                	slli	t1,t1,0x1
    3ce6:	0901                	addi	s2,s2,0
    3ce8:	0004                	.insn	2, 0x0004
    3cea:	0501                	addi	a0,a0,0
    3cec:	060c                	addi	a1,sp,768
    3cee:	00090003          	lb	zero,0(s2)
    3cf2:	0100                	addi	s0,sp,128
    3cf4:	0e05                	addi	t3,t3,1
    3cf6:	0306                	slli	t1,t1,0x1
    3cf8:	097f 0004 0501 0609 	.insn	10, 0x0103060905010004097f
    3d00:	0103 
    3d02:	0009                	c.nop	2
    3d04:	0100                	addi	s0,sp,128
    3d06:	0e05                	addi	t3,t3,1
    3d08:	04097f03          	.insn	4, 0x04097f03
    3d0c:	0100                	addi	s0,sp,128
    3d0e:	0705                	addi	a4,a4,1
    3d10:	0306                	slli	t1,t1,0x1
    3d12:	0901                	addi	s2,s2,0
    3d14:	0004                	.insn	2, 0x0004
    3d16:	0501                	addi	a0,a0,0
    3d18:	060c                	addi	a1,sp,768
    3d1a:	00090003          	lb	zero,0(s2)
    3d1e:	0100                	addi	s0,sp,128
    3d20:	0e05                	addi	t3,t3,1
    3d22:	0306                	slli	t1,t1,0x1
    3d24:	097f 0004 0501 0609 	.insn	10, 0x0103060905010004097f
    3d2c:	0103 
    3d2e:	0009                	c.nop	2
    3d30:	0100                	addi	s0,sp,128
    3d32:	0e05                	addi	t3,t3,1
    3d34:	04097f03          	.insn	4, 0x04097f03
    3d38:	0100                	addi	s0,sp,128
    3d3a:	0705                	addi	a4,a4,1
    3d3c:	0306                	slli	t1,t1,0x1
    3d3e:	0901                	addi	s2,s2,0
    3d40:	0004                	.insn	2, 0x0004
    3d42:	0501                	addi	a0,a0,0
    3d44:	060c                	addi	a1,sp,768
    3d46:	00090003          	lb	zero,0(s2)
    3d4a:	0100                	addi	s0,sp,128
    3d4c:	0e05                	addi	t3,t3,1
    3d4e:	0306                	slli	t1,t1,0x1
    3d50:	097f 0004 0501 0303 	.insn	10, 0x0903030305010004097f
    3d58:	0903 
    3d5a:	0000                	unimp
    3d5c:	0501                	addi	a0,a0,0
    3d5e:	0601                	addi	a2,a2,0
    3d60:	00090103          	lb	sp,0(s2)
    3d64:	0100                	addi	s0,sp,128
    3d66:	0505                	addi	a0,a0,1
    3d68:	0306                	slli	t1,t1,0x1
    3d6a:	0972                	slli	s2,s2,0x1c
    3d6c:	0002                	c.slli64	zero
    3d6e:	0301                	addi	t1,t1,0
    3d70:	0901                	addi	s2,s2,0
    3d72:	0000                	unimp
    3d74:	0301                	addi	t1,t1,0
    3d76:	0901                	addi	s2,s2,0
    3d78:	0000                	unimp
    3d7a:	0301                	addi	t1,t1,0
    3d7c:	0901                	addi	s2,s2,0
    3d7e:	0000                	unimp
    3d80:	0501                	addi	a0,a0,0
    3d82:	7d03060f          	.insn	4, 0x7d03060f
    3d86:	0c09                	addi	s8,s8,2
    3d88:	0100                	addi	s0,sp,128
    3d8a:	0505                	addi	a0,a0,1
    3d8c:	0306                	slli	t1,t1,0x1
    3d8e:	0905                	addi	s2,s2,1
    3d90:	000a                	c.slli	zero,0x2
    3d92:	0301                	addi	t1,t1,0
    3d94:	0901                	addi	s2,s2,0
    3d96:	0000                	unimp
    3d98:	0501                	addi	a0,a0,0
    3d9a:	030e                	slli	t1,t1,0x3
    3d9c:	0900                	addi	s0,sp,144
    3d9e:	0000                	unimp
    3da0:	0501                	addi	a0,a0,0
    3da2:	0610                	addi	a2,sp,768
    3da4:	04097f03          	.insn	4, 0x04097f03
    3da8:	0100                	addi	s0,sp,128
    3daa:	0705                	addi	a4,a4,1
    3dac:	0306                	slli	t1,t1,0x1
    3dae:	0902                	c.slli64	s2
    3db0:	0002                	c.slli64	zero
    3db2:	0501                	addi	a0,a0,0
    3db4:	0609                	addi	a2,a2,2
    3db6:	00090003          	lb	zero,0(s2)
    3dba:	0100                	addi	s0,sp,128
    3dbc:	0c05                	addi	s8,s8,1
    3dbe:	02090003          	lb	zero,32(s2)
    3dc2:	0100                	addi	s0,sp,128
    3dc4:	0e05                	addi	t3,t3,1
    3dc6:	0306                	slli	t1,t1,0x1
    3dc8:	097f 0004 0501 0609 	.insn	10, 0x0503060905010004097f
    3dd0:	0503 
    3dd2:	0809                	addi	a6,a6,2
    3dd4:	0100                	addi	s0,sp,128
    3dd6:	0b05                	addi	s6,s6,1
    3dd8:	0e097e03          	.insn	4, 0x0e097e03
    3ddc:	0100                	addi	s0,sp,128
    3dde:	0905                	addi	s2,s2,1
    3de0:	08090203          	lb	tp,128(s2)
    3de4:	0100                	addi	s0,sp,128
    3de6:	0105                	addi	sp,sp,1
    3de8:	0306                	slli	t1,t1,0x1
    3dea:	7dcc                	ld	a1,184(a1)
    3dec:	0409                	addi	s0,s0,2
    3dee:	0100                	addi	s0,sp,128
    3df0:	0305                	addi	t1,t1,1
    3df2:	00090103          	lb	sp,0(s2)
    3df6:	0100                	addi	s0,sp,128
    3df8:	00097603          	.insn	4, 0x00097603
    3dfc:	0100                	addi	s0,sp,128
    3dfe:	00090103          	lb	sp,0(s2)
    3e02:	0100                	addi	s0,sp,128
    3e04:	00090103          	lb	sp,0(s2)
    3e08:	0100                	addi	s0,sp,128
    3e0a:	0105                	addi	sp,sp,1
    3e0c:	0306                	slli	t1,t1,0x1
    3e0e:	00000907          	.insn	4, 0x0907
    3e12:	0501                	addi	a0,a0,0
    3e14:	09790323          	sb	s7,134(s2)
    3e18:	0002                	c.slli64	zero
    3e1a:	0501                	addi	a0,a0,0
    3e1c:	0301                	addi	t1,t1,0
    3e1e:	00040907          	.insn	4, 0x00040907
    3e22:	0501                	addi	a0,a0,0
    3e24:	09790323          	sb	s7,134(s2)
    3e28:	0002                	c.slli64	zero
    3e2a:	0501                	addi	a0,a0,0
    3e2c:	0301                	addi	t1,t1,0
    3e2e:	00040907          	.insn	4, 0x00040907
    3e32:	0501                	addi	a0,a0,0
    3e34:	09790323          	sb	s7,134(s2)
    3e38:	0002                	c.slli64	zero
    3e3a:	0501                	addi	a0,a0,0
    3e3c:	01030603          	lb	a2,16(t1)
    3e40:	0409                	addi	s0,s0,2
    3e42:	0100                	addi	s0,sp,128
    3e44:	0105                	addi	sp,sp,1
    3e46:	0306                	slli	t1,t1,0x1
    3e48:	0906                	slli	s2,s2,0x1
    3e4a:	0000                	unimp
    3e4c:	0501                	addi	a0,a0,0
    3e4e:	097a0303          	lb	t1,151(s4)
    3e52:	0004                	.insn	2, 0x0004
    3e54:	0501                	addi	a0,a0,0
    3e56:	0301                	addi	t1,t1,0
    3e58:	0906                	slli	s2,s2,0x1
    3e5a:	0002                	c.slli64	zero
    3e5c:	0501                	addi	a0,a0,0
    3e5e:	097a0303          	lb	t1,151(s4)
    3e62:	0008                	.insn	2, 0x0008
    3e64:	0501                	addi	a0,a0,0
    3e66:	0301                	addi	t1,t1,0
    3e68:	0906                	slli	s2,s2,0x1
    3e6a:	0004                	.insn	2, 0x0004
    3e6c:	0301                	addi	t1,t1,0
    3e6e:	0900                	addi	s0,sp,144
    3e70:	0006                	c.slli	zero,0x1
    3e72:	0501                	addi	a0,a0,0
    3e74:	097a0303          	lb	t1,151(s4)
    3e78:	0004                	.insn	2, 0x0004
    3e7a:	0601                	addi	a2,a2,0
    3e7c:	06090103          	lb	sp,96(s2)
    3e80:	0100                	addi	s0,sp,128
    3e82:	00090103          	lb	sp,0(s2)
    3e86:	0100                	addi	s0,sp,128
    3e88:	2105                	addiw	sp,sp,1
    3e8a:	0306                	slli	t1,t1,0x1
    3e8c:	097f 0000 0501 0303 	.insn	10, 0x0901030305010000097f
    3e94:	0901 
    3e96:	0004                	.insn	2, 0x0004
    3e98:	0601                	addi	a2,a2,0
    3e9a:	0e090603          	lb	a2,224(s2)
    3e9e:	0100                	addi	s0,sp,128
    3ea0:	08090103          	lb	sp,128(s2)
    3ea4:	0100                	addi	s0,sp,128
    3ea6:	097efa03          	.insn	4, 0x097efa03
    3eaa:	0000                	unimp
    3eac:	0501                	addi	a0,a0,0
    3eae:	0302                	c.slli64	t1
    3eb0:	0901                	addi	s2,s2,0
    3eb2:	0000                	unimp
    3eb4:	0501                	addi	a0,a0,0
    3eb6:	060c                	addi	a1,sp,768
    3eb8:	00090003          	lb	zero,0(s2)
    3ebc:	0100                	addi	s0,sp,128
    3ebe:	0305                	addi	t1,t1,1
    3ec0:	0306                	slli	t1,t1,0x1
    3ec2:	0188                	addi	a0,sp,192
    3ec4:	0a09                	addi	s4,s4,2
    3ec6:	0100                	addi	s0,sp,128
    3ec8:	0d05                	addi	s10,s10,1
    3eca:	0306                	slli	t1,t1,0x1
    3ecc:	0900                	addi	s0,sp,144
    3ece:	0000                	unimp
    3ed0:	0501                	addi	a0,a0,0
    3ed2:	0311                	addi	t1,t1,4
    3ed4:	0905                	addi	s2,s2,1
    3ed6:	0008                	.insn	2, 0x0008
    3ed8:	0501                	addi	a0,a0,0
    3eda:	030d                	addi	t1,t1,3
    3edc:	000c097b          	.insn	4, 0x000c097b
    3ee0:	0501                	addi	a0,a0,0
    3ee2:	02030603          	lb	a2,32(t1)
    3ee6:	0209                	addi	tp,tp,2 # 2 <_start-0x7ffffffe>
    3ee8:	0100                	addi	s0,sp,128
    3eea:	00090103          	lb	sp,0(s2)
    3eee:	0100                	addi	s0,sp,128
    3ef0:	00090103          	lb	sp,0(s2)
    3ef4:	0100                	addi	s0,sp,128
    3ef6:	0805                	addi	a6,a6,1
    3ef8:	00090003          	lb	zero,0(s2)
    3efc:	0100                	addi	s0,sp,128
    3efe:	1505                	addi	a0,a0,-31
    3f00:	0200                	addi	s0,sp,256
    3f02:	0104                	addi	s1,sp,128
    3f04:	00090003          	lb	zero,0(s2)
    3f08:	0100                	addi	s0,sp,128
    3f0a:	0505                	addi	a0,a0,1
    3f0c:	00090103          	lb	sp,0(s2)
    3f10:	0100                	addi	s0,sp,128
    3f12:	0805                	addi	a6,a6,1
    3f14:	0306                	slli	t1,t1,0x1
    3f16:	0900                	addi	s0,sp,144
    3f18:	0000                	unimp
    3f1a:	0501                	addi	a0,a0,0
    3f1c:	0026                	c.slli	zero,0x9
    3f1e:	0402                	c.slli64	s0
    3f20:	0602                	c.slli64	a2
    3f22:	02097f03          	.insn	4, 0x02097f03
    3f26:	0100                	addi	s0,sp,128
    3f28:	1505                	addi	a0,a0,-31
    3f2a:	0200                	addi	s0,sp,256
    3f2c:	0104                	addi	s1,sp,128
    3f2e:	00090003          	lb	zero,0(s2)
    3f32:	0100                	addi	s0,sp,128
    3f34:	0505                	addi	a0,a0,1
    3f36:	00090103          	lb	sp,0(s2)
    3f3a:	0100                	addi	s0,sp,128
    3f3c:	0905                	addi	s2,s2,1
    3f3e:	0306                	slli	t1,t1,0x1
    3f40:	097e                	slli	s2,s2,0x1f
    3f42:	0000                	unimp
    3f44:	0501                	addi	a0,a0,0
    3f46:	0308                	addi	a0,sp,384
    3f48:	0902                	c.slli64	s2
    3f4a:	0002                	c.slli64	zero
    3f4c:	0501                	addi	a0,a0,0
    3f4e:	01030607          	.insn	4, 0x01030607
    3f52:	0409                	addi	s0,s0,2
    3f54:	0100                	addi	s0,sp,128
    3f56:	0f05                	addi	t5,t5,1
    3f58:	0306                	slli	t1,t1,0x1
    3f5a:	0900                	addi	s0,sp,144
    3f5c:	0000                	unimp
    3f5e:	0501                	addi	a0,a0,0
    3f60:	000c                	.insn	2, 0x000c
    3f62:	0402                	c.slli64	s0
    3f64:	0301                	addi	t1,t1,0
    3f66:	0900                	addi	s0,sp,144
    3f68:	0014                	.insn	2, 0x0014
    3f6a:	0501                	addi	a0,a0,0
    3f6c:	0026                	c.slli	zero,0x9
    3f6e:	0402                	c.slli64	s0
    3f70:	0602                	c.slli64	a2
    3f72:	02097e03          	.insn	4, 0x02097e03
    3f76:	0100                	addi	s0,sp,128
    3f78:	1505                	addi	a0,a0,-31
    3f7a:	0200                	addi	s0,sp,256
    3f7c:	0104                	addi	s1,sp,128
    3f7e:	00090003          	lb	zero,0(s2)
    3f82:	0100                	addi	s0,sp,128
    3f84:	0305                	addi	t1,t1,1
    3f86:	00090303          	lb	t1,0(s2)
    3f8a:	0100                	addi	s0,sp,128
    3f8c:	0605                	addi	a2,a2,1
    3f8e:	0306                	slli	t1,t1,0x1
    3f90:	0900                	addi	s0,sp,144
    3f92:	0000                	unimp
    3f94:	0501                	addi	a0,a0,0
    3f96:	060c                	addi	a1,sp,768
    3f98:	097f8503          	lb	a0,151(t6)
    3f9c:	0004                	.insn	2, 0x0004
    3f9e:	0501                	addi	a0,a0,0
    3fa0:	0402000b          	.insn	4, 0x0402000b
    3fa4:	0601                	addi	a2,a2,0
    3fa6:	06097303          	.insn	4, 0x06097303
    3faa:	0100                	addi	s0,sp,128
    3fac:	0c05                	addi	s8,s8,1
    3fae:	04090d03          	lb	s10,64(s2)
    3fb2:	0100                	addi	s0,sp,128
    3fb4:	0b05                	addi	s6,s6,1
    3fb6:	0200                	addi	s0,sp,256
    3fb8:	0104                	addi	s1,sp,128
    3fba:	02097303          	.insn	4, 0x02097303
    3fbe:	0100                	addi	s0,sp,128
    3fc0:	0905                	addi	s2,s2,1
    3fc2:	0306                	slli	t1,t1,0x1
    3fc4:	090e                	slli	s2,s2,0x3
    3fc6:	0006                	c.slli	zero,0x1
    3fc8:	0501                	addi	a0,a0,0
    3fca:	0616                	slli	a2,a2,0x5
    3fcc:	00090003          	lb	zero,0(s2)
    3fd0:	0100                	addi	s0,sp,128
    3fd2:	0305                	addi	t1,t1,1
    3fd4:	0306                	slli	t1,t1,0x1
    3fd6:	0002096f          	jal	s2,23fd6 <_start-0x7ffdc02a>
    3fda:	0301                	addi	t1,t1,0
    3fdc:	0901                	addi	s2,s2,0
    3fde:	0000                	unimp
    3fe0:	0501                	addi	a0,a0,0
    3fe2:	0302                	c.slli64	t1
    3fe4:	0902                	c.slli64	s2
    3fe6:	0000                	unimp
    3fe8:	0501                	addi	a0,a0,0
    3fea:	0009                	c.nop	2
    3fec:	0402                	c.slli64	s0
    3fee:	0301                	addi	t1,t1,0
    3ff0:	0900                	addi	s0,sp,144
    3ff2:	0000                	unimp
    3ff4:	0501                	addi	a0,a0,0
    3ff6:	0402000b          	.insn	4, 0x0402000b
    3ffa:	0601                	addi	a2,a2,0
    3ffc:	00090003          	lb	zero,0(s2)
    4000:	0100                	addi	s0,sp,128
    4002:	0905                	addi	s2,s2,1
    4004:	0200                	addi	s0,sp,256
    4006:	0104                	addi	s1,sp,128
    4008:	04090003          	lb	zero,64(s2)
    400c:	0100                	addi	s0,sp,128
    400e:	0205                	addi	tp,tp,1 # 1 <_start-0x7fffffff>
    4010:	0306                	slli	t1,t1,0x1
    4012:	0901                	addi	s2,s2,0
    4014:	0006                	c.slli	zero,0x1
    4016:	0501                	addi	a0,a0,0
    4018:	060c                	addi	a1,sp,768
    401a:	00090003          	lb	zero,0(s2)
    401e:	0100                	addi	s0,sp,128
    4020:	0306                	slli	t1,t1,0x1
    4022:	090c                	addi	a1,sp,144
    4024:	0004                	.insn	2, 0x0004
    4026:	0501                	addi	a0,a0,0
    4028:	00fe0303          	lb	t1,15(t3)
    402c:	0609                	addi	a2,a2,2
    402e:	0100                	addi	s0,sp,128
    4030:	097fbe03          	ld	t3,151(t6)
    4034:	0000                	unimp
    4036:	0501                	addi	a0,a0,0
    4038:	093e0307          	.insn	4, 0x093e0307
    403c:	0006                	c.slli	zero,0x1
    403e:	0501                	addi	a0,a0,0
    4040:	0003060f          	.insn	4, 0x0003060f
    4044:	0009                	c.nop	2
    4046:	0100                	addi	s0,sp,128
    4048:	0c05                	addi	s8,s8,1
    404a:	0200                	addi	s0,sp,256
    404c:	0104                	addi	s1,sp,128
    404e:	12090003          	lb	zero,288(s2)
    4052:	0100                	addi	s0,sp,128
    4054:	2605                	addiw	a2,a2,1
    4056:	0200                	addi	s0,sp,256
    4058:	0204                	addi	s1,sp,256
    405a:	0306                	slli	t1,t1,0x1
    405c:	097e                	slli	s2,s2,0x1f
    405e:	0004                	.insn	2, 0x0004
    4060:	0501                	addi	a0,a0,0
    4062:	0015                	c.nop	5
    4064:	0402                	c.slli64	s0
    4066:	0301                	addi	t1,t1,0
    4068:	0900                	addi	s0,sp,144
    406a:	0000                	unimp
    406c:	0501                	addi	a0,a0,0
    406e:	0305                	addi	t1,t1,1
    4070:	0901                	addi	s2,s2,0
    4072:	0000                	unimp
    4074:	0501                	addi	a0,a0,0
    4076:	0608                	addi	a0,sp,768
    4078:	00090003          	lb	zero,0(s2)
    407c:	0100                	addi	s0,sp,128
    407e:	0105                	addi	sp,sp,1
    4080:	0306                	slli	t1,t1,0x1
    4082:	060902af          	.insn	4, 0x060902af
    4086:	0100                	addi	s0,sp,128
    4088:	0305                	addi	t1,t1,1
    408a:	00090103          	lb	sp,0(s2)
    408e:	0100                	addi	s0,sp,128
    4090:	00090103          	lb	sp,0(s2)
    4094:	0100                	addi	s0,sp,128
    4096:	0a05                	addi	s4,s4,1
    4098:	00090003          	lb	zero,0(s2)
    409c:	0100                	addi	s0,sp,128
    409e:	0f05                	addi	t5,t5,1
    40a0:	0306                	slli	t1,t1,0x1
    40a2:	097f 0006 0501 0605 	.insn	10, 0x0203060505010006097f
    40aa:	0203 
    40ac:	0209                	addi	tp,tp,2 # 2 <_start-0x7ffffffe>
    40ae:	0100                	addi	s0,sp,128
    40b0:	0a05                	addi	s4,s4,1
    40b2:	0306                	slli	t1,t1,0x1
    40b4:	097f 0000 0501 0306 	.insn	10, 0x0901030605010000097f
    40bc:	0901 
    40be:	0004                	.insn	2, 0x0004
    40c0:	0501                	addi	a0,a0,0
    40c2:	060a                	slli	a2,a2,0x2
    40c4:	02097f03          	.insn	4, 0x02097f03
    40c8:	0100                	addi	s0,sp,128
    40ca:	0c05                	addi	s8,s8,1
    40cc:	0306                	slli	t1,t1,0x1
    40ce:	0902                	c.slli64	s2
    40d0:	0002                	c.slli64	zero
    40d2:	0501                	addi	a0,a0,0
    40d4:	030a                	slli	t1,t1,0x2
    40d6:	097e                	slli	s2,s2,0x1f
    40d8:	0006                	c.slli	zero,0x1
    40da:	0501                	addi	a0,a0,0
    40dc:	02030603          	lb	a2,32(t1)
    40e0:	0209                	addi	tp,tp,2 # 2 <_start-0x7ffffffe>
    40e2:	0100                	addi	s0,sp,128
    40e4:	0105                	addi	sp,sp,1
    40e6:	0306                	slli	t1,t1,0x1
    40e8:	0901                	addi	s2,s2,0
    40ea:	0000                	unimp
    40ec:	0601                	addi	a2,a2,0
    40ee:	02090303          	lb	t1,32(s2)
    40f2:	0100                	addi	s0,sp,128
    40f4:	0305                	addi	t1,t1,1
    40f6:	00090103          	lb	sp,0(s2)
    40fa:	0100                	addi	s0,sp,128
    40fc:	00090103          	lb	sp,0(s2)
    4100:	0100                	addi	s0,sp,128
    4102:	0e05                	addi	t3,t3,1
    4104:	00090003          	lb	zero,0(s2)
    4108:	0100                	addi	s0,sp,128
    410a:	0f05                	addi	t5,t5,1
    410c:	0306                	slli	t1,t1,0x1
    410e:	097f 0004 0501 030e 	.insn	10, 0x0901030e05010004097f
    4116:	0901 
    4118:	0002                	c.slli64	zero
    411a:	0501                	addi	a0,a0,0
    411c:	0306                	slli	t1,t1,0x1
    411e:	0901                	addi	s2,s2,0
    4120:	0004                	.insn	2, 0x0004
    4122:	0501                	addi	a0,a0,0
    4124:	060e                	slli	a2,a2,0x3
    4126:	02097f03          	.insn	4, 0x02097f03
    412a:	0100                	addi	s0,sp,128
    412c:	0505                	addi	a0,a0,1
    412e:	04090103          	lb	sp,64(s2)
    4132:	0100                	addi	s0,sp,128
    4134:	0e05                	addi	t3,t3,1
    4136:	0200                	addi	s0,sp,256
    4138:	0104                	addi	s1,sp,128
    413a:	0306                	slli	t1,t1,0x1
    413c:	097f 0000 0501 030c 	.insn	10, 0x0902030c05010000097f
    4144:	0902 
    4146:	0006                	c.slli	zero,0x1
    4148:	0501                	addi	a0,a0,0
    414a:	00030603          	lb	a2,0(t1)
    414e:	0409                	addi	s0,s0,2
    4150:	0100                	addi	s0,sp,128
    4152:	0105                	addi	sp,sp,1
    4154:	0306                	slli	t1,t1,0x1
    4156:	0901                	addi	s2,s2,0
    4158:	0000                	unimp
    415a:	0501                	addi	a0,a0,0
    415c:	030c                	addi	a1,sp,384
    415e:	097f 0002 0501 030e 	.insn	10, 0x097e030e05010002097f
    4166:	097e 
    4168:	0004                	.insn	2, 0x0004
    416a:	0501                	addi	a0,a0,0
    416c:	0601                	addi	a2,a2,0
    416e:	04090603          	lb	a2,64(s2)
    4172:	0100                	addi	s0,sp,128
    4174:	0305                	addi	t1,t1,1
    4176:	00090103          	lb	sp,0(s2)
    417a:	0100                	addi	s0,sp,128
    417c:	00090203          	lb	tp,0(s2)
    4180:	0100                	addi	s0,sp,128
    4182:	0505                	addi	a0,a0,1
    4184:	00090103          	lb	sp,0(s2)
    4188:	0100                	addi	s0,sp,128
    418a:	0805                	addi	a6,a6,1
    418c:	0306                	slli	t1,t1,0x1
    418e:	0900                	addi	s0,sp,144
    4190:	0000                	unimp
    4192:	0501                	addi	a0,a0,0
    4194:	030d                	addi	t1,t1,3
    4196:	0900                	addi	s0,sp,144
    4198:	0004                	.insn	2, 0x0004
    419a:	0501                	addi	a0,a0,0
    419c:	0605                	addi	a2,a2,1
    419e:	02090103          	lb	sp,32(s2)
    41a2:	0100                	addi	s0,sp,128
    41a4:	0d05                	addi	s10,s10,1
    41a6:	0306                	slli	t1,t1,0x1
    41a8:	0900                	addi	s0,sp,144
    41aa:	0000                	unimp
    41ac:	0501                	addi	a0,a0,0
    41ae:	0308                	addi	a0,sp,384
    41b0:	0900                	addi	s0,sp,144
    41b2:	0002                	c.slli64	zero
    41b4:	0501                	addi	a0,a0,0
    41b6:	0014                	.insn	2, 0x0014
    41b8:	0402                	c.slli64	s0
    41ba:	0602                	c.slli64	a2
    41bc:	04090103          	lb	sp,64(s2)
    41c0:	0100                	addi	s0,sp,128
    41c2:	0200                	addi	s0,sp,256
    41c4:	0104                	addi	s1,sp,128
    41c6:	0306                	slli	t1,t1,0x1
    41c8:	0900                	addi	s0,sp,144
    41ca:	0002                	c.slli64	zero
    41cc:	0501                	addi	a0,a0,0
    41ce:	030d                	addi	t1,t1,3
    41d0:	0902                	c.slli64	s2
    41d2:	0004                	.insn	2, 0x0004
    41d4:	0501                	addi	a0,a0,0
    41d6:	00030603          	lb	a2,0(t1)
    41da:	0409                	addi	s0,s0,2
    41dc:	0100                	addi	s0,sp,128
    41de:	0105                	addi	sp,sp,1
    41e0:	0306                	slli	t1,t1,0x1
    41e2:	0901                	addi	s2,s2,0
    41e4:	0000                	unimp
    41e6:	0601                	addi	a2,a2,0
    41e8:	08090303          	lb	t1,128(s2)
    41ec:	0100                	addi	s0,sp,128
    41ee:	0305                	addi	t1,t1,1
    41f0:	00090103          	lb	sp,0(s2)
    41f4:	0100                	addi	s0,sp,128
    41f6:	00090103          	lb	sp,0(s2)
    41fa:	0100                	addi	s0,sp,128
    41fc:	0905                	addi	s2,s2,1
    41fe:	0306                	slli	t1,t1,0x1
    4200:	097f 0000 0501 000a 	.insn	10, 0x0402000a05010000097f
    4208:	0402 
    420a:	0601                	addi	a2,a2,0
    420c:	02090103          	lb	sp,32(s2)
    4210:	0100                	addi	s0,sp,128
    4212:	1205                	addi	tp,tp,-31 # ffffffffffffffe1 <__global_pointer$+0xffffffff7fffd799>
    4214:	0200                	addi	s0,sp,256
    4216:	0104                	addi	s1,sp,128
    4218:	0306                	slli	t1,t1,0x1
    421a:	0900                	addi	s0,sp,144
    421c:	0000                	unimp
    421e:	0501                	addi	a0,a0,0
    4220:	0016                	c.slli	zero,0x5
    4222:	0402                	c.slli64	s0
    4224:	0301                	addi	t1,t1,0
    4226:	0900                	addi	s0,sp,144
    4228:	0004                	.insn	2, 0x0004
    422a:	0501                	addi	a0,a0,0
    422c:	000d                	c.nop	3
    422e:	0402                	c.slli64	s0
    4230:	0301                	addi	t1,t1,0
    4232:	0900                	addi	s0,sp,144
    4234:	0002                	c.slli64	zero
    4236:	0501                	addi	a0,a0,0
    4238:	0010                	.insn	2, 0x0010
    423a:	0402                	c.slli64	s0
    423c:	0301                	addi	t1,t1,0
    423e:	0900                	addi	s0,sp,144
    4240:	0002                	c.slli64	zero
    4242:	0501                	addi	a0,a0,0
    4244:	000a                	c.slli	zero,0x2
    4246:	0402                	c.slli64	s0
    4248:	0301                	addi	t1,t1,0
    424a:	0900                	addi	s0,sp,144
    424c:	0004                	.insn	2, 0x0004
    424e:	0501                	addi	a0,a0,0
    4250:	02030603          	lb	a2,32(t1)
    4254:	0209                	addi	tp,tp,2 # 2 <_start-0x7ffffffe>
    4256:	0100                	addi	s0,sp,128
    4258:	0105                	addi	sp,sp,1
    425a:	0306                	slli	t1,t1,0x1
    425c:	0901                	addi	s2,s2,0
    425e:	0000                	unimp
    4260:	0601                	addi	a2,a2,0
    4262:	02090303          	lb	t1,32(s2)
    4266:	0100                	addi	s0,sp,128
    4268:	0305                	addi	t1,t1,1
    426a:	00090103          	lb	sp,0(s2)
    426e:	0100                	addi	s0,sp,128
    4270:	00090103          	lb	sp,0(s2)
    4274:	0100                	addi	s0,sp,128
    4276:	00090203          	lb	tp,0(s2)
    427a:	0100                	addi	s0,sp,128
    427c:	0a05                	addi	s4,s4,1
    427e:	0306                	slli	t1,t1,0x1
    4280:	0900                	addi	s0,sp,144
    4282:	0000                	unimp
    4284:	0501                	addi	a0,a0,0
    4286:	0900030f          	.insn	4, 0x0900030f
    428a:	0004                	.insn	2, 0x0004
    428c:	0501                	addi	a0,a0,0
    428e:	0301                	addi	t1,t1,0
    4290:	097c                	addi	a5,sp,156
    4292:	0004                	.insn	2, 0x0004
    4294:	0501                	addi	a0,a0,0
    4296:	0403060f          	.insn	4, 0x0403060f
    429a:	0209                	addi	tp,tp,2 # 2 <_start-0x7ffffffe>
    429c:	0100                	addi	s0,sp,128
    429e:	0505                	addi	a0,a0,1
    42a0:	06090103          	lb	sp,96(s2)
    42a4:	0100                	addi	s0,sp,128
    42a6:	0a05                	addi	s4,s4,1
    42a8:	0306                	slli	t1,t1,0x1
    42aa:	097f 0000 0501 0308 	.insn	10, 0x0901030805010000097f
    42b2:	0901 
    42b4:	0004                	.insn	2, 0x0004
    42b6:	0501                	addi	a0,a0,0
    42b8:	7f03060f          	.insn	4, 0x7f03060f
    42bc:	0209                	addi	tp,tp,2 # 2 <_start-0x7ffffffe>
    42be:	0100                	addi	s0,sp,128
    42c0:	0305                	addi	t1,t1,1
    42c2:	04090303          	lb	t1,64(s2)
    42c6:	0100                	addi	s0,sp,128
    42c8:	0605                	addi	a2,a2,1
    42ca:	0306                	slli	t1,t1,0x1
    42cc:	0900                	addi	s0,sp,144
    42ce:	0000                	unimp
    42d0:	0501                	addi	a0,a0,0
    42d2:	04020013          	addi	zero,tp,64 # 40 <_start-0x7fffffc0>
    42d6:	0301                	addi	t1,t1,0
    42d8:	0900                	addi	s0,sp,144
    42da:	0008                	.insn	2, 0x0008
    42dc:	0501                	addi	a0,a0,0
    42de:	060a                	slli	a2,a2,0x2
    42e0:	08090503          	lb	a0,128(s2)
    42e4:	0100                	addi	s0,sp,128
    42e6:	0705                	addi	a4,a4,1
    42e8:	0306                	slli	t1,t1,0x1
    42ea:	0976                	slli	s2,s2,0x1d
    42ec:	0000                	unimp
    42ee:	0501                	addi	a0,a0,0
    42f0:	030a                	slli	t1,t1,0x2
    42f2:	090a                	slli	s2,s2,0x2
    42f4:	0002                	c.slli64	zero
    42f6:	0501                	addi	a0,a0,0
    42f8:	09760307          	.insn	4, 0x09760307
    42fc:	0002                	c.slli64	zero
    42fe:	0501                	addi	a0,a0,0
    4300:	0605                	addi	a2,a2,1
    4302:	02090b03          	lb	s6,32(s2)
    4306:	0100                	addi	s0,sp,128
    4308:	1005                	c.nop	-31
    430a:	0306                	slli	t1,t1,0x1
    430c:	0901                	addi	s2,s2,0
    430e:	0000                	unimp
    4310:	0501                	addi	a0,a0,0
    4312:	09000313          	li	t1,144
    4316:	0002                	c.slli64	zero
    4318:	0501                	addi	a0,a0,0
    431a:	0309                	addi	t1,t1,2
    431c:	097f 0004 0501 030a 	.insn	10, 0x097f030a05010004097f
    4324:	097f 
    4326:	0004                	.insn	2, 0x0004
    4328:	0501                	addi	a0,a0,0
    432a:	0309                	addi	t1,t1,2
    432c:	0901                	addi	s2,s2,0
    432e:	0004                	.insn	2, 0x0004
    4330:	0501                	addi	a0,a0,0
    4332:	0605                	addi	a2,a2,1
    4334:	04090103          	lb	sp,64(s2)
    4338:	0100                	addi	s0,sp,128
    433a:	0905                	addi	s2,s2,1
    433c:	0306                	slli	t1,t1,0x1
    433e:	0900                	addi	s0,sp,144
    4340:	0000                	unimp
    4342:	0501                	addi	a0,a0,0
    4344:	060a                	slli	a2,a2,0x2
    4346:	04097e03          	.insn	4, 0x04097e03
    434a:	0100                	addi	s0,sp,128
    434c:	0305                	addi	t1,t1,1
    434e:	02090503          	lb	a0,32(s2)
    4352:	0100                	addi	s0,sp,128
    4354:	1605                	addi	a2,a2,-31
    4356:	0306                	slli	t1,t1,0x1
    4358:	0900                	addi	s0,sp,144
    435a:	0000                	unimp
    435c:	0001                	nop
    435e:	0402                	c.slli64	s0
    4360:	0301                	addi	t1,t1,0
    4362:	0900                	addi	s0,sp,144
    4364:	0002                	c.slli64	zero
    4366:	0501                	addi	a0,a0,0
    4368:	0605                	addi	a2,a2,1
    436a:	06097703          	.insn	4, 0x06097703
    436e:	0100                	addi	s0,sp,128
    4370:	00090103          	lb	sp,0(s2)
    4374:	0100                	addi	s0,sp,128
    4376:	0a05                	addi	s4,s4,1
    4378:	0306                	slli	t1,t1,0x1
    437a:	00000903          	lb	s2,0(zero) # 0 <_start-0x80000000>
    437e:	0501                	addi	a0,a0,0
    4380:	0308                	addi	a0,sp,384
    4382:	097d                	addi	s2,s2,31
    4384:	0004                	.insn	2, 0x0004
    4386:	0501                	addi	a0,a0,0
    4388:	060a                	slli	a2,a2,0x2
    438a:	02090303          	lb	t1,32(s2)
    438e:	0100                	addi	s0,sp,128
    4390:	0306                	slli	t1,t1,0x1
    4392:	097c                	addi	a5,sp,156
    4394:	0002                	c.slli64	zero
    4396:	0501                	addi	a0,a0,0
    4398:	0605                	addi	a2,a2,1
    439a:	04090003          	lb	zero,64(s2)
    439e:	0100                	addi	s0,sp,128
    43a0:	00090103          	lb	sp,0(s2)
    43a4:	0100                	addi	s0,sp,128
    43a6:	0a05                	addi	s4,s4,1
    43a8:	00090303          	lb	t1,0(s2)
    43ac:	0100                	addi	s0,sp,128
    43ae:	0306                	slli	t1,t1,0x1
    43b0:	097c                	addi	a5,sp,156
    43b2:	0004                	.insn	2, 0x0004
    43b4:	0501                	addi	a0,a0,0
    43b6:	0308                	addi	a0,sp,384
    43b8:	0901                	addi	s2,s2,0
    43ba:	0002                	c.slli64	zero
    43bc:	0501                	addi	a0,a0,0
    43be:	030a                	slli	t1,t1,0x2
    43c0:	00020903          	lb	s2,0(tp) # 0 <_start-0x80000000>
    43c4:	0501                	addi	a0,a0,0
    43c6:	0016                	c.slli	zero,0x5
    43c8:	0402                	c.slli64	s0
    43ca:	0302                	c.slli64	t1
    43cc:	0905                	addi	s2,s2,1
    43ce:	0002                	c.slli64	zero
    43d0:	0501                	addi	a0,a0,0
    43d2:	0301                	addi	t1,t1,0
    43d4:	0901                	addi	s2,s2,0
    43d6:	0002                	c.slli64	zero
    43d8:	0901                	addi	s2,s2,0
    43da:	0002                	c.slli64	zero
    43dc:	0100                	addi	s0,sp,128
    43de:	0501                	addi	a0,a0,0
    43e0:	0001                	nop
    43e2:	0209                	addi	tp,tp,2 # 2 <_start-0x7ffffffe>
    43e4:	134e                	slli	t1,t1,0x33
    43e6:	8000                	.insn	2, 0x8000
    43e8:	0000                	unimp
    43ea:	0000                	unimp
    43ec:	01018b03          	lb	s6,16(gp) # 80002858 <__global_pointer$+0x10>
    43f0:	0305                	addi	t1,t1,1
    43f2:	00090203          	lb	tp,0(s2)
    43f6:	0100                	addi	s0,sp,128
    43f8:	00096a03          	lwu	s4,0(s2)
    43fc:	0100                	addi	s0,sp,128
    43fe:	0505                	addi	a0,a0,1
    4400:	097fb703          	ld	a4,151(t6)
    4404:	0000                	unimp
    4406:	0501                	addi	a0,a0,0
    4408:	030c                	addi	a1,sp,384
    440a:	0900                	addi	s0,sp,144
    440c:	0000                	unimp
    440e:	0501                	addi	a0,a0,0
    4410:	0402000b          	.insn	4, 0x0402000b
    4414:	0601                	addi	a2,a2,0
    4416:	00097303          	.insn	4, 0x00097303
    441a:	0100                	addi	s0,sp,128
    441c:	0c05                	addi	s8,s8,1
    441e:	06090d03          	lb	s10,96(s2)
    4422:	0100                	addi	s0,sp,128
    4424:	0b05                	addi	s6,s6,1
    4426:	0200                	addi	s0,sp,256
    4428:	0104                	addi	s1,sp,128
    442a:	0c097303          	.insn	4, 0x0c097303
    442e:	0100                	addi	s0,sp,128
    4430:	0905                	addi	s2,s2,1
    4432:	0306                	slli	t1,t1,0x1
    4434:	090e                	slli	s2,s2,0x3
    4436:	0004                	.insn	2, 0x0004
    4438:	0501                	addi	a0,a0,0
    443a:	0616                	slli	a2,a2,0x5
    443c:	00090003          	lb	zero,0(s2)
    4440:	0100                	addi	s0,sp,128
    4442:	0305                	addi	t1,t1,1
    4444:	0306                	slli	t1,t1,0x1
    4446:	0002096f          	jal	s2,24446 <_start-0x7ffdbbba>
    444a:	0301                	addi	t1,t1,0
    444c:	0901                	addi	s2,s2,0
    444e:	0000                	unimp
    4450:	0501                	addi	a0,a0,0
    4452:	0302                	c.slli64	t1
    4454:	0902                	c.slli64	s2
    4456:	0000                	unimp
    4458:	0501                	addi	a0,a0,0
    445a:	0009                	c.nop	2
    445c:	0402                	c.slli64	s0
    445e:	0301                	addi	t1,t1,0
    4460:	0900                	addi	s0,sp,144
    4462:	0000                	unimp
    4464:	0501                	addi	a0,a0,0
    4466:	0402000b          	.insn	4, 0x0402000b
    446a:	0601                	addi	a2,a2,0
    446c:	00090003          	lb	zero,0(s2)
    4470:	0100                	addi	s0,sp,128
    4472:	0905                	addi	s2,s2,1
    4474:	0200                	addi	s0,sp,256
    4476:	0104                	addi	s1,sp,128
    4478:	04090003          	lb	zero,64(s2)
    447c:	0100                	addi	s0,sp,128
    447e:	0205                	addi	tp,tp,1 # 1 <_start-0x7fffffff>
    4480:	0306                	slli	t1,t1,0x1
    4482:	0901                	addi	s2,s2,0
    4484:	0006                	c.slli	zero,0x1
    4486:	0501                	addi	a0,a0,0
    4488:	060c                	addi	a1,sp,768
    448a:	00090003          	lb	zero,0(s2)
    448e:	0100                	addi	s0,sp,128
    4490:	0306                	slli	t1,t1,0x1
    4492:	090c                	addi	a1,sp,144
    4494:	0004                	.insn	2, 0x0004
    4496:	0501                	addi	a0,a0,0
    4498:	00e00303          	lb	t1,14(zero) # e <_start-0x7ffffff2>
    449c:	0609                	addi	a2,a2,2
    449e:	0100                	addi	s0,sp,128
    44a0:	0105                	addi	sp,sp,1
    44a2:	0306                	slli	t1,t1,0x1
    44a4:	0901                	addi	s2,s2,0
    44a6:	0000                	unimp
    44a8:	0901                	addi	s2,s2,0
    44aa:	0004                	.insn	2, 0x0004
    44ac:	0100                	addi	s0,sp,128
    44ae:	Address 0x44ae is out of bounds.


Disassembly of section .debug_str:

0000000000000000 <.debug_str>:
   0:	5f5f 6e69 3374      	.insn	6, 0x33746e695f5f
   6:	5f32                	lw	t5,44(sp)
   8:	0074                	addi	a3,sp,12
   a:	756d                	lui	a0,0xffffb
   c:	5f6c                	lw	a1,124(a4)
   e:	3371                	addiw	t1,t1,-4
  10:	0031                	c.nop	12
  12:	5f6e6973          	csrrsi	s2,0x5f6,28
  16:	6174                	ld	a3,192(a0)
  18:	6c62                	ld	s8,24(sp)
  1a:	0065                	c.nop	25
  1c:	7865                	lui	a6,0xffff9
  1e:	6570                	ld	a2,200(a0)
  20:	64657463          	bgeu	a0,t1,668 <_start-0x7ffff998>
  24:	7300                	ld	s0,32(a4)
  26:	6f68                	ld	a0,216(a4)
  28:	7472                	ld	s0,312(sp)
  2a:	7520                	ld	s0,104(a0)
  2c:	736e                	ld	t1,248(sp)
  2e:	6769                	lui	a4,0x1a
  30:	656e                	ld	a0,216(sp)
  32:	2064                	fld	fs1,192(s0)
  34:	6e69                	lui	t3,0x1a
  36:	0074                	addi	a3,sp,12
  38:	6576                	ld	a0,344(sp)
  3a:	6972                	ld	s2,280(sp)
  3c:	7966                	ld	s2,120(sp)
  3e:	6100                	ld	s0,0(a0)
  40:	6464                	ld	s1,200(s0)
  42:	715f 3133 7500      	.insn	6, 0x75003133715f
  48:	736e                	ld	t1,248(sp)
  4a:	6769                	lui	a4,0x1a
  4c:	656e                	ld	a0,216(sp)
  4e:	2064                	fld	fs1,192(s0)
  50:	72616863          	bltu	sp,t1,780 <_start-0x7ffff880>
  54:	6d00                	ld	s0,24(a0)
  56:	6961                	lui	s2,0x18
  58:	006e                	c.slli	zero,0x1b
  5a:	6574                	ld	a3,200(a0)
  5c:	6c007473          	csrrci	s0,0x6c0,0
  60:	20676e6f          	jal	t3,76266 <_start-0x7ff89d9a>
  64:	6f6c                	ld	a1,216(a4)
  66:	676e                	ld	a4,216(sp)
  68:	7520                	ld	s0,104(a0)
  6a:	736e                	ld	t1,248(sp)
  6c:	6769                	lui	a4,0x1a
  6e:	656e                	ld	a0,216(sp)
  70:	2064                	fld	fs1,192(s0)
  72:	6e69                	lui	t3,0x1a
  74:	0074                	addi	a3,sp,12
  76:	6572                	ld	a0,280(sp)
  78:	746c7573          	csrrci	a0,0x746,24
  7c:	6c00                	ld	s0,24(s0)
  7e:	20676e6f          	jal	t3,76284 <_start-0x7ff89d7c>
  82:	6f6c                	ld	a1,216(a4)
  84:	676e                	ld	a4,216(sp)
  86:	6920                	ld	s0,80(a0)
  88:	746e                	ld	s0,248(sp)
  8a:	6c00                	ld	s0,24(s0)
  8c:	6170776f          	jal	a4,7ea2 <_start-0x7fff815e>
  90:	47007373          	csrrci	t1,0x470,0
  94:	554e                	lw	a0,240(sp)
  96:	4320                	lw	s0,64(a4)
  98:	3731                	addiw	a4,a4,-20 # 19fec <_start-0x7ffe6014>
  9a:	3120                	fld	fs0,96(a0)
  9c:	2e34                	fld	fa3,88(a2)
  9e:	2e32                	fld	ft8,264(sp)
  a0:	2030                	fld	fa2,64(s0)
  a2:	6d2d                	lui	s10,0xb
  a4:	6261                	lui	tp,0x18
  a6:	3d69                	addiw	s10,s10,-6 # affa <_start-0x7fff5006>
  a8:	706c                	ld	a1,224(s0)
  aa:	3436                	fld	fs0,360(sp)
  ac:	2064                	fld	fs1,192(s0)
  ae:	6d2d                	lui	s10,0xb
  b0:	646f6d63          	bltu	t5,t1,70a <_start-0x7ffff8f6>
  b4:	6c65                	lui	s8,0x19
  b6:	6d3d                	lui	s10,0xf
  b8:	6465                	lui	s0,0x19
  ba:	6e61                	lui	t3,0x18
  bc:	2079                	.insn	2, 0x2079
  be:	6d2d                	lui	s10,0xb
  c0:	7574                	ld	a3,232(a0)
  c2:	656e                	ld	a0,216(sp)
  c4:	723d                	lui	tp,0xfffef
  c6:	656b636f          	jal	t1,b671c <_start-0x7ff498e4>
  ca:	2074                	fld	fa3,192(s0)
  cc:	6d2d                	lui	s10,0xb
  ce:	7369                	lui	t1,0xffffa
  d0:	2d61                	addiw	s10,s10,24 # b018 <_start-0x7fff4fe8>
  d2:	63657073          	csrci	0x636,10
  d6:	323d                	addiw	tp,tp,-17 # fffffffffffeefef <__global_pointer$+0xffffffff7ffec7a7>
  d8:	3130                	fld	fa2,96(a0)
  da:	3139                	addiw	sp,sp,-18
  dc:	3132                	fld	ft2,296(sp)
  de:	6d2d2033          	.insn	4, 0x6d2d2033
  e2:	7261                	lui	tp,0xffff8
  e4:	723d6863          	bltu	s10,gp,814 <_start-0x7ffff7ec>
  e8:	3676                	fld	fa2,376(sp)
  ea:	6934                	ld	a3,80(a0)
  ec:	616d                	addi	sp,sp,240
  ee:	6466                	ld	s0,88(sp)
  f0:	697a5f63          	bge	s4,s7,78e <_start-0x7ffff872>
  f4:	5f727363          	bgeu	tp,s7,6da <_start-0x7ffff926>
  f8:	697a                	ld	s2,408(sp)
  fa:	6566                	ld	a0,88(sp)
  fc:	636e                	ld	t1,216(sp)
  fe:	6965                	lui	s2,0x19
 100:	2d20                	fld	fs0,88(a0)
 102:	4f2d2067          	.insn	4, 0x4f2d2067
 106:	662d2033          	.insn	4, 0x662d2033
 10a:	6f6e                	ld	t5,216(sp)
 10c:	742d                	lui	s0,0xfffeb
 10e:	6572                	ld	a0,280(sp)
 110:	2d65                	addiw	s10,s10,25
 112:	6f6c                	ld	a1,216(a4)
 114:	642d706f          	j	d7756 <_start-0x7ff288aa>
 118:	7369                	lui	t1,0xffffa
 11a:	7274                	ld	a3,224(a2)
 11c:	6269                	lui	tp,0x1a
 11e:	7475                	lui	s0,0xffffd
 120:	2d65                	addiw	s10,s10,25
 122:	6170                	ld	a2,192(a0)
 124:	7474                	ld	a3,232(s0)
 126:	7265                	lui	tp,0xffff9
 128:	736e                	ld	t1,248(sp)
 12a:	7300                	ld	s0,32(a4)
 12c:	6f68                	ld	a0,216(a4)
 12e:	7472                	ld	s0,312(sp)
 130:	6920                	ld	s0,80(a0)
 132:	746e                	ld	s0,248(sp)
 134:	6c00                	ld	s0,24(s0)
 136:	20676e6f          	jal	t3,7633c <_start-0x7ff89cc4>
 13a:	6f64                	ld	s1,216(a4)
 13c:	6275                	lui	tp,0x1d
 13e:	656c                	ld	a1,200(a0)
 140:	7300                	ld	s0,32(a4)
 142:	7465                	lui	s0,0xffff9
 144:	74617453          	.insn	4, 0x74617453
 148:	2e2e0073          	.insn	4, 0x2e2e0073
 14c:	6d6f632f          	.insn	4, 0x6d6f632f
 150:	6f6d                	lui	t5,0x1b
 152:	2f6e                	fld	ft10,216(sp)
 154:	2e747263          	bgeu	s0,t2,438 <_start-0x7ffffbc8>
 158:	682f0053          	.insn	4, 0x682f0053
 15c:	2f656d6f          	jal	s10,56452 <_start-0x7ffa9bae>
 160:	3231                	addiw	tp,tp,-20 # 1cfec <_start-0x7ffe3014>
 162:	632d                	lui	t1,0xb
 164:	2d706d6f          	jal	s10,6c3a <_start-0x7fff93c6>
 168:	7261                	lui	tp,0xffff8
 16a:	662d6863          	bltu	s10,sp,7da <_start-0x7ffff826>
 16e:	7365442f          	.insn	4, 0x7365442f
 172:	706f746b          	.insn	4, 0x706f746b
 176:	7776632f          	.insn	4, 0x7776632f
 17a:	6178652f          	.insn	4, 0x6178652f
 17e:	706d                	c.lui	zero,0xffffb
 180:	656c                	ld	a1,200(a0)
 182:	2f432f73          	csrrs	t5,0x2f4,t1
 186:	6966                	ld	s2,88(sp)
 188:	3172                	fld	ft2,312(sp)
 18a:	4700                	lw	s0,8(a4)
 18c:	554e                	lw	a0,240(sp)
 18e:	4120                	lw	s0,64(a0)
 190:	2e322053          	.insn	4, 0x2e322053
 194:	3334                	fld	fa3,96(a4)
 196:	312e                	fld	ft2,232(sp)
 198:	7300                	ld	s0,32(a4)
 19a:	7274                	ld	a3,224(a2)
 19c:	6c6e                	ld	s8,216(sp)
 19e:	6e65                	lui	t3,0x19
 1a0:	7000                	ld	s0,32(s0)
 1a2:	6f72                	ld	t5,280(sp)
 1a4:	73736563          	bltu	t1,s7,8ce <_start-0x7ffff732>
 1a8:	705f 6572 6963      	.insn	6, 0x69636572705f
 1ae:	6e6f6973          	csrrsi	s2,0x6e6,30
 1b2:	5f00                	lw	s0,56(a4)
 1b4:	625f 6975 746c      	.insn	6, 0x746c6975625f
 1ba:	6e69                	lui	t3,0x1a
 1bc:	6d5f 6d65 7063      	.insn	6, 0x70636d656d5f
 1c2:	0079                	c.nop	30
 1c4:	7270                	ld	a2,224(a2)
 1c6:	6e69                	lui	t3,0x1a
 1c8:	7374                	ld	a3,224(a4)
 1ca:	7274                	ld	a3,224(a2)
 1cc:	5f00                	lw	s0,56(a4)
 1ce:	6474                	ld	a3,200(s0)
 1d0:	7461                	lui	s0,0xffff8
 1d2:	5f61                	li	t5,-8
 1d4:	6562                	ld	a0,24(sp)
 1d6:	006e6967          	.insn	4, 0x006e6967
 1da:	657a6973          	csrrsi	s2,hviprio2h,20
 1de:	745f 7300 7274      	.insn	6, 0x72747300745f
 1e4:	00797063          	bgeu	s2,t2,1e4 <_start-0x7ffffe1c>
 1e8:	7570                	ld	a2,232(a0)
 1ea:	6374                	ld	a3,192(a4)
 1ec:	6168                	ld	a0,192(a0)
 1ee:	0072                	c.slli	zero,0x1c
 1f0:	695f 696e 0074      	.insn	6, 0x0074696e695f
 1f6:	666c                	ld	a1,200(a2)
 1f8:	616c                	ld	a1,192(a0)
 1fa:	74730067          	jr	1863(t1) # b747 <_start-0x7fff48b9>
 1fe:	3072                	fld	ft0,312(sp)
 200:	5f00                	lw	s0,56(a4)
 202:	625f 6975 746c      	.insn	6, 0x746c6975625f
 208:	6e69                	lui	t3,0x1a
 20a:	6d5f 6d65 6573      	.insn	6, 0x65736d656d5f
 210:	0074                	addi	a3,sp,12
 212:	6e65                	lui	t3,0x19
 214:	6261                	lui	tp,0x18
 216:	656c                	ld	a1,200(a0)
 218:	6300                	ld	s0,0(a4)
 21a:	0065646f          	jal	s0,56220 <_start-0x7ffa9de0>
 21e:	4155                	li	sp,21
 220:	5452                	lw	s0,52(sp)
 222:	4c5f 5253 6100      	.insn	6, 0x610052534c5f
 228:	6772                	ld	a4,280(sp)
 22a:	61750063          	beq	a0,s7,82a <_start-0x7ffff7d6>
 22e:	7472                	ld	s0,312(sp)
 230:	6552                	ld	a0,272(sp)
 232:	76696563          	bltu	s2,t1,99c <_start-0x7ffff664>
 236:	0065                	c.nop	25
 238:	74646977          	.insn	4, 0x74646977
 23c:	0068                	addi	a0,sp,12
 23e:	6168                	ld	a0,192(a0)
 240:	646e                	ld	s0,216(sp)
 242:	656c                	ld	a1,200(a0)
 244:	745f 6172 0070      	.insn	6, 0x00706172745f
 24a:	6170                	ld	a2,192(a0)
 24c:	6364                	ld	s1,192(a4)
 24e:	7300                	ld	s0,32(a4)
 250:	7270                	ld	a2,224(a2)
 252:	6e69                	lui	t3,0x1a
 254:	6674                	ld	a3,200(a2)
 256:	705f 7475 6863      	.insn	6, 0x68637475705f
 25c:	7000                	ld	s0,32(s0)
 25e:	6972                	ld	s2,280(sp)
 260:	746e                	ld	s0,248(sp)
 262:	6568                	ld	a0,200(a0)
 264:	0078                	addi	a4,sp,12
 266:	75746567          	.insn	4, 0x75746567
 26a:	6e69                	lui	t3,0x1a
 26c:	0074                	addi	a3,sp,12
 26e:	5f5f 6e67 6375      	.insn	6, 0x63756e675f5f
 274:	765f 5f61 696c      	.insn	6, 0x696c5f61765f
 27a:	64007473          	csrrci	s0,0x640,0
 27e:	6769                	lui	a4,0x1a
 280:	6e690073          	.insn	4, 0x6e690073
 284:	7469                	lui	s0,0xffffa
 286:	745f 736c 7400      	.insn	6, 0x7400736c745f
 28c:	7362                	ld	t1,56(sp)
 28e:	69735f73          	csrrwi	t5,0x697,6
 292:	657a                	ld	a0,408(sp)
 294:	5f00                	lw	s0,56(a4)
 296:	755f 6e69 3874      	.insn	6, 0x38746e69755f
 29c:	745f 7000 7475      	.insn	6, 0x74757000745f
 2a2:	6164                	ld	s1,192(a0)
 2a4:	0074                	addi	a3,sp,12
 2a6:	6564                	ld	s1,200(a0)
 2a8:	61007473          	csrrci	s0,0x610,0
 2ac:	6772                	ld	a4,280(sp)
 2ae:	0076                	c.slli	zero,0x1d
 2b0:	6474                	ld	a3,200(s0)
 2b2:	7461                	lui	s0,0xffff8
 2b4:	5f61                	li	t5,-8
 2b6:	657a6973          	csrrsi	s2,hviprio2h,20
 2ba:	6300                	ld	s0,0(a4)
 2bc:	7561                	lui	a0,0xffff8
 2be:	61006573          	csrrsi	a0,0x610,0
 2c2:	6f74                	ld	a3,216(a4)
 2c4:	006c                	addi	a1,sp,12
 2c6:	6175                	addi	sp,sp,368
 2c8:	7472                	ld	s0,312(sp)
 2ca:	646e6553          	.insn	4, 0x646e6553
 2ce:	6100                	ld	s0,0(a0)
 2d0:	6f62                	ld	t5,24(sp)
 2d2:	7472                	ld	s0,312(sp)
 2d4:	7300                	ld	s0,32(a4)
 2d6:	7270                	ld	a2,224(a2)
 2d8:	6e69                	lui	t3,0x1a
 2da:	6674                	ld	a3,200(a2)
 2dc:	6200                	ld	s0,0(a2)
 2de:	7479                	lui	s0,0xffffe
 2e0:	0065                	c.nop	25
 2e2:	7570                	ld	a2,232(a0)
 2e4:	7374                	ld	a3,224(a4)
 2e6:	5500                	lw	s0,40(a0)
 2e8:	5241                	li	tp,-16
 2ea:	5f54                	lw	a3,60(a4)
 2ec:	434c                	lw	a1,4(a4)
 2ee:	0052                	c.slli	zero,0x14
 2f0:	6175                	addi	sp,sp,368
 2f2:	7472                	ld	s0,312(sp)
 2f4:	6e49                	lui	t3,0x12
 2f6:	7469                	lui	s0,0xffffa
 2f8:	7400                	ld	s0,40(s0)
 2fa:	736f686f          	jal	a6,f6a30 <_start-0x7ff095d0>
 2fe:	5f74                	lw	a3,124(a4)
 300:	7865                	lui	a6,0xffff9
 302:	7469                	lui	s0,0xffffa
 304:	5500                	lw	s0,40(a0)
 306:	5241                	li	tp,-16
 308:	5f54                	lw	a3,60(a4)
 30a:	4252                	lw	tp,20(sp)
 30c:	0052                	c.slli	zero,0x14
 30e:	6874                	ld	a3,208(s0)
 310:	6572                	ld	a0,280(sp)
 312:	6461                	lui	s0,0x18
 314:	705f 696f 746e      	.insn	6, 0x746e696f705f
 31a:	7265                	lui	tp,0xffff9
 31c:	7400                	ld	s0,40(s0)
 31e:	736f686f          	jal	a6,f6a54 <_start-0x7ff095ac>
 322:	0074                	addi	a3,sp,12
 324:	6e756f63          	bltu	a0,t2,a22 <_start-0x7ffff5de>
 328:	6574                	ld	a3,200(a0)
 32a:	5f72                	lw	t5,60(sp)
 32c:	616e                	ld	sp,216(sp)
 32e:	656d                	lui	a0,0x1b
 330:	74730073          	.insn	4, 0x74730073
 334:	6c72                	ld	s8,280(sp)
 336:	6e65                	lui	t3,0x19
 338:	7500                	ld	s0,40(a0)
 33a:	7261                	lui	tp,0xffff8
 33c:	5074                	lw	a3,100(s0)
 33e:	7475                	lui	s0,0xffffd
 340:	00727453          	fadd.s	fs0,ft4,ft7
 344:	616c                	ld	a1,192(a0)
 346:	665f7473          	csrrci	s0,0x665,30
 34a:	746d                	lui	s0,0xffffb
 34c:	5f00                	lw	s0,56(a4)
 34e:	755f 6e69 3674      	.insn	6, 0x36746e69755f
 354:	5f34                	lw	a3,120(a4)
 356:	0074                	addi	a3,sp,12
 358:	6164                	ld	s1,192(a0)
 35a:	6174                	ld	a3,192(a0)
 35c:	7200                	ld	s0,32(a2)
 35e:	7365                	lui	t1,0xffff9
 360:	63746977          	.insn	4, 0x63746977
 364:	0068                	addi	a0,sp,12
 366:	6e676973          	csrrsi	s2,0x6e6,14
 36a:	6700                	ld	s0,8(a4)
 36c:	7465                	lui	s0,0xffff9
 36e:	6e69                	lui	t3,0x1a
 370:	0074                	addi	a3,sp,12
 372:	6874                	ld	a3,208(s0)
 374:	6572                	ld	a0,280(sp)
 376:	6461                	lui	s0,0x18
 378:	655f 746e 7972      	.insn	6, 0x7972746e655f
 37e:	5f00                	lw	s0,56(a4)
 380:	625f 6975 746c      	.insn	6, 0x746c6975625f
 386:	6e69                	lui	t3,0x1a
 388:	765f 5f61 696c      	.insn	6, 0x696c5f61765f
 38e:	5f007473          	csrrci	s0,0x5f0,0
 392:	755f 6e69 7074      	.insn	6, 0x70746e69755f
 398:	7274                	ld	a3,224(a2)
 39a:	745f 7000 7473      	.insn	6, 0x74737000745f
 3a0:	0072                	c.slli	zero,0x1c
 3a2:	745f 7362 5f73      	.insn	6, 0x5f737362745f
 3a8:	6e65                	lui	t3,0x19
 3aa:	0064                	addi	s1,sp,12
 3ac:	6c61                	lui	s8,0x18
 3ae:	6674                	ld	a3,200(a2)
 3b0:	616c                	ld	a1,192(a0)
 3b2:	74730067          	jr	1863(t1) # ffffffffffff9747 <__global_pointer$+0xffffffff7fff6eff>
 3b6:	6372                	ld	t1,280(sp)
 3b8:	706d                	c.lui	zero,0xffffb
 3ba:	7600                	ld	s0,40(a2)
 3bc:	7270                	ld	a2,224(a2)
 3be:	6e69                	lui	t3,0x1a
 3c0:	6674                	ld	a3,200(a2)
 3c2:	746d                	lui	s0,0xffffb
 3c4:	7000                	ld	s0,32(s0)
 3c6:	6972                	ld	s2,280(sp)
 3c8:	746e                	ld	s0,248(sp)
 3ca:	756e                	ld	a0,248(sp)
 3cc:	006d                	c.nop	27
 3ce:	5f5f 6d74 0070      	.insn	6, 0x00706d745f5f
 3d4:	64726f77          	.insn	4, 0x64726f77
 3d8:	6200                	ld	s0,0(a2)
 3da:	7361                	lui	t1,0xffff8
 3dc:	0065                	c.nop	25
 3de:	6e75                	lui	t3,0x1d
 3e0:	6e676973          	csrrsi	s2,0x6e6,14
 3e4:	6465                	lui	s0,0x19
 3e6:	6e5f 6d75 6562      	.insn	6, 0x65626d756e5f
 3ec:	0072                	c.slli	zero,0x1c
 3ee:	6e756f63          	bltu	a0,t2,aec <_start-0x7ffff514>
 3f2:	6574                	ld	a3,200(a0)
 3f4:	7372                	ld	t1,312(sp)
 3f6:	5f00                	lw	s0,56(a4)
 3f8:	6474                	ld	a3,200(s0)
 3fa:	7461                	lui	s0,0xffff8
 3fc:	5f61                	li	t5,-8
 3fe:	6e65                	lui	t3,0x19
 400:	0064                	addi	s1,sp,12
 402:	6572                	ld	a0,280(sp)
 404:	70007367          	.insn	4, 0x70007367
 408:	7562                	ld	a0,56(sp)
 40a:	0066                	c.slli	zero,0x19
 40c:	4155                	li	sp,21
 40e:	5452                	lw	s0,52(sp)
 410:	Address 0x410 is out of bounds.


Disassembly of section .debug_line_str:

0000000000000000 <.debug_line_str>:
   0:	6d6f682f          	.insn	4, 0x6d6f682f
   4:	2f65                	addiw	t5,t5,25 # 1b019 <_start-0x7ffe4fe7>
   6:	3231                	addiw	tp,tp,-20 # ffffffffffff7fec <__global_pointer$+0xffffffff7fff57a4>
   8:	632d                	lui	t1,0xb
   a:	2d706d6f          	jal	s10,6ae0 <_start-0x7fff9520>
   e:	7261                	lui	tp,0xffff8
  10:	662d6863          	bltu	s10,sp,680 <_start-0x7ffff980>
  14:	7365442f          	.insn	4, 0x7365442f
  18:	706f746b          	.insn	4, 0x706f746b
  1c:	7776632f          	.insn	4, 0x7776632f
  20:	6178652f          	.insn	4, 0x6178652f
  24:	706d                	c.lui	zero,0xffffb
  26:	656c                	ld	a1,200(a0)
  28:	2f432f73          	csrrs	t5,0x2f4,t1
  2c:	6966                	ld	s2,88(sp)
  2e:	3172                	fld	ft2,312(sp)
  30:	6600                	ld	s0,8(a2)
  32:	7269                	lui	tp,0xffffa
  34:	2e31                	addiw	t3,t3,12 # 1900c <_start-0x7ffe6ff4>
  36:	2e2e0063          	beq	t3,sp,316 <_start-0x7ffffcea>
  3a:	6d6f632f          	.insn	4, 0x6d6f632f
  3e:	6f6d                	lui	t5,0x1b
  40:	006e                	c.slli	zero,0x1b
  42:	74706f2f          	.insn	4, 0x74706f2f
  46:	7369722f          	.insn	4, 0x7369722f
  4a:	722f7663          	bgeu	t5,sp,776 <_start-0x7ffff88a>
  4e:	7369                	lui	t1,0xffffa
  50:	34367663          	bgeu	a2,gp,39c <_start-0x7ffffc64>
  54:	752d                	lui	a0,0xfffeb
  56:	6b6e                	ld	s6,216(sp)
  58:	6f6e                	ld	t5,216(sp)
  5a:	652d6e77          	.insn	4, 0x652d6e77
  5e:	666c                	ld	a1,200(a2)
  60:	636e692f          	.insn	4, 0x636e692f
  64:	756c                	ld	a1,232(a0)
  66:	6564                	ld	s1,200(a0)
  68:	63616d2f          	.insn	4, 0x63616d2f
  6c:	6968                	ld	a0,208(a0)
  6e:	656e                	ld	a0,216(sp)
  70:	2f00                	fld	fs0,24(a4)
  72:	2f74706f          	j	47b68 <_start-0x7ffb8498>
  76:	6972                	ld	s2,280(sp)
  78:	2f766373          	csrrsi	t1,0x2f7,12
  7c:	6972                	ld	s2,280(sp)
  7e:	36766373          	csrrsi	t1,0x367,12
  82:	2d34                	fld	fa3,88(a0)
  84:	6e75                	lui	t3,0x1d
  86:	776f6e6b          	.insn	4, 0x776f6e6b
  8a:	2d6e                	fld	fs10,216(sp)
  8c:	6c65                	lui	s8,0x19
  8e:	2f66                	fld	ft10,88(sp)
  90:	6e69                	lui	t3,0x1a
  92:	64756c63          	bltu	a0,t2,6ea <_start-0x7ffff916>
  96:	2f65                	addiw	t5,t5,25 # 1b019 <_start-0x7ffe4fe7>
  98:	00737973          	csrrci	s2,0x7,6
  9c:	74706f2f          	.insn	4, 0x74706f2f
  a0:	7369722f          	.insn	4, 0x7369722f
  a4:	722f7663          	bgeu	t5,sp,7d0 <_start-0x7ffff830>
  a8:	7369                	lui	t1,0xffffa
  aa:	34367663          	bgeu	a2,gp,3f6 <_start-0x7ffffc0a>
  ae:	752d                	lui	a0,0xfffeb
  b0:	6b6e                	ld	s6,216(sp)
  b2:	6f6e                	ld	t5,216(sp)
  b4:	652d6e77          	.insn	4, 0x652d6e77
  b8:	666c                	ld	a1,200(a2)
  ba:	636e692f          	.insn	4, 0x636e692f
  be:	756c                	ld	a1,232(a0)
  c0:	6564                	ld	s1,200(a0)
  c2:	7500                	ld	s0,40(a0)
  c4:	6974                	ld	a3,208(a0)
  c6:	2e6c                	fld	fa1,216(a2)
  c8:	0068                	addi	a0,sp,12
  ca:	645f 6665 7561      	.insn	6, 0x75616665645f
  d0:	746c                	ld	a1,232(s0)
  d2:	745f 7079 7365      	.insn	6, 0x73657079745f
  d8:	682e                	ld	a6,200(sp)
  da:	5f00                	lw	s0,56(a4)
  dc:	69647473          	csrrci	s0,0x696,8
  e0:	746e                	ld	s0,248(sp)
  e2:	682e                	ld	a6,200(sp)
  e4:	7300                	ld	s0,32(a4)
  e6:	6474                	ld	a3,200(s0)
  e8:	6f69                	lui	t5,0x1a
  ea:	682e                	ld	a6,200(sp)
  ec:	6300                	ld	s0,0(a4)
  ee:	7472                	ld	s0,312(sp)
  f0:	532e                	lw	t1,232(sp)
  f2:	2e00                	fld	fs0,24(a2)
  f4:	2f2e                	fld	ft10,200(sp)
  f6:	6d6d6f63          	bltu	s10,s6,7d4 <_start-0x7ffff82c>
  fa:	732f6e6f          	jal	t3,f682c <_start-0x7ff097d4>
  fe:	7379                	lui	t1,0xffffe
 100:	6c6c6163          	bltu	s8,t1,7c2 <_start-0x7ffff83e>
 104:	00632e73          	csrrs	t3,0x6,t1
 108:	74706f2f          	.insn	4, 0x74706f2f
 10c:	7369722f          	.insn	4, 0x7369722f
 110:	6c2f7663          	bgeu	t5,sp,7dc <_start-0x7ffff824>
 114:	6269                	lui	tp,0x1a
 116:	6363672f          	.insn	4, 0x6363672f
 11a:	7369722f          	.insn	4, 0x7369722f
 11e:	34367663          	bgeu	a2,gp,46a <_start-0x7ffffb96>
 122:	752d                	lui	a0,0xfffeb
 124:	6b6e                	ld	s6,216(sp)
 126:	6f6e                	ld	t5,216(sp)
 128:	652d6e77          	.insn	4, 0x652d6e77
 12c:	666c                	ld	a1,200(a2)
 12e:	2e34312f          	.insn	4, 0x2e34312f
 132:	2e32                	fld	ft8,264(sp)
 134:	2f30                	fld	fa2,88(a4)
 136:	6e69                	lui	t3,0x1a
 138:	64756c63          	bltu	a0,t2,790 <_start-0x7ffff870>
 13c:	0065                	c.nop	25
 13e:	64647473          	csrrci	s0,hviprio1,8
 142:	6665                	lui	a2,0x19
 144:	682e                	ld	a6,200(sp)
 146:	7300                	ld	s0,32(a4)
 148:	6474                	ld	a3,200(s0)
 14a:	7261                	lui	tp,0xffff8
 14c:	00682e67          	.insn	4, 0x00682e67
 150:	69727473          	csrrci	s0,0x697,4
 154:	676e                	ld	a4,216(sp)
 156:	682e                	ld	a6,200(sp)
 158:	3c00                	fld	fs0,56(s0)
 15a:	7562                	ld	a0,56(sp)
 15c:	6c69                	lui	s8,0x1a
 15e:	2d74                	fld	fa3,216(a0)
 160:	6e69                	lui	t3,0x1a
 162:	003e                	c.slli	zero,0xf

Disassembly of section .comment:

0000000000000000 <.comment>:
   0:	3a434347          	fmsub.d	ft6,ft6,ft4,ft7,rmm
   4:	2820                	fld	fs0,80(s0)
   6:	2029                	.insn	2, 0x2029
   8:	3431                	addiw	s0,s0,-20 # ffffffffffff7fec <__global_pointer$+0xffffffff7fff57a4>
   a:	322e                	fld	ft4,232(sp)
   c:	302e                	fld	ft0,232(sp)
	...

Disassembly of section .riscv.attributes:

0000000000000000 <.riscv.attributes>:
   0:	6941                	lui	s2,0x10
   2:	0000                	unimp
   4:	7200                	ld	s0,32(a2)
   6:	7369                	lui	t1,0xffffa
   8:	01007663          	bgeu	zero,a6,14 <_start-0x7fffffec>
   c:	005f 0000 1004      	.insn	6, 0x10040000005f
  12:	7205                	lui	tp,0xfffe1
  14:	3676                	fld	fa2,376(sp)
  16:	6934                	ld	a3,80(a0)
  18:	7032                	.insn	2, 0x7032
  1a:	5f31                	li	t5,-20
  1c:	326d                	addiw	tp,tp,-5 # fffffffffffe0ffb <__global_pointer$+0xffffffff7ffde7b3>
  1e:	3070                	fld	fa2,224(s0)
  20:	615f 7032 5f31      	.insn	6, 0x5f317032615f
  26:	3266                	fld	ft4,120(sp)
  28:	3270                	fld	fa2,224(a2)
  2a:	645f 7032 5f32      	.insn	6, 0x5f327032645f
  30:	30703263          	.insn	4, 0x30703263
  34:	7a5f 6369 7273      	.insn	6, 0x727363697a5f
  3a:	7032                	.insn	2, 0x7032
  3c:	5f30                	lw	a2,120(a4)
  3e:	697a                	ld	s2,408(sp)
  40:	6566                	ld	a0,88(sp)
  42:	636e                	ld	t1,216(sp)
  44:	6965                	lui	s2,0x19
  46:	7032                	.insn	2, 0x7032
  48:	5f30                	lw	a2,120(a4)
  4a:	6d7a                	ld	s10,408(sp)
  4c:	756d                	lui	a0,0xffffb
  4e:	316c                	fld	fa1,224(a0)
  50:	3070                	fld	fa2,224(s0)
  52:	7a5f 6161 6f6d      	.insn	6, 0x6f6d61617a5f
  58:	7031                	c.lui	zero,0xfffec
  5a:	5f30                	lw	a2,120(a4)
  5c:	617a                	ld	sp,408(sp)
  5e:	726c                	ld	a1,224(a2)
  60:	70316373          	csrrsi	t1,0x703,2
  64:	0030                	addi	a2,sp,8
  66:	0108                	addi	a0,sp,128
  68:	0b0a                	slli	s6,s6,0x2

Disassembly of section .debug_frame:

0000000000000000 <.debug_frame>:
   0:	000c                	.insn	2, 0x000c
   2:	0000                	unimp
   4:	ffff                	.insn	2, 0xffff
   6:	ffff                	.insn	2, 0xffff
   8:	7c010003          	lb	zero,1984(sp)
   c:	0c01                	addi	s8,s8,0 # 1a000 <_start-0x7ffe6000>
   e:	0002                	c.slli64	zero
  10:	0014                	.insn	2, 0x0014
  12:	0000                	unimp
  14:	0000                	unimp
  16:	0000                	unimp
  18:	01c2                	slli	gp,gp,0x10
  1a:	8000                	.insn	2, 0x8000
  1c:	0000                	unimp
  1e:	0000                	unimp
  20:	0004                	.insn	2, 0x0004
  22:	0000                	unimp
  24:	0000                	unimp
  26:	0000                	unimp
  28:	0014                	.insn	2, 0x0014
  2a:	0000                	unimp
  2c:	0000                	unimp
  2e:	0000                	unimp
  30:	01c6                	slli	gp,gp,0x11
  32:	8000                	.insn	2, 0x8000
  34:	0000                	unimp
  36:	0000                	unimp
  38:	000a                	c.slli	zero,0x2
  3a:	0000                	unimp
  3c:	0000                	unimp
  3e:	0000                	unimp
  40:	0014                	.insn	2, 0x0014
  42:	0000                	unimp
  44:	0000                	unimp
  46:	0000                	unimp
  48:	01d0                	addi	a2,sp,196
  4a:	8000                	.insn	2, 0x8000
  4c:	0000                	unimp
  4e:	0000                	unimp
  50:	0060                	addi	s0,sp,12
  52:	0000                	unimp
  54:	0000                	unimp
  56:	0000                	unimp
  58:	0034                	addi	a3,sp,8
  5a:	0000                	unimp
  5c:	0000                	unimp
  5e:	0000                	unimp
  60:	1176                	slli	sp,sp,0x3d
  62:	8000                	.insn	2, 0x8000
  64:	0000                	unimp
  66:	0000                	unimp
  68:	01d8                	addi	a4,sp,196
  6a:	0000                	unimp
  6c:	0000                	unimp
  6e:	0000                	unimp
  70:	0e78                	addi	a4,sp,796
  72:	01d0                	addi	a2,sp,196
  74:	815a                	mv	sp,s6
  76:	8802                	jr	a6
  78:	8904                	.insn	2, 0x8904
  7a:	9206                	add	tp,tp,ra
  7c:	0308                	addi	a0,sp,384
  7e:	0136                	slli	sp,sp,0xd
  80:	c10a                	sw	sp,128(sp)
  82:	c842                	sw	a6,16(sp)
  84:	c942                	sw	a6,144(sp)
  86:	d242                	sw	a6,36(sp)
  88:	0e42                	slli	t3,t3,0x10
  8a:	4200                	lw	s0,0(a2)
  8c:	0000000b          	.insn	4, 0x000b
  90:	000c                	.insn	2, 0x000c
  92:	0000                	unimp
  94:	ffff                	.insn	2, 0xffff
  96:	ffff                	.insn	2, 0xffff
  98:	7c010003          	lb	zero,1984(sp)
  9c:	0c01                	addi	s8,s8,0
  9e:	0002                	c.slli64	zero
  a0:	0014                	.insn	2, 0x0014
  a2:	0000                	unimp
  a4:	0090                	addi	a2,sp,64
  a6:	0000                	unimp
  a8:	0230                	addi	a2,sp,264
  aa:	8000                	.insn	2, 0x8000
  ac:	0000                	unimp
  ae:	0000                	unimp
  b0:	0020                	addi	s0,sp,8
  b2:	0000                	unimp
  b4:	0000                	unimp
  b6:	0000                	unimp
  b8:	0014                	.insn	2, 0x0014
  ba:	0000                	unimp
  bc:	0090                	addi	a2,sp,64
  be:	0000                	unimp
  c0:	0250                	addi	a2,sp,260
  c2:	8000                	.insn	2, 0x8000
  c4:	0000                	unimp
  c6:	0000                	unimp
  c8:	000e                	c.slli	zero,0x3
  ca:	0000                	unimp
  cc:	0000                	unimp
  ce:	0000                	unimp
  d0:	0024                	addi	s1,sp,8
  d2:	0000                	unimp
  d4:	0090                	addi	a2,sp,64
  d6:	0000                	unimp
  d8:	025e                	slli	tp,tp,0x17
  da:	8000                	.insn	2, 0x8000
  dc:	0000                	unimp
  de:	0000                	unimp
  e0:	0312                	slli	t1,t1,0x4
  e2:	0000                	unimp
  e4:	0000                	unimp
  e6:	0000                	unimp
  e8:	0e42                	slli	t3,t3,0x10
  ea:	0290                	addi	a2,sp,320
  ec:	5a02                	lw	s4,32(sp)
  ee:	0e0a                	slli	t3,t3,0x2
  f0:	4200                	lw	s0,0(a2)
  f2:	02886e0b          	.insn	4, 0x02886e0b
  f6:	c87e                	sw	t6,16(sp)
  f8:	003c                	addi	a5,sp,8
  fa:	0000                	unimp
  fc:	0090                	addi	a2,sp,64
  fe:	0000                	unimp
 100:	0570                	addi	a2,sp,652
 102:	8000                	.insn	2, 0x8000
 104:	0000                	unimp
 106:	0000                	unimp
 108:	0412                	slli	s0,s0,0x4
 10a:	0000                	unimp
 10c:	0000                	unimp
 10e:	0000                	unimp
 110:	6602                	ld	a2,0(sp)
 112:	900e                	c.add	zero,gp
 114:	4202                	lw	tp,0(sp)
 116:	0288                	addi	a0,sp,320
 118:	7802                	ld	a6,32(sp)
 11a:	000e                	c.slli	zero,0x3
 11c:	58c8                	lw	a0,52(s1)
 11e:	900e                	c.add	zero,gp
 120:	8802                	jr	a6
 122:	4202                	lw	tp,0(sp)
 124:	0489                	addi	s1,s1,2
 126:	c97c                	sw	a5,84(a0)
 128:	0a021003          	lh	zero,160(tp) # a0 <_start-0x7fffff60>
 12c:	42c8                	lw	a0,4(a3)
 12e:	000e                	c.slli	zero,0x3
 130:	0b42                	slli	s6,s6,0x10
 132:	0000                	unimp
 134:	0000                	unimp
 136:	0000                	unimp
 138:	0014                	.insn	2, 0x0014
 13a:	0000                	unimp
 13c:	0090                	addi	a2,sp,64
 13e:	0000                	unimp
 140:	0982                	c.slli64	s3
 142:	8000                	.insn	2, 0x8000
 144:	0000                	unimp
 146:	0000                	unimp
 148:	000c                	.insn	2, 0x000c
 14a:	0000                	unimp
 14c:	0000                	unimp
 14e:	0000                	unimp
 150:	0014                	.insn	2, 0x0014
 152:	0000                	unimp
 154:	0090                	addi	a2,sp,64
 156:	0000                	unimp
 158:	098e                	slli	s3,s3,0x3
 15a:	8000                	.insn	2, 0x8000
 15c:	0000                	unimp
 15e:	0000                	unimp
 160:	001a                	c.slli	zero,0x6
 162:	0000                	unimp
 164:	0000                	unimp
 166:	0000                	unimp
 168:	0014                	.insn	2, 0x0014
 16a:	0000                	unimp
 16c:	0090                	addi	a2,sp,64
 16e:	0000                	unimp
 170:	09a8                	addi	a0,sp,216
 172:	8000                	.insn	2, 0x8000
 174:	0000                	unimp
 176:	0000                	unimp
 178:	0018                	.insn	2, 0x0018
 17a:	0000                	unimp
 17c:	0000                	unimp
 17e:	0000                	unimp
 180:	0014                	.insn	2, 0x0014
 182:	0000                	unimp
 184:	0090                	addi	a2,sp,64
 186:	0000                	unimp
 188:	09c0                	addi	s0,sp,212
 18a:	8000                	.insn	2, 0x8000
 18c:	0000                	unimp
 18e:	0000                	unimp
 190:	0028                	addi	a0,sp,8
 192:	0000                	unimp
 194:	0000                	unimp
 196:	0000                	unimp
 198:	0014                	.insn	2, 0x0014
 19a:	0000                	unimp
 19c:	0090                	addi	a2,sp,64
 19e:	0000                	unimp
 1a0:	09e8                	addi	a0,sp,220
 1a2:	8000                	.insn	2, 0x8000
 1a4:	0000                	unimp
 1a6:	0000                	unimp
 1a8:	003a                	c.slli	zero,0xe
 1aa:	0000                	unimp
 1ac:	0000                	unimp
 1ae:	0000                	unimp
 1b0:	0014                	.insn	2, 0x0014
 1b2:	0000                	unimp
 1b4:	0090                	addi	a2,sp,64
 1b6:	0000                	unimp
 1b8:	0a22                	slli	s4,s4,0x8
 1ba:	8000                	.insn	2, 0x8000
 1bc:	0000                	unimp
 1be:	0000                	unimp
 1c0:	0012                	c.slli	zero,0x4
 1c2:	0000                	unimp
 1c4:	0000                	unimp
 1c6:	0000                	unimp
 1c8:	0014                	.insn	2, 0x0014
 1ca:	0000                	unimp
 1cc:	0090                	addi	a2,sp,64
 1ce:	0000                	unimp
 1d0:	0a34                	addi	a3,sp,280
 1d2:	8000                	.insn	2, 0x8000
 1d4:	0000                	unimp
 1d6:	0000                	unimp
 1d8:	0010                	.insn	2, 0x0010
 1da:	0000                	unimp
 1dc:	0000                	unimp
 1de:	0000                	unimp
 1e0:	001c                	.insn	2, 0x001c
 1e2:	0000                	unimp
 1e4:	0090                	addi	a2,sp,64
 1e6:	0000                	unimp
 1e8:	0a44                	addi	s1,sp,276
 1ea:	8000                	.insn	2, 0x8000
 1ec:	0000                	unimp
 1ee:	0000                	unimp
 1f0:	0008                	.insn	2, 0x0008
 1f2:	0000                	unimp
 1f4:	0000                	unimp
 1f6:	0000                	unimp
 1f8:	0e42                	slli	t3,t3,0x10
 1fa:	4210                	lw	a2,0(a2)
 1fc:	0281                	addi	t0,t0,0
 1fe:	0000                	unimp
 200:	0014                	.insn	2, 0x0014
 202:	0000                	unimp
 204:	0090                	addi	a2,sp,64
 206:	0000                	unimp
 208:	0a4c                	addi	a1,sp,276
 20a:	8000                	.insn	2, 0x8000
 20c:	0000                	unimp
 20e:	0000                	unimp
 210:	000e                	c.slli	zero,0x3
 212:	0000                	unimp
 214:	0000                	unimp
 216:	0000                	unimp
 218:	0014                	.insn	2, 0x0014
 21a:	0000                	unimp
 21c:	0090                	addi	a2,sp,64
 21e:	0000                	unimp
 220:	0a5a                	slli	s4,s4,0x16
 222:	8000                	.insn	2, 0x8000
 224:	0000                	unimp
 226:	0000                	unimp
 228:	0028                	addi	a0,sp,8
 22a:	0000                	unimp
 22c:	0000                	unimp
 22e:	0000                	unimp
 230:	0014                	.insn	2, 0x0014
 232:	0000                	unimp
 234:	0090                	addi	a2,sp,64
 236:	0000                	unimp
 238:	0a82                	c.slli64	s5
 23a:	8000                	.insn	2, 0x8000
 23c:	0000                	unimp
 23e:	0000                	unimp
 240:	002a                	c.slli	zero,0xa
 242:	0000                	unimp
 244:	0000                	unimp
 246:	0000                	unimp
 248:	0014                	.insn	2, 0x0014
 24a:	0000                	unimp
 24c:	0090                	addi	a2,sp,64
 24e:	0000                	unimp
 250:	0aac                	addi	a1,sp,344
 252:	8000                	.insn	2, 0x8000
 254:	0000                	unimp
 256:	0000                	unimp
 258:	0006                	c.slli	zero,0x1
 25a:	0000                	unimp
 25c:	0000                	unimp
 25e:	0000                	unimp
 260:	0014                	.insn	2, 0x0014
 262:	0000                	unimp
 264:	0090                	addi	a2,sp,64
 266:	0000                	unimp
 268:	134e                	slli	t1,t1,0x33
 26a:	8000                	.insn	2, 0x8000
 26c:	0000                	unimp
 26e:	0000                	unimp
 270:	0030                	addi	a2,sp,8
 272:	0000                	unimp
 274:	0000                	unimp
 276:	0000                	unimp
 278:	001c                	.insn	2, 0x001c
 27a:	0000                	unimp
 27c:	0090                	addi	a2,sp,64
 27e:	0000                	unimp
 280:	0ab2                	slli	s5,s5,0xc
 282:	8000                	.insn	2, 0x8000
 284:	0000                	unimp
 286:	0000                	unimp
 288:	0200                	addi	s0,sp,256
 28a:	0000                	unimp
 28c:	0000                	unimp
 28e:	0000                	unimp
 290:	0e48                	addi	a0,sp,788
 292:	0320                	addi	s0,sp,392
 294:	01f6                	slli	gp,gp,0x1d
 296:	000e                	c.slli	zero,0x3
 298:	0024                	addi	s1,sp,8
 29a:	0000                	unimp
 29c:	0090                	addi	a2,sp,64
 29e:	0000                	unimp
 2a0:	0cb2                	slli	s9,s9,0xc
 2a2:	8000                	.insn	2, 0x8000
 2a4:	0000                	unimp
 2a6:	0000                	unimp
 2a8:	0026                	c.slli	zero,0x9
 2aa:	0000                	unimp
 2ac:	0000                	unimp
 2ae:	0000                	unimp
 2b0:	0e42                	slli	t3,t3,0x10
 2b2:	4a60                	lw	s0,84(a2)
 2b4:	1281                	addi	t0,t0,-32
 2b6:	c154                	sw	a3,4(a0)
 2b8:	0e44                	addi	s1,sp,788
 2ba:	0000                	unimp
 2bc:	0000                	unimp
 2be:	0000                	unimp
 2c0:	0024                	addi	s1,sp,8
 2c2:	0000                	unimp
 2c4:	0090                	addi	a2,sp,64
 2c6:	0000                	unimp
 2c8:	0cd8                	addi	a4,sp,596
 2ca:	8000                	.insn	2, 0x8000
 2cc:	0000                	unimp
 2ce:	0000                	unimp
 2d0:	0034                	addi	a3,sp,8
 2d2:	0000                	unimp
 2d4:	0000                	unimp
 2d6:	0000                	unimp
 2d8:	0e42                	slli	t3,t3,0x10
 2da:	4a60                	lw	s0,84(a2)
 2dc:	1088                	addi	a0,sp,96
 2de:	8148                	.insn	2, 0x8148
 2e0:	580e                	lw	a6,224(sp)
 2e2:	44c1                	li	s1,16
 2e4:	42c8                	lw	a0,4(a3)
 2e6:	000e                	c.slli	zero,0x3
 2e8:	0014                	.insn	2, 0x0014
 2ea:	0000                	unimp
 2ec:	0090                	addi	a2,sp,64
 2ee:	0000                	unimp
 2f0:	0d0c                	addi	a1,sp,656
 2f2:	8000                	.insn	2, 0x8000
 2f4:	0000                	unimp
 2f6:	0000                	unimp
 2f8:	00fe                	slli	ra,ra,0x1f
 2fa:	0000                	unimp
 2fc:	0000                	unimp
 2fe:	0000                	unimp
 300:	0014                	.insn	2, 0x0014
 302:	0000                	unimp
 304:	0090                	addi	a2,sp,64
 306:	0000                	unimp
 308:	0e0a                	slli	t3,t3,0x2
 30a:	8000                	.insn	2, 0x8000
 30c:	0000                	unimp
 30e:	0000                	unimp
 310:	01ba                	slli	gp,gp,0xe
 312:	0000                	unimp
 314:	0000                	unimp
 316:	0000                	unimp
 318:	002c                	addi	a1,sp,8
 31a:	0000                	unimp
 31c:	0090                	addi	a2,sp,64
 31e:	0000                	unimp
 320:	0fc4                	addi	s1,sp,980
 322:	8000                	.insn	2, 0x8000
 324:	0000                	unimp
 326:	0000                	unimp
 328:	00da                	slli	ra,ra,0x16
 32a:	0000                	unimp
 32c:	0000                	unimp
 32e:	0000                	unimp
 330:	0e42                	slli	t3,t3,0x10
 332:	01b0                	addi	a2,sp,200
 334:	9346                	add	t1,t1,a7
 336:	460a                	lw	a2,128(sp)
 338:	0c94                	addi	a3,sp,592
 33a:	894e                	mv	s2,s3
 33c:	9206                	add	tp,tp,ra
 33e:	4e08                	lw	a0,24(a2)
 340:	0281                	addi	t0,t0,0
 342:	0488                	addi	a0,sp,576
 344:	0e95                	addi	t4,t4,5
 346:	0000                	unimp
 348:	0014                	.insn	2, 0x0014
 34a:	0000                	unimp
 34c:	0090                	addi	a2,sp,64
 34e:	0000                	unimp
 350:	109e                	slli	ra,ra,0x27
 352:	8000                	.insn	2, 0x8000
 354:	0000                	unimp
 356:	0000                	unimp
 358:	001a                	c.slli	zero,0x6
 35a:	0000                	unimp
 35c:	0000                	unimp
 35e:	0000                	unimp
 360:	0014                	.insn	2, 0x0014
 362:	0000                	unimp
 364:	0090                	addi	a2,sp,64
 366:	0000                	unimp
 368:	10b8                	addi	a4,sp,104
 36a:	8000                	.insn	2, 0x8000
 36c:	0000                	unimp
 36e:	0000                	unimp
 370:	0024                	addi	s1,sp,8
 372:	0000                	unimp
 374:	0000                	unimp
 376:	0000                	unimp
 378:	0014                	.insn	2, 0x0014
 37a:	0000                	unimp
 37c:	0090                	addi	a2,sp,64
 37e:	0000                	unimp
 380:	10dc                	addi	a5,sp,100
 382:	8000                	.insn	2, 0x8000
 384:	0000                	unimp
 386:	0000                	unimp
 388:	001e                	c.slli	zero,0x7
 38a:	0000                	unimp
 38c:	0000                	unimp
 38e:	0000                	unimp
 390:	0014                	.insn	2, 0x0014
 392:	0000                	unimp
 394:	0090                	addi	a2,sp,64
 396:	0000                	unimp
 398:	10fa                	slli	ra,ra,0x3e
 39a:	8000                	.insn	2, 0x8000
 39c:	0000                	unimp
 39e:	0000                	unimp
 3a0:	0012                	c.slli	zero,0x4
 3a2:	0000                	unimp
 3a4:	0000                	unimp
 3a6:	0000                	unimp
 3a8:	0014                	.insn	2, 0x0014
 3aa:	0000                	unimp
 3ac:	0090                	addi	a2,sp,64
 3ae:	0000                	unimp
 3b0:	110c                	addi	a1,sp,160
 3b2:	8000                	.insn	2, 0x8000
 3b4:	0000                	unimp
 3b6:	0000                	unimp
 3b8:	006a                	c.slli	zero,0x1a
 3ba:	0000                	unimp
 3bc:	0000                	unimp
	...
